; Listing generated by Microsoft (R) Optimizing Compiler Version 19.16.27026.1 

include listing.inc

INCLUDELIB MSVCRT
INCLUDELIB OLDNAMES

PUBLIC	??0exception@std@@QEAA@AEBV01@@Z		; std::exception::exception
PUBLIC	??1exception@std@@UEAA@XZ			; std::exception::~exception
PUBLIC	?what@exception@std@@UEBAPEBDXZ			; std::exception::what
PUBLIC	??_Gexception@std@@UEAAPEAXI@Z			; std::exception::`scalar deleting destructor'
PUBLIC	??0logic_error@std@@QEAA@AEBV01@@Z		; std::logic_error::logic_error
PUBLIC	??_Glogic_error@std@@UEAAPEAXI@Z		; std::logic_error::`scalar deleting destructor'
PUBLIC	??0fail_fast@gsl@@QEAA@QEBD@Z			; gsl::fail_fast::fail_fast
PUBLIC	??1fail_fast@gsl@@UEAA@XZ			; gsl::fail_fast::~fail_fast
PUBLIC	??0fail_fast@gsl@@QEAA@AEBU01@@Z		; gsl::fail_fast::fail_fast
PUBLIC	??0fail_fast@gsl@@QEAA@$$QEAU01@@Z		; gsl::fail_fast::fail_fast
PUBLIC	??_Gfail_fast@gsl@@UEAAPEAXI@Z			; gsl::fail_fast::`scalar deleting destructor'
PUBLIC	??1narrowing_error@gsl@@UEAA@XZ			; gsl::narrowing_error::~narrowing_error
PUBLIC	??0narrowing_error@gsl@@QEAA@AEBU01@@Z		; gsl::narrowing_error::narrowing_error
PUBLIC	??0narrowing_error@gsl@@QEAA@$$QEAU01@@Z	; gsl::narrowing_error::narrowing_error
PUBLIC	??_Gnarrowing_error@gsl@@UEAAPEAXI@Z		; gsl::narrowing_error::`scalar deleting destructor'
PUBLIC	??$throw_exception@Ufail_fast@gsl@@@details@gsl@@YAX$$QEAUfail_fast@1@@Z ; gsl::details::throw_exception<gsl::fail_fast>
PUBLIC	?test_span_unoptimizable_rangecheck@@YAXV?$span@H$0?0@gsl@@H@Z ; test_span_unoptimizable_rangecheck
PUBLIC	??0?$span@H$0?0@gsl@@AEAA@UKnownNotNull@01@_J@Z	; gsl::span<int,-1>::span<int,-1>
PUBLIC	?make_subspan@?$span@H$0?0@gsl@@AEBA?AV12@_J0V?$subspan_selector@$0?0@12@@Z ; gsl::span<int,-1>::make_subspan
PUBLIC	?test_span_for@@YAXV?$span@H$0?0@gsl@@@Z	; test_span_for
PUBLIC	?test_span_iter@@YAXV?$span@H$0?0@gsl@@@Z	; test_span_iter
PUBLIC	?test_span_rangeiter@@YAXV?$span@H$0?0@gsl@@@Z	; test_span_rangeiter
PUBLIC	?static_size_array_span@@YAXAEAUIDE_DRIVE_STATE@@@Z ; static_size_array_span
PUBLIC	?test_convert_span_Joe@@YAEAEAUIDE_DRIVE_STATE@@@Z ; test_convert_span_Joe
PUBLIC	??$convert_span@EV?$span@G$0?0@gsl@@@@YA?AV?$span@E$0?0@gsl@@V?$span@G$0?0@1@@Z ; convert_span<unsigned char,gsl::span<unsigned short,-1> >
PUBLIC	?mysubspan1@@YA_JXZ				; mysubspan1
PUBLIC	?mysubspan2@@YA_J_J@Z				; mysubspan2
PUBLIC	?mysubspan3@@YA_JXZ				; mysubspan3
PUBLIC	?mysubspan4@@YA?AV?$span@H$0?0@gsl@@PEAH_J1@Z	; mysubspan4
PUBLIC	?mysubspan5@@YA?AV?$span@H$0?0@gsl@@PEAH_J1@Z	; mysubspan5
PUBLIC	?mysubspan6@@YA?AV?$span@H$0?0@gsl@@PEAH_J@Z	; mysubspan6
PUBLIC	?mysubspan7@@YA?AV?$span@H$0?0@gsl@@PEAH_J1@Z	; mysubspan7
PUBLIC	?mysubspan8@@YA?AV?$span@H$0?0@gsl@@PEAH_J1@Z	; mysubspan8
PUBLIC	?mysubspan9@@YA?AV?$span@H$0?0@gsl@@PEAH_J1@Z	; mysubspan9
PUBLIC	?doterminate@@YAXXZ				; doterminate
PUBLIC	?copy_span@@YAXV?$span@H$0?0@gsl@@0@Z		; copy_span
PUBLIC	?gsl_copy_span@@YAXV?$span@H$0?0@gsl@@0@Z	; gsl_copy_span
PUBLIC	??$copy@H$0?0H$0?0@gsl@@YAXV?$span@H$0?0@0@0@Z	; gsl::copy<int,-1,int,-1>
PUBLIC	?test_string_std_copy@@YAXXZ			; test_string_std_copy
PUBLIC	??0?$span@$$CBD$0?0@gsl@@QEAA@PEBD_J@Z		; gsl::span<char const ,-1>::span<char const ,-1>
PUBLIC	??$ensure_z@$$CBD$0L@@gsl@@YA?AV?$span@$$CBD$0?0@0@AEAY0L@$$CBD@Z ; gsl::ensure_z<char const ,11>
PUBLIC	?test_string_gsl_copy@@YAXXZ			; test_string_gsl_copy
PUBLIC	??$copy@$$CBD$0?0E$0?0@gsl@@YAXV?$span@$$CBD$0?0@0@V?$span@E$0?0@0@@Z ; gsl::copy<char const ,-1,unsigned char,-1>
PUBLIC	??$forward@Ufail_fast@gsl@@@std@@YA$$QEAUfail_fast@gsl@@AEAU12@@Z ; std::forward<gsl::fail_fast>
PUBLIC	??$ensure_z@$$CBD@gsl@@YA?AV?$span@$$CBD$0?0@0@AEBQEBD_J@Z ; gsl::ensure_z<char const >
PUBLIC	??$ensure_sentinel@$$CBD$0A@@gsl@@YA?AV?$span@$$CBD$0?0@0@PEBD_J@Z ; gsl::ensure_sentinel<char const ,0>
PUBLIC	??$throw_exception@Unarrowing_error@gsl@@@details@gsl@@YAX$$QEAUnarrowing_error@1@@Z ; gsl::details::throw_exception<gsl::narrowing_error>
PUBLIC	??$forward@Unarrowing_error@gsl@@@std@@YA$$QEAUnarrowing_error@gsl@@AEAU12@@Z ; std::forward<gsl::narrowing_error>
PUBLIC	??_7exception@std@@6B@				; std::exception::`vftable'
PUBLIC	??_C@_0BC@EOODALEL@Unknown?5exception@		; `string'
PUBLIC	??_7logic_error@std@@6B@			; std::logic_error::`vftable'
PUBLIC	??_7fail_fast@gsl@@6B@				; gsl::fail_fast::`vftable'
PUBLIC	??_R0?AVexception@std@@@8			; std::exception `RTTI Type Descriptor'
PUBLIC	_CT??_R0?AVexception@std@@@8??0exception@std@@QEAA@AEBV01@@Z24
PUBLIC	??_7narrowing_error@gsl@@6B@			; gsl::narrowing_error::`vftable'
PUBLIC	??_C@_0ED@NAHIIAGE@GSL?3?5Precondition?5failure?5at?5c?3@ ; `string'
PUBLIC	??_C@_0L@CCAJJBND@iVtrau?5lDC@			; `string'
PUBLIC	??_C@_0ED@HAMNHNCO@GSL?3?5Precondition?5failure?5at?5c?3@ ; `string'
PUBLIC	??_C@_0ED@PLCCJGML@GSL?3?5Precondition?5failure?5at?5c?3@ ; `string'
PUBLIC	??_C@_0ED@GHOHAFBM@GSL?3?5Precondition?5failure?5at?5c?3@ ; `string'
PUBLIC	??_C@_0ED@KIOHOGJB@GSL?3?5Precondition?5failure?5at?5c?3@ ; `string'
PUBLIC	??_C@_0ED@MMILCDJF@GSL?3?5Precondition?5failure?5at?5c?3@ ; `string'
PUBLIC	_TI3?AUfail_fast@gsl@@
PUBLIC	_CTA3?AUfail_fast@gsl@@
PUBLIC	??_R0?AUfail_fast@gsl@@@8			; gsl::fail_fast `RTTI Type Descriptor'
PUBLIC	_CT??_R0?AUfail_fast@gsl@@@8??0fail_fast@gsl@@QEAA@AEBU01@@Z24
PUBLIC	??_R0?AVlogic_error@std@@@8			; std::logic_error `RTTI Type Descriptor'
PUBLIC	_CT??_R0?AVlogic_error@std@@@8??0logic_error@std@@QEAA@AEBV01@@Z24
PUBLIC	??_C@_0EL@EPJEKFNE@GSL?3?5Precondition?5failure?5at?5c?3@ ; `string'
PUBLIC	??_C@_0ED@HPBMEGKB@GSL?3?5Precondition?5failure?5at?5c?3@ ; `string'
PUBLIC	??_C@_0ED@LKBIKNJ@GSL?3?5Precondition?5failure?5at?5c?3@ ; `string'
PUBLIC	??_C@_0ED@JOPLHMJE@GSL?3?5Precondition?5failure?5at?5c?3@ ; `string'
PUBLIC	??_C@_0EL@HEMMNCGC@GSL?3?5Postcondition?5failure?5at?5c@ ; `string'
PUBLIC	??_C@_0EL@CANAMLLN@GSL?3?5Postcondition?5failure?5at?5c@ ; `string'
PUBLIC	_TI2?AUnarrowing_error@gsl@@
PUBLIC	_CTA2?AUnarrowing_error@gsl@@
PUBLIC	??_R0?AUnarrowing_error@gsl@@@8			; gsl::narrowing_error `RTTI Type Descriptor'
PUBLIC	_CT??_R0?AUnarrowing_error@gsl@@@8??0narrowing_error@gsl@@QEAA@AEBU01@@Z24
PUBLIC	??_C@_0ED@GOAPCFOK@GSL?3?5Precondition?5failure?5at?5c?3@ ; `string'
PUBLIC	??_R4exception@std@@6B@				; std::exception::`RTTI Complete Object Locator'
PUBLIC	??_R3exception@std@@8				; std::exception::`RTTI Class Hierarchy Descriptor'
PUBLIC	??_R2exception@std@@8				; std::exception::`RTTI Base Class Array'
PUBLIC	??_R1A@?0A@EA@exception@std@@8			; std::exception::`RTTI Base Class Descriptor at (0,-1,0,64)'
PUBLIC	??_R4logic_error@std@@6B@			; std::logic_error::`RTTI Complete Object Locator'
PUBLIC	??_R3logic_error@std@@8				; std::logic_error::`RTTI Class Hierarchy Descriptor'
PUBLIC	??_R2logic_error@std@@8				; std::logic_error::`RTTI Base Class Array'
PUBLIC	??_R1A@?0A@EA@logic_error@std@@8		; std::logic_error::`RTTI Base Class Descriptor at (0,-1,0,64)'
PUBLIC	??_R4fail_fast@gsl@@6B@				; gsl::fail_fast::`RTTI Complete Object Locator'
PUBLIC	??_R3fail_fast@gsl@@8				; gsl::fail_fast::`RTTI Class Hierarchy Descriptor'
PUBLIC	??_R2fail_fast@gsl@@8				; gsl::fail_fast::`RTTI Base Class Array'
PUBLIC	??_R1A@?0A@EA@fail_fast@gsl@@8			; gsl::fail_fast::`RTTI Base Class Descriptor at (0,-1,0,64)'
PUBLIC	??_R4narrowing_error@gsl@@6B@			; gsl::narrowing_error::`RTTI Complete Object Locator'
PUBLIC	??_R3narrowing_error@gsl@@8			; gsl::narrowing_error::`RTTI Class Hierarchy Descriptor'
PUBLIC	??_R2narrowing_error@gsl@@8			; gsl::narrowing_error::`RTTI Base Class Array'
PUBLIC	??_R1A@?0A@EA@narrowing_error@gsl@@8		; gsl::narrowing_error::`RTTI Base Class Descriptor at (0,-1,0,64)'
PUBLIC	__xmm@00000001000000010000000100000001
PUBLIC	__xmm@00000003000000020000000100000000
EXTRN	??3@YAXPEAX_K@Z:PROC				; operator delete
EXTRN	__std_terminate:PROC
EXTRN	__imp_terminate:PROC
EXTRN	__std_exception_copy:PROC
EXTRN	__std_exception_destroy:PROC
EXTRN	??_Eexception@std@@UEAAPEAXI@Z:PROC		; std::exception::`vector deleting destructor'
EXTRN	??_Elogic_error@std@@UEAAPEAXI@Z:PROC		; std::logic_error::`vector deleting destructor'
EXTRN	??_Efail_fast@gsl@@UEAAPEAXI@Z:PROC		; gsl::fail_fast::`vector deleting destructor'
EXTRN	??_Enarrowing_error@gsl@@UEAAPEAXI@Z:PROC	; gsl::narrowing_error::`vector deleting destructor'
EXTRN	?bar@@YAXV?$span@E$0?0@gsl@@@Z:PROC		; bar
EXTRN	_CxxThrowException:PROC
EXTRN	__CxxFrameHandler3:PROC
EXTRN	__GSHandlerCheck_EH:PROC
EXTRN	__security_check_cookie:PROC
EXTRN	memmove:PROC
EXTRN	??_7type_info@@6B@:BYTE				; type_info::`vftable'
EXTRN	__security_cookie:QWORD
;	COMDAT pdata
pdata	SEGMENT
$pdata$??0exception@std@@QEAA@QEBD@Z DD imagerel $LN5
	DD	imagerel $LN5+64
	DD	imagerel $unwind$??0exception@std@@QEAA@QEBD@Z
pdata	ENDS
;	COMDAT pdata
pdata	SEGMENT
$pdata$??0exception@std@@QEAA@AEBV01@@Z DD imagerel $LN5
	DD	imagerel $LN5+53
	DD	imagerel $unwind$??0exception@std@@QEAA@AEBV01@@Z
pdata	ENDS
;	COMDAT pdata
pdata	SEGMENT
$pdata$??_Gexception@std@@UEAAPEAXI@Z DD imagerel $LN9
	DD	imagerel $LN9+66
	DD	imagerel $unwind$??_Gexception@std@@UEAAPEAXI@Z
pdata	ENDS
;	COMDAT pdata
pdata	SEGMENT
$pdata$??0logic_error@std@@QEAA@PEBD@Z DD imagerel $LN8
	DD	imagerel $LN8+74
	DD	imagerel $unwind$??0logic_error@std@@QEAA@PEBD@Z
pdata	ENDS
;	COMDAT pdata
pdata	SEGMENT
$pdata$??0logic_error@std@@QEAA@AEBV01@@Z DD imagerel $LN7
	DD	imagerel $LN7+63
	DD	imagerel $unwind$??0logic_error@std@@QEAA@AEBV01@@Z
pdata	ENDS
;	COMDAT pdata
pdata	SEGMENT
$pdata$??0logic_error@std@@QEAA@$$QEAV01@@Z DD imagerel $LN7
	DD	imagerel $LN7+63
	DD	imagerel $unwind$??0logic_error@std@@QEAA@$$QEAV01@@Z
pdata	ENDS
;	COMDAT pdata
pdata	SEGMENT
$pdata$??_Glogic_error@std@@UEAAPEAXI@Z DD imagerel $LN12
	DD	imagerel $LN12+66
	DD	imagerel $unwind$??_Glogic_error@std@@UEAAPEAXI@Z
pdata	ENDS
;	COMDAT pdata
pdata	SEGMENT
$pdata$??0fail_fast@gsl@@QEAA@QEBD@Z DD imagerel $LN10
	DD	imagerel $LN10+74
	DD	imagerel $unwind$??0fail_fast@gsl@@QEAA@QEBD@Z
pdata	ENDS
;	COMDAT pdata
pdata	SEGMENT
$pdata$??0fail_fast@gsl@@QEAA@AEBU01@@Z DD imagerel $LN10
	DD	imagerel $LN10+63
	DD	imagerel $unwind$??0fail_fast@gsl@@QEAA@AEBU01@@Z
pdata	ENDS
;	COMDAT pdata
pdata	SEGMENT
$pdata$??0fail_fast@gsl@@QEAA@$$QEAU01@@Z DD imagerel $LN10
	DD	imagerel $LN10+63
	DD	imagerel $unwind$??0fail_fast@gsl@@QEAA@$$QEAU01@@Z
pdata	ENDS
;	COMDAT pdata
pdata	SEGMENT
$pdata$??_Gfail_fast@gsl@@UEAAPEAXI@Z DD imagerel $LN15
	DD	imagerel $LN15+66
	DD	imagerel $unwind$??_Gfail_fast@gsl@@UEAAPEAXI@Z
pdata	ENDS
;	COMDAT pdata
pdata	SEGMENT
$pdata$??0narrowing_error@gsl@@QEAA@AEBU01@@Z DD imagerel $LN7
	DD	imagerel $LN7+63
	DD	imagerel $unwind$??0narrowing_error@gsl@@QEAA@AEBU01@@Z
pdata	ENDS
;	COMDAT pdata
pdata	SEGMENT
$pdata$??0narrowing_error@gsl@@QEAA@$$QEAU01@@Z DD imagerel $LN7
	DD	imagerel $LN7+63
	DD	imagerel $unwind$??0narrowing_error@gsl@@QEAA@$$QEAU01@@Z
pdata	ENDS
;	COMDAT pdata
pdata	SEGMENT
$pdata$??_Gnarrowing_error@gsl@@UEAAPEAXI@Z DD imagerel $LN12
	DD	imagerel $LN12+66
	DD	imagerel $unwind$??_Gnarrowing_error@gsl@@UEAAPEAXI@Z
pdata	ENDS
;	COMDAT pdata
pdata	SEGMENT
$pdata$??0?$extent_type@$0?0@details@gsl@@QEAA@_J@Z DD imagerel $LN19
	DD	imagerel $LN19+72
	DD	imagerel $unwind$??0?$extent_type@$0?0@details@gsl@@QEAA@_J@Z
pdata	ENDS
;	COMDAT pdata
pdata	SEGMENT
$pdata$?dtor$0@?0???0?$extent_type@$0?0@details@gsl@@QEAA@_J@Z@4HA DD imagerel ?dtor$0@?0???0?$extent_type@$0?0@details@gsl@@QEAA@_J@Z@4HA
	DD	imagerel ?dtor$0@?0???0?$extent_type@$0?0@details@gsl@@QEAA@_J@Z@4HA+38
	DD	imagerel $unwind$?dtor$0@?0???0?$extent_type@$0?0@details@gsl@@QEAA@_J@Z@4HA
pdata	ENDS
;	COMDAT pdata
pdata	SEGMENT
$pdata$??$throw_exception@Ufail_fast@gsl@@@details@gsl@@YAX$$QEAUfail_fast@1@@Z DD imagerel $LN4
	DD	imagerel $LN4+40
	DD	imagerel $unwind$??$throw_exception@Ufail_fast@gsl@@@details@gsl@@YAX$$QEAUfail_fast@1@@Z
pdata	ENDS
;	COMDAT pdata
pdata	SEGMENT
$pdata$?test_span_unoptimizable_rangecheck@@YAXV?$span@H$0?0@gsl@@H@Z DD imagerel $LN50
	DD	imagerel $LN50+168
	DD	imagerel $unwind$?test_span_unoptimizable_rangecheck@@YAXV?$span@H$0?0@gsl@@H@Z
pdata	ENDS
;	COMDAT pdata
pdata	SEGMENT
$pdata$?dtor$0@?0??test_span_unoptimizable_rangecheck@@YAXV?$span@H$0?0@gsl@@H@Z@4HA DD imagerel ?dtor$0@?0??test_span_unoptimizable_rangecheck@@YAXV?$span@H$0?0@gsl@@H@Z@4HA
	DD	imagerel ?dtor$0@?0??test_span_unoptimizable_rangecheck@@YAXV?$span@H$0?0@gsl@@H@Z@4HA+38
	DD	imagerel $unwind$?dtor$0@?0??test_span_unoptimizable_rangecheck@@YAXV?$span@H$0?0@gsl@@H@Z@4HA
pdata	ENDS
;	COMDAT pdata
pdata	SEGMENT
$pdata$??0?$span@H$0?0@gsl@@QEAA@PEAH_J@Z DD imagerel $LN56
	DD	imagerel $LN56+121
	DD	imagerel $unwind$??0?$span@H$0?0@gsl@@QEAA@PEAH_J@Z
pdata	ENDS
;	COMDAT pdata
pdata	SEGMENT
$pdata$?dtor$2@?0???0?$span@H$0?0@gsl@@QEAA@PEAH_J@Z@4HA DD imagerel ?dtor$2@?0???0?$span@H$0?0@gsl@@QEAA@PEAH_J@Z@4HA
	DD	imagerel ?dtor$2@?0???0?$span@H$0?0@gsl@@QEAA@PEAH_J@Z@4HA+38
	DD	imagerel $unwind$?dtor$2@?0???0?$span@H$0?0@gsl@@QEAA@PEAH_J@Z@4HA
pdata	ENDS
;	COMDAT pdata
pdata	SEGMENT
$pdata$?dtor$1@?0???0?$span@H$0?0@gsl@@QEAA@PEAH_J@Z@4HA DD imagerel ?dtor$1@?0???0?$span@H$0?0@gsl@@QEAA@PEAH_J@Z@4HA
	DD	imagerel ?dtor$1@?0???0?$span@H$0?0@gsl@@QEAA@PEAH_J@Z@4HA+38
	DD	imagerel $unwind$?dtor$1@?0???0?$span@H$0?0@gsl@@QEAA@PEAH_J@Z@4HA
pdata	ENDS
;	COMDAT pdata
pdata	SEGMENT
$pdata$?last@?$span@H$0?0@gsl@@QEBA?AV12@_J@Z DD imagerel $LN97
	DD	imagerel $LN97+99
	DD	imagerel $unwind$?last@?$span@H$0?0@gsl@@QEBA?AV12@_J@Z
pdata	ENDS
;	COMDAT pdata
pdata	SEGMENT
$pdata$?dtor$0@?0??last@?$span@H$0?0@gsl@@QEBA?AV12@_J@Z@4HA DD imagerel ?dtor$0@?0??last@?$span@H$0?0@gsl@@QEBA?AV12@_J@Z@4HA
	DD	imagerel ?dtor$0@?0??last@?$span@H$0?0@gsl@@QEBA?AV12@_J@Z@4HA+38
	DD	imagerel $unwind$?dtor$0@?0??last@?$span@H$0?0@gsl@@QEBA?AV12@_J@Z@4HA
pdata	ENDS
;	COMDAT pdata
pdata	SEGMENT
$pdata$?subspan@?$span@H$0?0@gsl@@QEBA?AV12@_J0@Z DD imagerel $LN4
	DD	imagerel $LN4+28
	DD	imagerel $unwind$?subspan@?$span@H$0?0@gsl@@QEBA?AV12@_J0@Z
pdata	ENDS
;	COMDAT pdata
pdata	SEGMENT
$pdata$??A?$span@H$0?0@gsl@@QEBAAEAH_J@Z DD imagerel $LN39
	DD	imagerel $LN39+74
	DD	imagerel $unwind$??A?$span@H$0?0@gsl@@QEBAAEAH_J@Z
pdata	ENDS
;	COMDAT pdata
pdata	SEGMENT
$pdata$?dtor$0@?0???A?$span@H$0?0@gsl@@QEBAAEAH_J@Z@4HA DD imagerel ?dtor$0@?0???A?$span@H$0?0@gsl@@QEBAAEAH_J@Z@4HA
	DD	imagerel ?dtor$0@?0???A?$span@H$0?0@gsl@@QEBAAEAH_J@Z@4HA+38
	DD	imagerel $unwind$?dtor$0@?0???A?$span@H$0?0@gsl@@QEBAAEAH_J@Z@4HA
pdata	ENDS
;	COMDAT pdata
pdata	SEGMENT
$pdata$??0?$span@H$0?0@gsl@@AEAA@UKnownNotNull@01@_J@Z DD imagerel $LN40
	DD	imagerel $LN40+76
	DD	imagerel $unwind$??0?$span@H$0?0@gsl@@AEAA@UKnownNotNull@01@_J@Z
pdata	ENDS
;	COMDAT pdata
pdata	SEGMENT
$pdata$?dtor$1@?0???0?$span@H$0?0@gsl@@AEAA@UKnownNotNull@01@_J@Z@4HA DD imagerel ?dtor$1@?0???0?$span@H$0?0@gsl@@AEAA@UKnownNotNull@01@_J@Z@4HA
	DD	imagerel ?dtor$1@?0???0?$span@H$0?0@gsl@@AEAA@UKnownNotNull@01@_J@Z@4HA+38
	DD	imagerel $unwind$?dtor$1@?0???0?$span@H$0?0@gsl@@AEAA@UKnownNotNull@01@_J@Z@4HA
pdata	ENDS
;	COMDAT pdata
pdata	SEGMENT
$pdata$?make_subspan@?$span@H$0?0@gsl@@AEBA?AV12@_J0V?$subspan_selector@$0?0@12@@Z DD imagerel $LN54
	DD	imagerel $LN54+181
	DD	imagerel $unwind$?make_subspan@?$span@H$0?0@gsl@@AEBA?AV12@_J0V?$subspan_selector@$0?0@12@@Z
pdata	ENDS
;	COMDAT pdata
pdata	SEGMENT
$pdata$?dtor$0@?0??make_subspan@?$span@H$0?0@gsl@@AEBA?AV12@_J0V?$subspan_selector@$0?0@12@@Z@4HA DD imagerel ?dtor$0@?0??make_subspan@?$span@H$0?0@gsl@@AEBA?AV12@_J0V?$subspan_selector@$0?0@12@@Z@4HA
	DD	imagerel ?dtor$0@?0??make_subspan@?$span@H$0?0@gsl@@AEBA?AV12@_J0V?$subspan_selector@$0?0@12@@Z@4HA+38
	DD	imagerel $unwind$?dtor$0@?0??make_subspan@?$span@H$0?0@gsl@@AEBA?AV12@_J0V?$subspan_selector@$0?0@12@@Z@4HA
pdata	ENDS
;	COMDAT pdata
pdata	SEGMENT
$pdata$?dtor$1@?0??make_subspan@?$span@H$0?0@gsl@@AEBA?AV12@_J0V?$subspan_selector@$0?0@12@@Z@4HA DD imagerel ?dtor$1@?0??make_subspan@?$span@H$0?0@gsl@@AEBA?AV12@_J0V?$subspan_selector@$0?0@12@@Z@4HA
	DD	imagerel ?dtor$1@?0??make_subspan@?$span@H$0?0@gsl@@AEBA?AV12@_J0V?$subspan_selector@$0?0@12@@Z@4HA+38
	DD	imagerel $unwind$?dtor$1@?0??make_subspan@?$span@H$0?0@gsl@@AEBA?AV12@_J0V?$subspan_selector@$0?0@12@@Z@4HA
pdata	ENDS
;	COMDAT pdata
pdata	SEGMENT
$pdata$?test_span_for@@YAXV?$span@H$0?0@gsl@@@Z DD imagerel $LN54
	DD	imagerel $LN54+151
	DD	imagerel $unwind$?test_span_for@@YAXV?$span@H$0?0@gsl@@@Z
pdata	ENDS
;	COMDAT pdata
pdata	SEGMENT
$pdata$?dtor$0@?0??test_span_for@@YAXV?$span@H$0?0@gsl@@@Z@4HA DD imagerel ?dtor$0@?0??test_span_for@@YAXV?$span@H$0?0@gsl@@@Z@4HA
	DD	imagerel ?dtor$0@?0??test_span_for@@YAXV?$span@H$0?0@gsl@@@Z@4HA+38
	DD	imagerel $unwind$?dtor$0@?0??test_span_for@@YAXV?$span@H$0?0@gsl@@@Z@4HA
pdata	ENDS
;	COMDAT pdata
pdata	SEGMENT
$pdata$?test_span_iter@@YAXV?$span@H$0?0@gsl@@@Z DD imagerel $LN75
	DD	imagerel $LN75+180
	DD	imagerel $unwind$?test_span_iter@@YAXV?$span@H$0?0@gsl@@@Z
pdata	ENDS
;	COMDAT pdata
pdata	SEGMENT
$pdata$?dtor$0@?0??test_span_iter@@YAXV?$span@H$0?0@gsl@@@Z@4HA DD imagerel ?dtor$0@?0??test_span_iter@@YAXV?$span@H$0?0@gsl@@@Z@4HA
	DD	imagerel ?dtor$0@?0??test_span_iter@@YAXV?$span@H$0?0@gsl@@@Z@4HA+38
	DD	imagerel $unwind$?dtor$0@?0??test_span_iter@@YAXV?$span@H$0?0@gsl@@@Z@4HA
pdata	ENDS
;	COMDAT pdata
pdata	SEGMENT
$pdata$??D?$span_iterator@V?$span@H$0?0@gsl@@$0A@@details@gsl@@QEBAAEAHXZ DD imagerel $LN27
	DD	imagerel $LN27+81
	DD	imagerel $unwind$??D?$span_iterator@V?$span@H$0?0@gsl@@$0A@@details@gsl@@QEBAAEAHXZ
pdata	ENDS
;	COMDAT pdata
pdata	SEGMENT
$pdata$?dtor$0@?0???D?$span_iterator@V?$span@H$0?0@gsl@@$0A@@details@gsl@@QEBAAEAHXZ@4HA DD imagerel ?dtor$0@?0???D?$span_iterator@V?$span@H$0?0@gsl@@$0A@@details@gsl@@QEBAAEAHXZ@4HA
	DD	imagerel ?dtor$0@?0???D?$span_iterator@V?$span@H$0?0@gsl@@$0A@@details@gsl@@QEBAAEAHXZ@4HA+38
	DD	imagerel $unwind$?dtor$0@?0???D?$span_iterator@V?$span@H$0?0@gsl@@$0A@@details@gsl@@QEBAAEAHXZ@4HA
pdata	ENDS
;	COMDAT pdata
pdata	SEGMENT
$pdata$??E?$span_iterator@V?$span@H$0?0@gsl@@$0A@@details@gsl@@QEAAAEAV012@XZ DD imagerel $LN23
	DD	imagerel $LN23+89
	DD	imagerel $unwind$??E?$span_iterator@V?$span@H$0?0@gsl@@$0A@@details@gsl@@QEAAAEAV012@XZ
pdata	ENDS
;	COMDAT pdata
pdata	SEGMENT
$pdata$?dtor$0@?0???E?$span_iterator@V?$span@H$0?0@gsl@@$0A@@details@gsl@@QEAAAEAV012@XZ@4HA DD imagerel ?dtor$0@?0???E?$span_iterator@V?$span@H$0?0@gsl@@$0A@@details@gsl@@QEAAAEAV012@XZ@4HA
	DD	imagerel ?dtor$0@?0???E?$span_iterator@V?$span@H$0?0@gsl@@$0A@@details@gsl@@QEAAAEAV012@XZ@4HA+38
	DD	imagerel $unwind$?dtor$0@?0???E?$span_iterator@V?$span@H$0?0@gsl@@$0A@@details@gsl@@QEAAAEAV012@XZ@4HA
pdata	ENDS
;	COMDAT pdata
pdata	SEGMENT
$pdata$??9details@gsl@@YA_NV?$span_iterator@V?$span@H$0?0@gsl@@$0A@@01@0@Z DD imagerel $LN9
	DD	imagerel $LN9+60
	DD	imagerel $unwind$??9details@gsl@@YA_NV?$span_iterator@V?$span@H$0?0@gsl@@$0A@@01@0@Z
pdata	ENDS
;	COMDAT pdata
pdata	SEGMENT
$pdata$?_Verify_range@details@gsl@@YAXV?$span_iterator@V?$span@H$0?0@gsl@@$0A@@12@0@Z DD imagerel $LN17
	DD	imagerel $LN17+63
	DD	imagerel $unwind$?_Verify_range@details@gsl@@YAXV?$span_iterator@V?$span@H$0?0@gsl@@$0A@@12@0@Z
pdata	ENDS
;	COMDAT pdata
pdata	SEGMENT
$pdata$?_Verify_offset@?$span_iterator@V?$span@H$0?0@gsl@@$0A@@details@gsl@@QEBAX_J@Z DD imagerel $LN21
	DD	imagerel $LN21+62
	DD	imagerel $unwind$?_Verify_offset@?$span_iterator@V?$span@H$0?0@gsl@@$0A@@details@gsl@@QEBAX_J@Z
pdata	ENDS
;	COMDAT pdata
pdata	SEGMENT
$pdata$?static_size_array_span@@YAXAEAUIDE_DRIVE_STATE@@@Z DD imagerel $LN79
	DD	imagerel $LN79+146
	DD	imagerel $unwind$?static_size_array_span@@YAXAEAUIDE_DRIVE_STATE@@@Z
pdata	ENDS
;	COMDAT pdata
pdata	SEGMENT
$pdata$?dtor$4@?0??static_size_array_span@@YAXAEAUIDE_DRIVE_STATE@@@Z@4HA DD imagerel ?dtor$4@?0??static_size_array_span@@YAXAEAUIDE_DRIVE_STATE@@@Z@4HA
	DD	imagerel ?dtor$4@?0??static_size_array_span@@YAXAEAUIDE_DRIVE_STATE@@@Z@4HA+38
	DD	imagerel $unwind$?dtor$4@?0??static_size_array_span@@YAXAEAUIDE_DRIVE_STATE@@@Z@4HA
pdata	ENDS
;	COMDAT pdata
pdata	SEGMENT
$pdata$??0?$span@E$0?0@gsl@@QEAA@PEAE_J@Z DD imagerel $LN56
	DD	imagerel $LN56+121
	DD	imagerel $unwind$??0?$span@E$0?0@gsl@@QEAA@PEAE_J@Z
pdata	ENDS
;	COMDAT pdata
pdata	SEGMENT
$pdata$?dtor$2@?0???0?$span@E$0?0@gsl@@QEAA@PEAE_J@Z@4HA DD imagerel ?dtor$2@?0???0?$span@E$0?0@gsl@@QEAA@PEAE_J@Z@4HA
	DD	imagerel ?dtor$2@?0???0?$span@E$0?0@gsl@@QEAA@PEAE_J@Z@4HA+38
	DD	imagerel $unwind$?dtor$2@?0???0?$span@E$0?0@gsl@@QEAA@PEAE_J@Z@4HA
pdata	ENDS
;	COMDAT pdata
pdata	SEGMENT
$pdata$?dtor$1@?0???0?$span@E$0?0@gsl@@QEAA@PEAE_J@Z@4HA DD imagerel ?dtor$1@?0???0?$span@E$0?0@gsl@@QEAA@PEAE_J@Z@4HA
	DD	imagerel ?dtor$1@?0???0?$span@E$0?0@gsl@@QEAA@PEAE_J@Z@4HA+38
	DD	imagerel $unwind$?dtor$1@?0???0?$span@E$0?0@gsl@@QEAA@PEAE_J@Z@4HA
pdata	ENDS
;	COMDAT pdata
pdata	SEGMENT
$pdata$??A?$span@E$0?0@gsl@@QEBAAEAE_J@Z DD imagerel $LN39
	DD	imagerel $LN39+73
	DD	imagerel $unwind$??A?$span@E$0?0@gsl@@QEBAAEAE_J@Z
pdata	ENDS
;	COMDAT pdata
pdata	SEGMENT
$pdata$?dtor$0@?0???A?$span@E$0?0@gsl@@QEBAAEAE_J@Z@4HA DD imagerel ?dtor$0@?0???A?$span@E$0?0@gsl@@QEBAAEAE_J@Z@4HA
	DD	imagerel ?dtor$0@?0???A?$span@E$0?0@gsl@@QEBAAEAE_J@Z@4HA+38
	DD	imagerel $unwind$?dtor$0@?0???A?$span@E$0?0@gsl@@QEBAAEAE_J@Z@4HA
pdata	ENDS
;	COMDAT pdata
pdata	SEGMENT
$pdata$??$?0$05@?$span@E$0?0@gsl@@QEAA@AEAY05E@Z DD imagerel $LN29
	DD	imagerel $LN29+31
	DD	imagerel $unwind$??$?0$05@?$span@E$0?0@gsl@@QEAA@AEAY05E@Z
pdata	ENDS
;	COMDAT pdata
pdata	SEGMENT
$pdata$?test_convert_span_Joe@@YAEAEAUIDE_DRIVE_STATE@@@Z DD imagerel $LN111
	DD	imagerel $LN111+177
	DD	imagerel $unwind$?test_convert_span_Joe@@YAEAEAUIDE_DRIVE_STATE@@@Z
pdata	ENDS
;	COMDAT pdata
pdata	SEGMENT
$pdata$?dtor$2@?0??test_convert_span_Joe@@YAEAEAUIDE_DRIVE_STATE@@@Z@4HA DD imagerel ?dtor$2@?0??test_convert_span_Joe@@YAEAEAUIDE_DRIVE_STATE@@@Z@4HA
	DD	imagerel ?dtor$2@?0??test_convert_span_Joe@@YAEAEAUIDE_DRIVE_STATE@@@Z@4HA+38
	DD	imagerel $unwind$?dtor$2@?0??test_convert_span_Joe@@YAEAEAUIDE_DRIVE_STATE@@@Z@4HA
pdata	ENDS
;	COMDAT pdata
pdata	SEGMENT
$pdata$?dtor$1@?0??test_convert_span_Joe@@YAEAEAUIDE_DRIVE_STATE@@@Z@4HA DD imagerel ?dtor$1@?0??test_convert_span_Joe@@YAEAEAUIDE_DRIVE_STATE@@@Z@4HA
	DD	imagerel ?dtor$1@?0??test_convert_span_Joe@@YAEAEAUIDE_DRIVE_STATE@@@Z@4HA+38
	DD	imagerel $unwind$?dtor$1@?0??test_convert_span_Joe@@YAEAEAUIDE_DRIVE_STATE@@@Z@4HA
pdata	ENDS
;	COMDAT pdata
pdata	SEGMENT
$pdata$?dtor$9@?0??test_convert_span_Joe@@YAEAEAUIDE_DRIVE_STATE@@@Z@4HA DD imagerel ?dtor$9@?0??test_convert_span_Joe@@YAEAEAUIDE_DRIVE_STATE@@@Z@4HA
	DD	imagerel ?dtor$9@?0??test_convert_span_Joe@@YAEAEAUIDE_DRIVE_STATE@@@Z@4HA+38
	DD	imagerel $unwind$?dtor$9@?0??test_convert_span_Joe@@YAEAEAUIDE_DRIVE_STATE@@@Z@4HA
pdata	ENDS
;	COMDAT pdata
pdata	SEGMENT
$pdata$??$convert_span@EV?$span@G$0?0@gsl@@@@YA?AV?$span@E$0?0@gsl@@V?$span@G$0?0@1@@Z DD imagerel $LN73
	DD	imagerel $LN73+128
	DD	imagerel $unwind$??$convert_span@EV?$span@G$0?0@gsl@@@@YA?AV?$span@E$0?0@gsl@@V?$span@G$0?0@1@@Z
pdata	ENDS
;	COMDAT pdata
pdata	SEGMENT
$pdata$?dtor$2@?0???$convert_span@EV?$span@G$0?0@gsl@@@@YA?AV?$span@E$0?0@gsl@@V?$span@G$0?0@1@@Z@4HA DD imagerel ?dtor$2@?0???$convert_span@EV?$span@G$0?0@gsl@@@@YA?AV?$span@E$0?0@gsl@@V?$span@G$0?0@1@@Z@4HA
	DD	imagerel ?dtor$2@?0???$convert_span@EV?$span@G$0?0@gsl@@@@YA?AV?$span@E$0?0@gsl@@V?$span@G$0?0@1@@Z@4HA+38
	DD	imagerel $unwind$?dtor$2@?0???$convert_span@EV?$span@G$0?0@gsl@@@@YA?AV?$span@E$0?0@gsl@@V?$span@G$0?0@1@@Z@4HA
pdata	ENDS
;	COMDAT pdata
pdata	SEGMENT
$pdata$?dtor$1@?0???$convert_span@EV?$span@G$0?0@gsl@@@@YA?AV?$span@E$0?0@gsl@@V?$span@G$0?0@1@@Z@4HA DD imagerel ?dtor$1@?0???$convert_span@EV?$span@G$0?0@gsl@@@@YA?AV?$span@E$0?0@gsl@@V?$span@G$0?0@1@@Z@4HA
	DD	imagerel ?dtor$1@?0???$convert_span@EV?$span@G$0?0@gsl@@@@YA?AV?$span@E$0?0@gsl@@V?$span@G$0?0@1@@Z@4HA+38
	DD	imagerel $unwind$?dtor$1@?0???$convert_span@EV?$span@G$0?0@gsl@@@@YA?AV?$span@E$0?0@gsl@@V?$span@G$0?0@1@@Z@4HA
pdata	ENDS
;	COMDAT pdata
pdata	SEGMENT
$pdata$?mysubspan1@@YA_JXZ DD imagerel $LN233
	DD	imagerel $LN233+22
	DD	imagerel $unwind$?mysubspan1@@YA_JXZ
pdata	ENDS
;	COMDAT pdata
pdata	SEGMENT
$pdata$?last@?$span@H$05@gsl@@QEBA?AV?$span@H$0?0@2@_J@Z DD imagerel $LN166
	DD	imagerel $LN166+143
	DD	imagerel $unwind$?last@?$span@H$05@gsl@@QEBA?AV?$span@H$0?0@2@_J@Z
pdata	ENDS
;	COMDAT pdata
pdata	SEGMENT
$pdata$?dtor$4@?0??last@?$span@H$05@gsl@@QEBA?AV?$span@H$0?0@2@_J@Z@4HA DD imagerel ?dtor$4@?0??last@?$span@H$05@gsl@@QEBA?AV?$span@H$0?0@2@_J@Z@4HA
	DD	imagerel ?dtor$4@?0??last@?$span@H$05@gsl@@QEBA?AV?$span@H$0?0@2@_J@Z@4HA+38
	DD	imagerel $unwind$?dtor$4@?0??last@?$span@H$05@gsl@@QEBA?AV?$span@H$0?0@2@_J@Z@4HA
pdata	ENDS
;	COMDAT pdata
pdata	SEGMENT
$pdata$?dtor$9@?0??last@?$span@H$05@gsl@@QEBA?AV?$span@H$0?0@2@_J@Z@4HA DD imagerel ?dtor$9@?0??last@?$span@H$05@gsl@@QEBA?AV?$span@H$0?0@2@_J@Z@4HA
	DD	imagerel ?dtor$9@?0??last@?$span@H$05@gsl@@QEBA?AV?$span@H$0?0@2@_J@Z@4HA+38
	DD	imagerel $unwind$?dtor$9@?0??last@?$span@H$05@gsl@@QEBA?AV?$span@H$0?0@2@_J@Z@4HA
pdata	ENDS
;	COMDAT pdata
pdata	SEGMENT
$pdata$?subspan@?$span@H$05@gsl@@QEBA?AV?$span@H$0?0@2@_J0@Z DD imagerel $LN75
	DD	imagerel $LN75+107
	DD	imagerel $unwind$?subspan@?$span@H$05@gsl@@QEBA?AV?$span@H$0?0@2@_J0@Z
pdata	ENDS
;	COMDAT pdata
pdata	SEGMENT
$pdata$?dtor$4@?0??subspan@?$span@H$05@gsl@@QEBA?AV?$span@H$0?0@2@_J0@Z@4HA DD imagerel ?dtor$4@?0??subspan@?$span@H$05@gsl@@QEBA?AV?$span@H$0?0@2@_J0@Z@4HA
	DD	imagerel ?dtor$4@?0??subspan@?$span@H$05@gsl@@QEBA?AV?$span@H$0?0@2@_J0@Z@4HA+38
	DD	imagerel $unwind$?dtor$4@?0??subspan@?$span@H$05@gsl@@QEBA?AV?$span@H$0?0@2@_J0@Z@4HA
pdata	ENDS
;	COMDAT pdata
pdata	SEGMENT
$pdata$??0?$extent_type@$05@details@gsl@@QEAA@_J@Z DD imagerel $LN19
	DD	imagerel $LN19+70
	DD	imagerel $unwind$??0?$extent_type@$05@details@gsl@@QEAA@_J@Z
pdata	ENDS
;	COMDAT pdata
pdata	SEGMENT
$pdata$?dtor$0@?0???0?$extent_type@$05@details@gsl@@QEAA@_J@Z@4HA DD imagerel ?dtor$0@?0???0?$extent_type@$05@details@gsl@@QEAA@_J@Z@4HA
	DD	imagerel ?dtor$0@?0???0?$extent_type@$05@details@gsl@@QEAA@_J@Z@4HA+38
	DD	imagerel $unwind$?dtor$0@?0???0?$extent_type@$05@details@gsl@@QEAA@_J@Z@4HA
pdata	ENDS
;	COMDAT pdata
pdata	SEGMENT
$pdata$??$?0$05@?$span@H$05@gsl@@QEAA@AEAY05H@Z DD imagerel $LN25
	DD	imagerel $LN25+23
	DD	imagerel $unwind$??$?0$05@?$span@H$05@gsl@@QEAA@AEAY05H@Z
pdata	ENDS
;	COMDAT pdata
pdata	SEGMENT
$pdata$?mysubspan2@@YA_J_J@Z DD imagerel $LN233
	DD	imagerel $LN233+137
	DD	imagerel $unwind$?mysubspan2@@YA_J_J@Z
pdata	ENDS
;	COMDAT pdata
pdata	SEGMENT
$pdata$?dtor$13@?0??mysubspan2@@YA_J_J@Z@4HA DD imagerel ?dtor$13@?0??mysubspan2@@YA_J_J@Z@4HA
	DD	imagerel ?dtor$13@?0??mysubspan2@@YA_J_J@Z@4HA+38
	DD	imagerel $unwind$?dtor$13@?0??mysubspan2@@YA_J_J@Z@4HA
pdata	ENDS
;	COMDAT pdata
pdata	SEGMENT
$pdata$?mysubspan3@@YA_JXZ DD imagerel $LN228
	DD	imagerel $LN228+22
	DD	imagerel $unwind$?mysubspan3@@YA_JXZ
pdata	ENDS
;	COMDAT pdata
pdata	SEGMENT
$pdata$?mysubspan4@@YA?AV?$span@H$0?0@gsl@@PEAH_J1@Z DD imagerel $LN195
	DD	imagerel $LN195+151
	DD	imagerel $unwind$?mysubspan4@@YA?AV?$span@H$0?0@gsl@@PEAH_J1@Z
pdata	ENDS
;	COMDAT pdata
pdata	SEGMENT
$pdata$?dtor$2@?0??mysubspan4@@YA?AV?$span@H$0?0@gsl@@PEAH_J1@Z@4HA DD imagerel ?dtor$2@?0??mysubspan4@@YA?AV?$span@H$0?0@gsl@@PEAH_J1@Z@4HA
	DD	imagerel ?dtor$2@?0??mysubspan4@@YA?AV?$span@H$0?0@gsl@@PEAH_J1@Z@4HA+38
	DD	imagerel $unwind$?dtor$2@?0??mysubspan4@@YA?AV?$span@H$0?0@gsl@@PEAH_J1@Z@4HA
pdata	ENDS
;	COMDAT pdata
pdata	SEGMENT
$pdata$?dtor$9@?0??mysubspan4@@YA?AV?$span@H$0?0@gsl@@PEAH_J1@Z@4HA DD imagerel ?dtor$9@?0??mysubspan4@@YA?AV?$span@H$0?0@gsl@@PEAH_J1@Z@4HA
	DD	imagerel ?dtor$9@?0??mysubspan4@@YA?AV?$span@H$0?0@gsl@@PEAH_J1@Z@4HA+38
	DD	imagerel $unwind$?dtor$9@?0??mysubspan4@@YA?AV?$span@H$0?0@gsl@@PEAH_J1@Z@4HA
pdata	ENDS
;	COMDAT pdata
pdata	SEGMENT
$pdata$??$?0$0A@X@?$span@H$0?0@gsl@@QEAA@XZ DD imagerel $LN40
	DD	imagerel $LN40+29
	DD	imagerel $unwind$??$?0$0A@X@?$span@H$0?0@gsl@@QEAA@XZ
pdata	ENDS
;	COMDAT pdata
pdata	SEGMENT
$pdata$?mysubspan5@@YA?AV?$span@H$0?0@gsl@@PEAH_J1@Z DD imagerel $LN191
	DD	imagerel $LN191+148
	DD	imagerel $unwind$?mysubspan5@@YA?AV?$span@H$0?0@gsl@@PEAH_J1@Z
pdata	ENDS
;	COMDAT pdata
pdata	SEGMENT
$pdata$?dtor$2@?0??mysubspan5@@YA?AV?$span@H$0?0@gsl@@PEAH_J1@Z@4HA DD imagerel ?dtor$2@?0??mysubspan5@@YA?AV?$span@H$0?0@gsl@@PEAH_J1@Z@4HA
	DD	imagerel ?dtor$2@?0??mysubspan5@@YA?AV?$span@H$0?0@gsl@@PEAH_J1@Z@4HA+38
	DD	imagerel $unwind$?dtor$2@?0??mysubspan5@@YA?AV?$span@H$0?0@gsl@@PEAH_J1@Z@4HA
pdata	ENDS
;	COMDAT pdata
pdata	SEGMENT
$pdata$?dtor$9@?0??mysubspan5@@YA?AV?$span@H$0?0@gsl@@PEAH_J1@Z@4HA DD imagerel ?dtor$9@?0??mysubspan5@@YA?AV?$span@H$0?0@gsl@@PEAH_J1@Z@4HA
	DD	imagerel ?dtor$9@?0??mysubspan5@@YA?AV?$span@H$0?0@gsl@@PEAH_J1@Z@4HA+38
	DD	imagerel $unwind$?dtor$9@?0??mysubspan5@@YA?AV?$span@H$0?0@gsl@@PEAH_J1@Z@4HA
pdata	ENDS
;	COMDAT pdata
pdata	SEGMENT
$pdata$?mysubspan6@@YA?AV?$span@H$0?0@gsl@@PEAH_J@Z DD imagerel $LN191
	DD	imagerel $LN191+144
	DD	imagerel $unwind$?mysubspan6@@YA?AV?$span@H$0?0@gsl@@PEAH_J@Z
pdata	ENDS
;	COMDAT pdata
pdata	SEGMENT
$pdata$?dtor$2@?0??mysubspan6@@YA?AV?$span@H$0?0@gsl@@PEAH_J@Z@4HA DD imagerel ?dtor$2@?0??mysubspan6@@YA?AV?$span@H$0?0@gsl@@PEAH_J@Z@4HA
	DD	imagerel ?dtor$2@?0??mysubspan6@@YA?AV?$span@H$0?0@gsl@@PEAH_J@Z@4HA+38
	DD	imagerel $unwind$?dtor$2@?0??mysubspan6@@YA?AV?$span@H$0?0@gsl@@PEAH_J@Z@4HA
pdata	ENDS
;	COMDAT pdata
pdata	SEGMENT
$pdata$?dtor$9@?0??mysubspan6@@YA?AV?$span@H$0?0@gsl@@PEAH_J@Z@4HA DD imagerel ?dtor$9@?0??mysubspan6@@YA?AV?$span@H$0?0@gsl@@PEAH_J@Z@4HA
	DD	imagerel ?dtor$9@?0??mysubspan6@@YA?AV?$span@H$0?0@gsl@@PEAH_J@Z@4HA+38
	DD	imagerel $unwind$?dtor$9@?0??mysubspan6@@YA?AV?$span@H$0?0@gsl@@PEAH_J@Z@4HA
pdata	ENDS
;	COMDAT pdata
pdata	SEGMENT
$pdata$?mysubspan7@@YA?AV?$span@H$0?0@gsl@@PEAH_J1@Z DD imagerel $LN191
	DD	imagerel $LN191+188
	DD	imagerel $unwind$?mysubspan7@@YA?AV?$span@H$0?0@gsl@@PEAH_J1@Z
pdata	ENDS
;	COMDAT pdata
pdata	SEGMENT
$pdata$?dtor$2@?0??mysubspan7@@YA?AV?$span@H$0?0@gsl@@PEAH_J1@Z@4HA DD imagerel ?dtor$2@?0??mysubspan7@@YA?AV?$span@H$0?0@gsl@@PEAH_J1@Z@4HA
	DD	imagerel ?dtor$2@?0??mysubspan7@@YA?AV?$span@H$0?0@gsl@@PEAH_J1@Z@4HA+38
	DD	imagerel $unwind$?dtor$2@?0??mysubspan7@@YA?AV?$span@H$0?0@gsl@@PEAH_J1@Z@4HA
pdata	ENDS
;	COMDAT pdata
pdata	SEGMENT
$pdata$?dtor$9@?0??mysubspan7@@YA?AV?$span@H$0?0@gsl@@PEAH_J1@Z@4HA DD imagerel ?dtor$9@?0??mysubspan7@@YA?AV?$span@H$0?0@gsl@@PEAH_J1@Z@4HA
	DD	imagerel ?dtor$9@?0??mysubspan7@@YA?AV?$span@H$0?0@gsl@@PEAH_J1@Z@4HA+38
	DD	imagerel $unwind$?dtor$9@?0??mysubspan7@@YA?AV?$span@H$0?0@gsl@@PEAH_J1@Z@4HA
pdata	ENDS
;	COMDAT pdata
pdata	SEGMENT
$pdata$?dtor$10@?0??mysubspan7@@YA?AV?$span@H$0?0@gsl@@PEAH_J1@Z@4HA DD imagerel ?dtor$10@?0??mysubspan7@@YA?AV?$span@H$0?0@gsl@@PEAH_J1@Z@4HA
	DD	imagerel ?dtor$10@?0??mysubspan7@@YA?AV?$span@H$0?0@gsl@@PEAH_J1@Z@4HA+38
	DD	imagerel $unwind$?dtor$10@?0??mysubspan7@@YA?AV?$span@H$0?0@gsl@@PEAH_J1@Z@4HA
pdata	ENDS
;	COMDAT pdata
pdata	SEGMENT
$pdata$?mysubspan8@@YA?AV?$span@H$0?0@gsl@@PEAH_J1@Z DD imagerel $LN104
	DD	imagerel $LN104+133
	DD	imagerel $unwind$?mysubspan8@@YA?AV?$span@H$0?0@gsl@@PEAH_J1@Z
pdata	ENDS
;	COMDAT pdata
pdata	SEGMENT
$pdata$?dtor$2@?0??mysubspan8@@YA?AV?$span@H$0?0@gsl@@PEAH_J1@Z@4HA DD imagerel ?dtor$2@?0??mysubspan8@@YA?AV?$span@H$0?0@gsl@@PEAH_J1@Z@4HA
	DD	imagerel ?dtor$2@?0??mysubspan8@@YA?AV?$span@H$0?0@gsl@@PEAH_J1@Z@4HA+38
	DD	imagerel $unwind$?dtor$2@?0??mysubspan8@@YA?AV?$span@H$0?0@gsl@@PEAH_J1@Z@4HA
pdata	ENDS
;	COMDAT pdata
pdata	SEGMENT
$pdata$?mysubspan9@@YA?AV?$span@H$0?0@gsl@@PEAH_J1@Z DD imagerel $LN155
	DD	imagerel $LN155+226
	DD	imagerel $unwind$?mysubspan9@@YA?AV?$span@H$0?0@gsl@@PEAH_J1@Z
pdata	ENDS
;	COMDAT pdata
pdata	SEGMENT
$pdata$?dtor$2@?0??mysubspan9@@YA?AV?$span@H$0?0@gsl@@PEAH_J1@Z@4HA DD imagerel ?dtor$2@?0??mysubspan9@@YA?AV?$span@H$0?0@gsl@@PEAH_J1@Z@4HA
	DD	imagerel ?dtor$2@?0??mysubspan9@@YA?AV?$span@H$0?0@gsl@@PEAH_J1@Z@4HA+38
	DD	imagerel $unwind$?dtor$2@?0??mysubspan9@@YA?AV?$span@H$0?0@gsl@@PEAH_J1@Z@4HA
pdata	ENDS
;	COMDAT pdata
pdata	SEGMENT
$pdata$?dtor$9@?0??mysubspan9@@YA?AV?$span@H$0?0@gsl@@PEAH_J1@Z@4HA DD imagerel ?dtor$9@?0??mysubspan9@@YA?AV?$span@H$0?0@gsl@@PEAH_J1@Z@4HA
	DD	imagerel ?dtor$9@?0??mysubspan9@@YA?AV?$span@H$0?0@gsl@@PEAH_J1@Z@4HA+38
	DD	imagerel $unwind$?dtor$9@?0??mysubspan9@@YA?AV?$span@H$0?0@gsl@@PEAH_J1@Z@4HA
pdata	ENDS
;	COMDAT pdata
pdata	SEGMENT
$pdata$?dtor$10@?0??mysubspan9@@YA?AV?$span@H$0?0@gsl@@PEAH_J1@Z@4HA DD imagerel ?dtor$10@?0??mysubspan9@@YA?AV?$span@H$0?0@gsl@@PEAH_J1@Z@4HA
	DD	imagerel ?dtor$10@?0??mysubspan9@@YA?AV?$span@H$0?0@gsl@@PEAH_J1@Z@4HA+38
	DD	imagerel $unwind$?dtor$10@?0??mysubspan9@@YA?AV?$span@H$0?0@gsl@@PEAH_J1@Z@4HA
pdata	ENDS
;	COMDAT pdata
pdata	SEGMENT
$pdata$?doterminate@@YAXXZ DD imagerel $LN4
	DD	imagerel $LN4+11
	DD	imagerel $unwind$?doterminate@@YAXXZ
pdata	ENDS
;	COMDAT pdata
pdata	SEGMENT
$pdata$?copy_span@@YAXV?$span@H$0?0@gsl@@0@Z DD imagerel $LN109
	DD	imagerel $LN109+107
	DD	imagerel $unwind$?copy_span@@YAXV?$span@H$0?0@gsl@@0@Z
pdata	ENDS
;	COMDAT pdata
pdata	SEGMENT
$pdata$??$copy@V?$span_iterator@V?$span@H$0?0@gsl@@$0A@@details@gsl@@V123@@std@@YA?AV?$span_iterator@V?$span@H$0?0@gsl@@$0A@@details@gsl@@V123@00@Z DD imagerel $LN90
	DD	imagerel $LN90+273
	DD	imagerel $unwind$??$copy@V?$span_iterator@V?$span@H$0?0@gsl@@$0A@@details@gsl@@V123@@std@@YA?AV?$span_iterator@V?$span@H$0?0@gsl@@$0A@@details@gsl@@V123@00@Z
pdata	ENDS
;	COMDAT pdata
pdata	SEGMENT
$pdata$?gsl_copy_span@@YAXV?$span@H$0?0@gsl@@0@Z DD imagerel $LN59
	DD	imagerel $LN59+124
	DD	imagerel $unwind$?gsl_copy_span@@YAXV?$span@H$0?0@gsl@@0@Z
pdata	ENDS
;	COMDAT pdata
pdata	SEGMENT
$pdata$?dtor$0@?0??gsl_copy_span@@YAXV?$span@H$0?0@gsl@@0@Z@4HA DD imagerel ?dtor$0@?0??gsl_copy_span@@YAXV?$span@H$0?0@gsl@@0@Z@4HA
	DD	imagerel ?dtor$0@?0??gsl_copy_span@@YAXV?$span@H$0?0@gsl@@0@Z@4HA+38
	DD	imagerel $unwind$?dtor$0@?0??gsl_copy_span@@YAXV?$span@H$0?0@gsl@@0@Z@4HA
pdata	ENDS
;	COMDAT pdata
pdata	SEGMENT
$pdata$??$copy@H$0?0H$0?0@gsl@@YAXV?$span@H$0?0@0@0@Z DD imagerel $LN56
	DD	imagerel $LN56+102
	DD	imagerel $unwind$??$copy@H$0?0H$0?0@gsl@@YAXV?$span@H$0?0@0@0@Z
pdata	ENDS
;	COMDAT pdata
pdata	SEGMENT
$pdata$?dtor$0@?0???$copy@H$0?0H$0?0@gsl@@YAXV?$span@H$0?0@0@0@Z@4HA DD imagerel ?dtor$0@?0???$copy@H$0?0H$0?0@gsl@@YAXV?$span@H$0?0@0@0@Z@4HA
	DD	imagerel ?dtor$0@?0???$copy@H$0?0H$0?0@gsl@@YAXV?$span@H$0?0@0@0@Z@4HA+38
	DD	imagerel $unwind$?dtor$0@?0???$copy@H$0?0H$0?0@gsl@@YAXV?$span@H$0?0@0@0@Z@4HA
pdata	ENDS
;	COMDAT pdata
pdata	SEGMENT
$pdata$?test_string_std_copy@@YAXXZ DD imagerel $LN256
	DD	imagerel $LN256+315
	DD	imagerel $unwind$?test_string_std_copy@@YAXXZ
pdata	ENDS
;	COMDAT pdata
pdata	SEGMENT
$pdata$?dtor$6@?0??test_string_std_copy@@YAXXZ@4HA DD imagerel ?dtor$6@?0??test_string_std_copy@@YAXXZ@4HA
	DD	imagerel ?dtor$6@?0??test_string_std_copy@@YAXXZ@4HA+38
	DD	imagerel $unwind$?dtor$6@?0??test_string_std_copy@@YAXXZ@4HA
pdata	ENDS
;	COMDAT pdata
pdata	SEGMENT
$pdata$?dtor$15@?0??test_string_std_copy@@YAXXZ@4HA DD imagerel ?dtor$15@?0??test_string_std_copy@@YAXXZ@4HA
	DD	imagerel ?dtor$15@?0??test_string_std_copy@@YAXXZ@4HA+41
	DD	imagerel $unwind$?dtor$15@?0??test_string_std_copy@@YAXXZ@4HA
pdata	ENDS
;	COMDAT pdata
pdata	SEGMENT
$pdata$??$?0$09@?$span@E$0?0@gsl@@QEAA@AEAY09E@Z DD imagerel $LN29
	DD	imagerel $LN29+31
	DD	imagerel $unwind$??$?0$09@?$span@E$0?0@gsl@@QEAA@AEAY09E@Z
pdata	ENDS
;	COMDAT pdata
pdata	SEGMENT
$pdata$??0?$span@$$CBD$0?0@gsl@@QEAA@PEBD_J@Z DD imagerel $LN56
	DD	imagerel $LN56+121
	DD	imagerel $unwind$??0?$span@$$CBD$0?0@gsl@@QEAA@PEBD_J@Z
pdata	ENDS
;	COMDAT pdata
pdata	SEGMENT
$pdata$?dtor$2@?0???0?$span@$$CBD$0?0@gsl@@QEAA@PEBD_J@Z@4HA DD imagerel ?dtor$2@?0???0?$span@$$CBD$0?0@gsl@@QEAA@PEBD_J@Z@4HA
	DD	imagerel ?dtor$2@?0???0?$span@$$CBD$0?0@gsl@@QEAA@PEBD_J@Z@4HA+38
	DD	imagerel $unwind$?dtor$2@?0???0?$span@$$CBD$0?0@gsl@@QEAA@PEBD_J@Z@4HA
pdata	ENDS
;	COMDAT pdata
pdata	SEGMENT
$pdata$?dtor$1@?0???0?$span@$$CBD$0?0@gsl@@QEAA@PEBD_J@Z@4HA DD imagerel ?dtor$1@?0???0?$span@$$CBD$0?0@gsl@@QEAA@PEBD_J@Z@4HA
	DD	imagerel ?dtor$1@?0???0?$span@$$CBD$0?0@gsl@@QEAA@PEBD_J@Z@4HA+38
	DD	imagerel $unwind$?dtor$1@?0???0?$span@$$CBD$0?0@gsl@@QEAA@PEBD_J@Z@4HA
pdata	ENDS
;	COMDAT pdata
pdata	SEGMENT
$pdata$??$ensure_z@$$CBD$0L@@gsl@@YA?AV?$span@$$CBD$0?0@0@AEAY0L@$$CBD@Z DD imagerel $LN64
	DD	imagerel $LN64+148
	DD	imagerel $unwind$??$ensure_z@$$CBD$0L@@gsl@@YA?AV?$span@$$CBD$0?0@0@AEAY0L@$$CBD@Z
pdata	ENDS
;	COMDAT pdata
pdata	SEGMENT
$pdata$?dtor$0@?0???$ensure_z@$$CBD$0L@@gsl@@YA?AV?$span@$$CBD$0?0@0@AEAY0L@$$CBD@Z@4HA DD imagerel ?dtor$0@?0???$ensure_z@$$CBD$0L@@gsl@@YA?AV?$span@$$CBD$0?0@0@AEAY0L@$$CBD@Z@4HA
	DD	imagerel ?dtor$0@?0???$ensure_z@$$CBD$0L@@gsl@@YA?AV?$span@$$CBD$0?0@0@AEAY0L@$$CBD@Z@4HA+38
	DD	imagerel $unwind$?dtor$0@?0???$ensure_z@$$CBD$0L@@gsl@@YA?AV?$span@$$CBD$0?0@0@AEAY0L@$$CBD@Z@4HA
pdata	ENDS
;	COMDAT pdata
pdata	SEGMENT
$pdata$?dtor$2@?0???$ensure_z@$$CBD$0L@@gsl@@YA?AV?$span@$$CBD$0?0@0@AEAY0L@$$CBD@Z@4HA DD imagerel ?dtor$2@?0???$ensure_z@$$CBD$0L@@gsl@@YA?AV?$span@$$CBD$0?0@0@AEAY0L@$$CBD@Z@4HA
	DD	imagerel ?dtor$2@?0???$ensure_z@$$CBD$0L@@gsl@@YA?AV?$span@$$CBD$0?0@0@AEAY0L@$$CBD@Z@4HA+38
	DD	imagerel $unwind$?dtor$2@?0???$ensure_z@$$CBD$0L@@gsl@@YA?AV?$span@$$CBD$0?0@0@AEAY0L@$$CBD@Z@4HA
pdata	ENDS
;	COMDAT pdata
pdata	SEGMENT
$pdata$?_Verify_range@details@gsl@@YAXV?$span_iterator@V?$span@$$CBD$0?0@gsl@@$0A@@12@0@Z DD imagerel $LN17
	DD	imagerel $LN17+63
	DD	imagerel $unwind$?_Verify_range@details@gsl@@YAXV?$span_iterator@V?$span@$$CBD$0?0@gsl@@$0A@@12@0@Z
pdata	ENDS
;	COMDAT pdata
pdata	SEGMENT
$pdata$?_Verify_offset@?$span_iterator@V?$span@E$0?0@gsl@@$0A@@details@gsl@@QEBAX_J@Z DD imagerel $LN21
	DD	imagerel $LN21+62
	DD	imagerel $unwind$?_Verify_offset@?$span_iterator@V?$span@E$0?0@gsl@@$0A@@details@gsl@@QEBAX_J@Z
pdata	ENDS
;	COMDAT pdata
pdata	SEGMENT
$pdata$??$copy@V?$span_iterator@V?$span@$$CBD$0?0@gsl@@$0A@@details@gsl@@V?$span_iterator@V?$span@E$0?0@gsl@@$0A@@23@@std@@YA?AV?$span_iterator@V?$span@E$0?0@gsl@@$0A@@details@gsl@@V?$span_iterator@V?$span@$$CBD$0?0@gsl@@$0A@@23@0V123@@Z DD imagerel $LN90
	DD	imagerel $LN90+257
	DD	imagerel $unwind$??$copy@V?$span_iterator@V?$span@$$CBD$0?0@gsl@@$0A@@details@gsl@@V?$span_iterator@V?$span@E$0?0@gsl@@$0A@@23@@std@@YA?AV?$span_iterator@V?$span@E$0?0@gsl@@$0A@@details@gsl@@V?$span_iterator@V?$span@$$CBD$0?0@gsl@@$0A@@23@0V123@@Z
pdata	ENDS
;	COMDAT pdata
pdata	SEGMENT
$pdata$?test_string_gsl_copy@@YAXXZ DD imagerel $LN288
	DD	imagerel $LN288+278
	DD	imagerel $unwind$?test_string_gsl_copy@@YAXXZ
pdata	ENDS
;	COMDAT pdata
pdata	SEGMENT
$pdata$?dtor$6@?0??test_string_gsl_copy@@YAXXZ@4HA DD imagerel ?dtor$6@?0??test_string_gsl_copy@@YAXXZ@4HA
	DD	imagerel ?dtor$6@?0??test_string_gsl_copy@@YAXXZ@4HA+38
	DD	imagerel $unwind$?dtor$6@?0??test_string_gsl_copy@@YAXXZ@4HA
pdata	ENDS
;	COMDAT pdata
pdata	SEGMENT
$pdata$?dtor$15@?0??test_string_gsl_copy@@YAXXZ@4HA DD imagerel ?dtor$15@?0??test_string_gsl_copy@@YAXXZ@4HA
	DD	imagerel ?dtor$15@?0??test_string_gsl_copy@@YAXXZ@4HA+38
	DD	imagerel $unwind$?dtor$15@?0??test_string_gsl_copy@@YAXXZ@4HA
pdata	ENDS
;	COMDAT pdata
pdata	SEGMENT
$pdata$?dtor$35@?0??test_string_gsl_copy@@YAXXZ@4HA DD imagerel ?dtor$35@?0??test_string_gsl_copy@@YAXXZ@4HA
	DD	imagerel ?dtor$35@?0??test_string_gsl_copy@@YAXXZ@4HA+43
	DD	imagerel $unwind$?dtor$35@?0??test_string_gsl_copy@@YAXXZ@4HA
pdata	ENDS
;	COMDAT pdata
pdata	SEGMENT
$pdata$??$?0V?$basic_string_span@$$CBD$0?0@gsl@@X@?$span@$$CBD$0?0@gsl@@QEAA@AEAV?$basic_string_span@$$CBD$0?0@1@@Z DD imagerel $LN38
	DD	imagerel $LN38+39
	DD	imagerel $unwind$??$?0V?$basic_string_span@$$CBD$0?0@gsl@@X@?$span@$$CBD$0?0@gsl@@QEAA@AEAV?$basic_string_span@$$CBD$0?0@1@@Z
pdata	ENDS
;	COMDAT pdata
pdata	SEGMENT
$pdata$??$copy@$$CBD$0?0E$0?0@gsl@@YAXV?$span@$$CBD$0?0@0@V?$span@E$0?0@0@@Z DD imagerel $LN56
	DD	imagerel $LN56+94
	DD	imagerel $unwind$??$copy@$$CBD$0?0E$0?0@gsl@@YAXV?$span@$$CBD$0?0@0@V?$span@E$0?0@0@@Z
pdata	ENDS
;	COMDAT pdata
pdata	SEGMENT
$pdata$?dtor$0@?0???$copy@$$CBD$0?0E$0?0@gsl@@YAXV?$span@$$CBD$0?0@0@V?$span@E$0?0@0@@Z@4HA DD imagerel ?dtor$0@?0???$copy@$$CBD$0?0E$0?0@gsl@@YAXV?$span@$$CBD$0?0@0@V?$span@E$0?0@0@@Z@4HA
	DD	imagerel ?dtor$0@?0???$copy@$$CBD$0?0E$0?0@gsl@@YAXV?$span@$$CBD$0?0@0@V?$span@E$0?0@0@@Z@4HA+38
	DD	imagerel $unwind$?dtor$0@?0???$copy@$$CBD$0?0E$0?0@gsl@@YAXV?$span@$$CBD$0?0@0@V?$span@E$0?0@0@@Z@4HA
pdata	ENDS
;	COMDAT pdata
pdata	SEGMENT
$pdata$??$make_subspan@$05@?$span@H$05@gsl@@AEBA?AV?$span@H$0?0@1@_J0V?$subspan_selector@$05@01@@Z DD imagerel $LN72
	DD	imagerel $LN72+107
	DD	imagerel $unwind$??$make_subspan@$05@?$span@H$05@gsl@@AEBA?AV?$span@H$0?0@1@_J0V?$subspan_selector@$05@01@@Z
pdata	ENDS
;	COMDAT pdata
pdata	SEGMENT
$pdata$?dtor$4@?0???$make_subspan@$05@?$span@H$05@gsl@@AEBA?AV?$span@H$0?0@1@_J0V?$subspan_selector@$05@01@@Z@4HA DD imagerel ?dtor$4@?0???$make_subspan@$05@?$span@H$05@gsl@@AEBA?AV?$span@H$0?0@1@_J0V?$subspan_selector@$05@01@@Z@4HA
	DD	imagerel ?dtor$4@?0???$make_subspan@$05@?$span@H$05@gsl@@AEBA?AV?$span@H$0?0@1@_J0V?$subspan_selector@$05@01@@Z@4HA+38
	DD	imagerel $unwind$?dtor$4@?0???$make_subspan@$05@?$span@H$05@gsl@@AEBA?AV?$span@H$0?0@1@_J0V?$subspan_selector@$05@01@@Z@4HA
pdata	ENDS
;	COMDAT pdata
pdata	SEGMENT
$pdata$??$?0_J@?$storage_type@V?$extent_type@$0?0@details@gsl@@@?$span@H$0?0@gsl@@QEAA@PEAH_J@Z DD imagerel $LN53
	DD	imagerel $LN53+121
	DD	imagerel $unwind$??$?0_J@?$storage_type@V?$extent_type@$0?0@details@gsl@@@?$span@H$0?0@gsl@@QEAA@PEAH_J@Z
pdata	ENDS
;	COMDAT pdata
pdata	SEGMENT
$pdata$?dtor$2@?0???$?0_J@?$storage_type@V?$extent_type@$0?0@details@gsl@@@?$span@H$0?0@gsl@@QEAA@PEAH_J@Z@4HA DD imagerel ?dtor$2@?0???$?0_J@?$storage_type@V?$extent_type@$0?0@details@gsl@@@?$span@H$0?0@gsl@@QEAA@PEAH_J@Z@4HA
	DD	imagerel ?dtor$2@?0???$?0_J@?$storage_type@V?$extent_type@$0?0@details@gsl@@@?$span@H$0?0@gsl@@QEAA@PEAH_J@Z@4HA+38
	DD	imagerel $unwind$?dtor$2@?0???$?0_J@?$storage_type@V?$extent_type@$0?0@details@gsl@@@?$span@H$0?0@gsl@@QEAA@PEAH_J@Z@4HA
pdata	ENDS
;	COMDAT pdata
pdata	SEGMENT
$pdata$?dtor$1@?0???$?0_J@?$storage_type@V?$extent_type@$0?0@details@gsl@@@?$span@H$0?0@gsl@@QEAA@PEAH_J@Z@4HA DD imagerel ?dtor$1@?0???$?0_J@?$storage_type@V?$extent_type@$0?0@details@gsl@@@?$span@H$0?0@gsl@@QEAA@PEAH_J@Z@4HA
	DD	imagerel ?dtor$1@?0???$?0_J@?$storage_type@V?$extent_type@$0?0@details@gsl@@@?$span@H$0?0@gsl@@QEAA@PEAH_J@Z@4HA+38
	DD	imagerel $unwind$?dtor$1@?0???$?0_J@?$storage_type@V?$extent_type@$0?0@details@gsl@@@?$span@H$0?0@gsl@@QEAA@PEAH_J@Z@4HA
pdata	ENDS
;	COMDAT pdata
pdata	SEGMENT
$pdata$??$?0_J@?$storage_type@V?$extent_type@$0?0@details@gsl@@@?$span@H$0?0@gsl@@QEAA@UKnownNotNull@12@_J@Z DD imagerel $LN37
	DD	imagerel $LN37+76
	DD	imagerel $unwind$??$?0_J@?$storage_type@V?$extent_type@$0?0@details@gsl@@@?$span@H$0?0@gsl@@QEAA@UKnownNotNull@12@_J@Z
pdata	ENDS
;	COMDAT pdata
pdata	SEGMENT
$pdata$?dtor$1@?0???$?0_J@?$storage_type@V?$extent_type@$0?0@details@gsl@@@?$span@H$0?0@gsl@@QEAA@UKnownNotNull@12@_J@Z@4HA DD imagerel ?dtor$1@?0???$?0_J@?$storage_type@V?$extent_type@$0?0@details@gsl@@@?$span@H$0?0@gsl@@QEAA@UKnownNotNull@12@_J@Z@4HA
	DD	imagerel ?dtor$1@?0???$?0_J@?$storage_type@V?$extent_type@$0?0@details@gsl@@@?$span@H$0?0@gsl@@QEAA@UKnownNotNull@12@_J@Z@4HA+38
	DD	imagerel $unwind$?dtor$1@?0???$?0_J@?$storage_type@V?$extent_type@$0?0@details@gsl@@@?$span@H$0?0@gsl@@QEAA@UKnownNotNull@12@_J@Z@4HA
pdata	ENDS
;	COMDAT pdata
pdata	SEGMENT
$pdata$??$?0V?$extent_type@$05@details@gsl@@@?$storage_type@V?$extent_type@$0?0@details@gsl@@@?$span@E$0?0@gsl@@QEAA@UKnownNotNull@12@V?$extent_type@$05@details@2@@Z DD imagerel $LN24
	DD	imagerel $LN24+31
	DD	imagerel $unwind$??$?0V?$extent_type@$05@details@gsl@@@?$storage_type@V?$extent_type@$0?0@details@gsl@@@?$span@E$0?0@gsl@@QEAA@UKnownNotNull@12@V?$extent_type@$05@details@2@@Z
pdata	ENDS
;	COMDAT pdata
pdata	SEGMENT
$pdata$??$?0V?$extent_type@$05@details@gsl@@@?$storage_type@V?$extent_type@$05@details@gsl@@@?$span@H$05@gsl@@QEAA@UKnownNotNull@12@V?$extent_type@$05@details@2@@Z DD imagerel $LN20
	DD	imagerel $LN20+23
	DD	imagerel $unwind$??$?0V?$extent_type@$05@details@gsl@@@?$storage_type@V?$extent_type@$05@details@gsl@@@?$span@H$05@gsl@@QEAA@UKnownNotNull@12@V?$extent_type@$05@details@2@@Z
pdata	ENDS
;	COMDAT pdata
pdata	SEGMENT
$pdata$??$?0V?$extent_type@$0A@@details@gsl@@@?$storage_type@V?$extent_type@$0?0@details@gsl@@@?$span@H$0?0@gsl@@QEAA@PEAHV?$extent_type@$0A@@details@2@@Z DD imagerel $LN39
	DD	imagerel $LN39+31
	DD	imagerel $unwind$??$?0V?$extent_type@$0A@@details@gsl@@@?$storage_type@V?$extent_type@$0?0@details@gsl@@@?$span@H$0?0@gsl@@QEAA@PEAHV?$extent_type@$0A@@details@2@@Z
pdata	ENDS
;	COMDAT pdata
pdata	SEGMENT
$pdata$??$_Adl_verify_range@V?$span_iterator@V?$span@H$0?0@gsl@@$0A@@details@gsl@@V123@@std@@YAXAEBV?$span_iterator@V?$span@H$0?0@gsl@@$0A@@details@gsl@@0@Z DD imagerel $LN24
	DD	imagerel $LN24+87
	DD	imagerel $unwind$??$_Adl_verify_range@V?$span_iterator@V?$span@H$0?0@gsl@@$0A@@details@gsl@@V123@@std@@YAXAEBV?$span_iterator@V?$span@H$0?0@gsl@@$0A@@details@gsl@@0@Z
pdata	ENDS
;	COMDAT pdata
pdata	SEGMENT
$pdata$??$_Get_unwrapped_n@V?$span_iterator@V?$span@H$0?0@gsl@@$0A@@details@gsl@@_J$0A@@std@@YAPEAHAEBV?$span_iterator@V?$span@H$0?0@gsl@@$0A@@details@gsl@@_J@Z DD imagerel $LN31
	DD	imagerel $LN31+73
	DD	imagerel $unwind$??$_Get_unwrapped_n@V?$span_iterator@V?$span@H$0?0@gsl@@$0A@@details@gsl@@_J$0A@@std@@YAPEAHAEBV?$span_iterator@V?$span@H$0?0@gsl@@$0A@@details@gsl@@_J@Z
pdata	ENDS
;	COMDAT pdata
pdata	SEGMENT
$pdata$??$_Copy_unchecked@PEAHPEAH@std@@YAPEAHPEAH00@Z DD imagerel $LN10
	DD	imagerel $LN10+48
	DD	imagerel $unwind$??$_Copy_unchecked@PEAHPEAH@std@@YAPEAHPEAH00@Z
pdata	ENDS
;	COMDAT pdata
pdata	SEGMENT
$pdata$??$copy_n@PEAH_JPEAH@std@@YAPEAHPEAH_J0@Z DD imagerel $LN20
	DD	imagerel $LN20+14
	DD	imagerel $unwind$??$copy_n@PEAH_JPEAH@std@@YAPEAHPEAH_J0@Z
pdata	ENDS
;	COMDAT pdata
pdata	SEGMENT
$pdata$0$??$copy_n@PEAH_JPEAH@std@@YAPEAHPEAH_J0@Z DD imagerel $LN20+14
	DD	imagerel $LN20+56
	DD	imagerel $chain$0$??$copy_n@PEAH_JPEAH@std@@YAPEAHPEAH_J0@Z
pdata	ENDS
;	COMDAT pdata
pdata	SEGMENT
$pdata$1$??$copy_n@PEAH_JPEAH@std@@YAPEAHPEAH_J0@Z DD imagerel $LN20+56
	DD	imagerel $LN20+65
	DD	imagerel $chain$1$??$copy_n@PEAH_JPEAH@std@@YAPEAHPEAH_J0@Z
pdata	ENDS
;	COMDAT pdata
pdata	SEGMENT
$pdata$??$?0V?$extent_type@$09@details@gsl@@@?$storage_type@V?$extent_type@$0?0@details@gsl@@@?$span@E$0?0@gsl@@QEAA@UKnownNotNull@12@V?$extent_type@$09@details@2@@Z DD imagerel $LN24
	DD	imagerel $LN24+31
	DD	imagerel $unwind$??$?0V?$extent_type@$09@details@gsl@@@?$storage_type@V?$extent_type@$0?0@details@gsl@@@?$span@E$0?0@gsl@@QEAA@UKnownNotNull@12@V?$extent_type@$09@details@2@@Z
pdata	ENDS
;	COMDAT pdata
pdata	SEGMENT
$pdata$??$ensure_z@$$CBD@gsl@@YA?AV?$span@$$CBD$0?0@0@AEBQEBD_J@Z DD imagerel $LN55
	DD	imagerel $LN55+161
	DD	imagerel $unwind$??$ensure_z@$$CBD@gsl@@YA?AV?$span@$$CBD$0?0@0@AEBQEBD_J@Z
pdata	ENDS
;	COMDAT pdata
pdata	SEGMENT
$pdata$?dtor$0@?0???$ensure_z@$$CBD@gsl@@YA?AV?$span@$$CBD$0?0@0@AEBQEBD_J@Z@4HA DD imagerel ?dtor$0@?0???$ensure_z@$$CBD@gsl@@YA?AV?$span@$$CBD$0?0@0@AEBQEBD_J@Z@4HA
	DD	imagerel ?dtor$0@?0???$ensure_z@$$CBD@gsl@@YA?AV?$span@$$CBD$0?0@0@AEBQEBD_J@Z@4HA+38
	DD	imagerel $unwind$?dtor$0@?0???$ensure_z@$$CBD@gsl@@YA?AV?$span@$$CBD$0?0@0@AEBQEBD_J@Z@4HA
pdata	ENDS
;	COMDAT pdata
pdata	SEGMENT
$pdata$?dtor$2@?0???$ensure_z@$$CBD@gsl@@YA?AV?$span@$$CBD$0?0@0@AEBQEBD_J@Z@4HA DD imagerel ?dtor$2@?0???$ensure_z@$$CBD@gsl@@YA?AV?$span@$$CBD$0?0@0@AEBQEBD_J@Z@4HA
	DD	imagerel ?dtor$2@?0???$ensure_z@$$CBD@gsl@@YA?AV?$span@$$CBD$0?0@0@AEBQEBD_J@Z@4HA+38
	DD	imagerel $unwind$?dtor$2@?0???$ensure_z@$$CBD@gsl@@YA?AV?$span@$$CBD$0?0@0@AEBQEBD_J@Z@4HA
pdata	ENDS
;	COMDAT pdata
pdata	SEGMENT
$pdata$??$_Adl_verify_range@V?$span_iterator@V?$span@$$CBD$0?0@gsl@@$0A@@details@gsl@@V123@@std@@YAXAEBV?$span_iterator@V?$span@$$CBD$0?0@gsl@@$0A@@details@gsl@@0@Z DD imagerel $LN24
	DD	imagerel $LN24+87
	DD	imagerel $unwind$??$_Adl_verify_range@V?$span_iterator@V?$span@$$CBD$0?0@gsl@@$0A@@details@gsl@@V123@@std@@YAXAEBV?$span_iterator@V?$span@$$CBD$0?0@gsl@@$0A@@details@gsl@@0@Z
pdata	ENDS
;	COMDAT pdata
pdata	SEGMENT
$pdata$??$_Get_unwrapped_n@V?$span_iterator@V?$span@E$0?0@gsl@@$0A@@details@gsl@@_J$0A@@std@@YAPEAEAEBV?$span_iterator@V?$span@E$0?0@gsl@@$0A@@details@gsl@@_J@Z DD imagerel $LN31
	DD	imagerel $LN31+72
	DD	imagerel $unwind$??$_Get_unwrapped_n@V?$span_iterator@V?$span@E$0?0@gsl@@$0A@@details@gsl@@_J$0A@@std@@YAPEAEAEBV?$span_iterator@V?$span@E$0?0@gsl@@$0A@@details@gsl@@_J@Z
pdata	ENDS
;	COMDAT pdata
pdata	SEGMENT
$pdata$??$_Copy_unchecked@PEBDPEAE@std@@YAPEAEPEBD0PEAE@Z DD imagerel $LN10
	DD	imagerel $LN10+48
	DD	imagerel $unwind$??$_Copy_unchecked@PEBDPEAE@std@@YAPEAEPEBD0PEAE@Z
pdata	ENDS
;	COMDAT pdata
pdata	SEGMENT
$pdata$??$narrow@_J_J@gsl@@YA_J_J@Z DD imagerel $LN23
	DD	imagerel $LN23+20
	DD	imagerel $unwind$??$narrow@_J_J@gsl@@YA_J_J@Z
pdata	ENDS
;	COMDAT pdata
pdata	SEGMENT
$pdata$??$copy_n@PEBD_JPEAE@std@@YAPEAEPEBD_JPEAE@Z DD imagerel $LN20
	DD	imagerel $LN20+64
	DD	imagerel $unwind$??$copy_n@PEBD_JPEAE@std@@YAPEAEPEBD_JPEAE@Z
pdata	ENDS
;	COMDAT pdata
pdata	SEGMENT
$pdata$??$?0H$05X@?$span@H$0?0@gsl@@QEAA@AEBV?$span@H$05@1@@Z DD imagerel $LN67
	DD	imagerel $LN67+83
	DD	imagerel $unwind$??$?0H$05X@?$span@H$0?0@gsl@@QEAA@AEBV?$span@H$05@1@@Z
pdata	ENDS
;	COMDAT pdata
pdata	SEGMENT
$pdata$?dtor$4@?0???$?0H$05X@?$span@H$0?0@gsl@@QEAA@AEBV?$span@H$05@1@@Z@4HA DD imagerel ?dtor$4@?0???$?0H$05X@?$span@H$0?0@gsl@@QEAA@AEBV?$span@H$05@1@@Z@4HA
	DD	imagerel ?dtor$4@?0???$?0H$05X@?$span@H$0?0@gsl@@QEAA@AEBV?$span@H$05@1@@Z@4HA+38
	DD	imagerel $unwind$?dtor$4@?0???$?0H$05X@?$span@H$0?0@gsl@@QEAA@AEBV?$span@H$05@1@@Z@4HA
pdata	ENDS
;	COMDAT pdata
pdata	SEGMENT
$pdata$??$?0_J@?$storage_type@V?$extent_type@$0?0@details@gsl@@@?$span@$$CBD$0?0@gsl@@QEAA@PEBD_J@Z DD imagerel $LN53
	DD	imagerel $LN53+121
	DD	imagerel $unwind$??$?0_J@?$storage_type@V?$extent_type@$0?0@details@gsl@@@?$span@$$CBD$0?0@gsl@@QEAA@PEBD_J@Z
pdata	ENDS
;	COMDAT pdata
pdata	SEGMENT
$pdata$?dtor$2@?0???$?0_J@?$storage_type@V?$extent_type@$0?0@details@gsl@@@?$span@$$CBD$0?0@gsl@@QEAA@PEBD_J@Z@4HA DD imagerel ?dtor$2@?0???$?0_J@?$storage_type@V?$extent_type@$0?0@details@gsl@@@?$span@$$CBD$0?0@gsl@@QEAA@PEBD_J@Z@4HA
	DD	imagerel ?dtor$2@?0???$?0_J@?$storage_type@V?$extent_type@$0?0@details@gsl@@@?$span@$$CBD$0?0@gsl@@QEAA@PEBD_J@Z@4HA+38
	DD	imagerel $unwind$?dtor$2@?0???$?0_J@?$storage_type@V?$extent_type@$0?0@details@gsl@@@?$span@$$CBD$0?0@gsl@@QEAA@PEBD_J@Z@4HA
pdata	ENDS
;	COMDAT pdata
pdata	SEGMENT
$pdata$?dtor$1@?0???$?0_J@?$storage_type@V?$extent_type@$0?0@details@gsl@@@?$span@$$CBD$0?0@gsl@@QEAA@PEBD_J@Z@4HA DD imagerel ?dtor$1@?0???$?0_J@?$storage_type@V?$extent_type@$0?0@details@gsl@@@?$span@$$CBD$0?0@gsl@@QEAA@PEBD_J@Z@4HA
	DD	imagerel ?dtor$1@?0???$?0_J@?$storage_type@V?$extent_type@$0?0@details@gsl@@@?$span@$$CBD$0?0@gsl@@QEAA@PEBD_J@Z@4HA+38
	DD	imagerel $unwind$?dtor$1@?0???$?0_J@?$storage_type@V?$extent_type@$0?0@details@gsl@@@?$span@$$CBD$0?0@gsl@@QEAA@PEBD_J@Z@4HA
pdata	ENDS
;	COMDAT pdata
pdata	SEGMENT
$pdata$??$?0_J@?$storage_type@V?$extent_type@$0?0@details@gsl@@@?$span@E$0?0@gsl@@QEAA@PEAE_J@Z DD imagerel $LN53
	DD	imagerel $LN53+121
	DD	imagerel $unwind$??$?0_J@?$storage_type@V?$extent_type@$0?0@details@gsl@@@?$span@E$0?0@gsl@@QEAA@PEAE_J@Z
pdata	ENDS
;	COMDAT pdata
pdata	SEGMENT
$pdata$?dtor$2@?0???$?0_J@?$storage_type@V?$extent_type@$0?0@details@gsl@@@?$span@E$0?0@gsl@@QEAA@PEAE_J@Z@4HA DD imagerel ?dtor$2@?0???$?0_J@?$storage_type@V?$extent_type@$0?0@details@gsl@@@?$span@E$0?0@gsl@@QEAA@PEAE_J@Z@4HA
	DD	imagerel ?dtor$2@?0???$?0_J@?$storage_type@V?$extent_type@$0?0@details@gsl@@@?$span@E$0?0@gsl@@QEAA@PEAE_J@Z@4HA+38
	DD	imagerel $unwind$?dtor$2@?0???$?0_J@?$storage_type@V?$extent_type@$0?0@details@gsl@@@?$span@E$0?0@gsl@@QEAA@PEAE_J@Z@4HA
pdata	ENDS
;	COMDAT pdata
pdata	SEGMENT
$pdata$?dtor$1@?0???$?0_J@?$storage_type@V?$extent_type@$0?0@details@gsl@@@?$span@E$0?0@gsl@@QEAA@PEAE_J@Z@4HA DD imagerel ?dtor$1@?0???$?0_J@?$storage_type@V?$extent_type@$0?0@details@gsl@@@?$span@E$0?0@gsl@@QEAA@PEAE_J@Z@4HA
	DD	imagerel ?dtor$1@?0???$?0_J@?$storage_type@V?$extent_type@$0?0@details@gsl@@@?$span@E$0?0@gsl@@QEAA@PEAE_J@Z@4HA+38
	DD	imagerel $unwind$?dtor$1@?0???$?0_J@?$storage_type@V?$extent_type@$0?0@details@gsl@@@?$span@E$0?0@gsl@@QEAA@PEAE_J@Z@4HA
pdata	ENDS
;	COMDAT pdata
pdata	SEGMENT
$pdata$??$_Adl_verify_range1@V?$span_iterator@V?$span@H$0?0@gsl@@$0A@@details@gsl@@V123@@std@@YAXAEBV?$span_iterator@V?$span@H$0?0@gsl@@$0A@@details@gsl@@0U?$integral_constant@_N$00@0@@Z DD imagerel $LN21
	DD	imagerel $LN21+87
	DD	imagerel $unwind$??$_Adl_verify_range1@V?$span_iterator@V?$span@H$0?0@gsl@@$0A@@details@gsl@@V123@@std@@YAXAEBV?$span_iterator@V?$span@H$0?0@gsl@@$0A@@details@gsl@@0U?$integral_constant@_N$00@0@@Z
pdata	ENDS
;	COMDAT pdata
pdata	SEGMENT
$pdata$??$_Copy_unchecked1@PEAHPEAH@std@@YAPEAHPEAH00U_Trivially_copyable_ptr_iterator_tag@0@@Z DD imagerel $LN6
	DD	imagerel $LN6+48
	DD	imagerel $unwind$??$_Copy_unchecked1@PEAHPEAH@std@@YAPEAHPEAH00U_Trivially_copyable_ptr_iterator_tag@0@@Z
pdata	ENDS
;	COMDAT pdata
pdata	SEGMENT
$pdata$??$_Copy_n_unchecked3@PEAH_JPEAH@std@@YAPEAHPEAH_J0@Z DD imagerel $LN10
	DD	imagerel $LN10+50
	DD	imagerel $unwind$??$_Copy_n_unchecked3@PEAH_JPEAH@std@@YAPEAHPEAH_J0@Z
pdata	ENDS
;	COMDAT pdata
pdata	SEGMENT
$pdata$??$ensure_sentinel@$$CBD$0A@@gsl@@YA?AV?$span@$$CBD$0?0@0@PEBD_J@Z DD imagerel $LN52
	DD	imagerel $LN52+161
	DD	imagerel $unwind$??$ensure_sentinel@$$CBD$0A@@gsl@@YA?AV?$span@$$CBD$0?0@0@PEBD_J@Z
pdata	ENDS
;	COMDAT pdata
pdata	SEGMENT
$pdata$?dtor$0@?0???$ensure_sentinel@$$CBD$0A@@gsl@@YA?AV?$span@$$CBD$0?0@0@PEBD_J@Z@4HA DD imagerel ?dtor$0@?0???$ensure_sentinel@$$CBD$0A@@gsl@@YA?AV?$span@$$CBD$0?0@0@PEBD_J@Z@4HA
	DD	imagerel ?dtor$0@?0???$ensure_sentinel@$$CBD$0A@@gsl@@YA?AV?$span@$$CBD$0?0@0@PEBD_J@Z@4HA+38
	DD	imagerel $unwind$?dtor$0@?0???$ensure_sentinel@$$CBD$0A@@gsl@@YA?AV?$span@$$CBD$0?0@0@PEBD_J@Z@4HA
pdata	ENDS
;	COMDAT pdata
pdata	SEGMENT
$pdata$?dtor$2@?0???$ensure_sentinel@$$CBD$0A@@gsl@@YA?AV?$span@$$CBD$0?0@0@PEBD_J@Z@4HA DD imagerel ?dtor$2@?0???$ensure_sentinel@$$CBD$0A@@gsl@@YA?AV?$span@$$CBD$0?0@0@PEBD_J@Z@4HA
	DD	imagerel ?dtor$2@?0???$ensure_sentinel@$$CBD$0A@@gsl@@YA?AV?$span@$$CBD$0?0@0@PEBD_J@Z@4HA+38
	DD	imagerel $unwind$?dtor$2@?0???$ensure_sentinel@$$CBD$0A@@gsl@@YA?AV?$span@$$CBD$0?0@0@PEBD_J@Z@4HA
pdata	ENDS
;	COMDAT pdata
pdata	SEGMENT
$pdata$??$_Adl_verify_range1@V?$span_iterator@V?$span@$$CBD$0?0@gsl@@$0A@@details@gsl@@V123@@std@@YAXAEBV?$span_iterator@V?$span@$$CBD$0?0@gsl@@$0A@@details@gsl@@0U?$integral_constant@_N$00@0@@Z DD imagerel $LN21
	DD	imagerel $LN21+87
	DD	imagerel $unwind$??$_Adl_verify_range1@V?$span_iterator@V?$span@$$CBD$0?0@gsl@@$0A@@details@gsl@@V123@@std@@YAXAEBV?$span_iterator@V?$span@$$CBD$0?0@gsl@@$0A@@details@gsl@@0U?$integral_constant@_N$00@0@@Z
pdata	ENDS
;	COMDAT pdata
pdata	SEGMENT
$pdata$??$_Copy_unchecked1@PEBDPEAE@std@@YAPEAEPEBD0PEAEU_Trivially_copyable_ptr_iterator_tag@0@@Z DD imagerel $LN6
	DD	imagerel $LN6+48
	DD	imagerel $unwind$??$_Copy_unchecked1@PEBDPEAE@std@@YAPEAEPEBD0PEAEU_Trivially_copyable_ptr_iterator_tag@0@@Z
pdata	ENDS
;	COMDAT pdata
pdata	SEGMENT
$pdata$??$throw_exception@Unarrowing_error@gsl@@@details@gsl@@YAX$$QEAUnarrowing_error@1@@Z DD imagerel $LN4
	DD	imagerel $LN4+40
	DD	imagerel $unwind$??$throw_exception@Unarrowing_error@gsl@@@details@gsl@@YAX$$QEAUnarrowing_error@1@@Z
pdata	ENDS
;	COMDAT pdata
pdata	SEGMENT
$pdata$??$_Copy_n_unchecked3@PEBD_JPEAE@std@@YAPEAEPEBD_JPEAE@Z DD imagerel $LN10
	DD	imagerel $LN10+45
	DD	imagerel $unwind$??$_Copy_n_unchecked3@PEBD_JPEAE@std@@YAPEAEPEBD_JPEAE@Z
pdata	ENDS
;	COMDAT pdata
pdata	SEGMENT
$pdata$??$?0V?$extent_type@$05@details@gsl@@@?$storage_type@V?$extent_type@$0?0@details@gsl@@@?$span@H$0?0@gsl@@QEAA@PEAHV?$extent_type@$05@details@2@@Z DD imagerel $LN41
	DD	imagerel $LN41+85
	DD	imagerel $unwind$??$?0V?$extent_type@$05@details@gsl@@@?$storage_type@V?$extent_type@$0?0@details@gsl@@@?$span@H$0?0@gsl@@QEAA@PEAHV?$extent_type@$05@details@2@@Z
pdata	ENDS
;	COMDAT pdata
pdata	SEGMENT
$pdata$?dtor$1@?0???$?0V?$extent_type@$05@details@gsl@@@?$storage_type@V?$extent_type@$0?0@details@gsl@@@?$span@H$0?0@gsl@@QEAA@PEAHV?$extent_type@$05@details@2@@Z@4HA DD imagerel ?dtor$1@?0???$?0V?$extent_type@$05@details@gsl@@@?$storage_type@V?$extent_type@$0?0@details@gsl@@@?$span@H$0?0@gsl@@QEAA@PEAHV?$extent_type@$05@details@2@@Z@4HA
	DD	imagerel ?dtor$1@?0???$?0V?$extent_type@$05@details@gsl@@@?$storage_type@V?$extent_type@$0?0@details@gsl@@@?$span@H$0?0@gsl@@QEAA@PEAHV?$extent_type@$05@details@2@@Z@4HA+38
	DD	imagerel $unwind$?dtor$1@?0???$?0V?$extent_type@$05@details@gsl@@@?$storage_type@V?$extent_type@$0?0@details@gsl@@@?$span@H$0?0@gsl@@QEAA@PEAHV?$extent_type@$05@details@2@@Z@4HA
pdata	ENDS
;	COMDAT pdata
pdata	SEGMENT
$pdata$??$_Copy_memmove@PEAHPEAH@std@@YAPEAHPEAH00@Z DD imagerel $LN4
	DD	imagerel $LN4+48
	DD	imagerel $unwind$??$_Copy_memmove@PEAHPEAH@std@@YAPEAHPEAH00@Z
pdata	ENDS
;	COMDAT pdata
pdata	SEGMENT
$pdata$??$_Copy_n_unchecked4@PEAH_JPEAH@std@@YAPEAHPEAH_J0U_Trivially_copyable_ptr_iterator_tag@0@@Z DD imagerel $LN6
	DD	imagerel $LN6+50
	DD	imagerel $unwind$??$_Copy_n_unchecked4@PEAH_JPEAH@std@@YAPEAHPEAH_J0U_Trivially_copyable_ptr_iterator_tag@0@@Z
pdata	ENDS
;	COMDAT pdata
pdata	SEGMENT
$pdata$??$_Copy_memmove@PEBDPEAE@std@@YAPEAEPEBD0PEAE@Z DD imagerel $LN4
	DD	imagerel $LN4+48
	DD	imagerel $unwind$??$_Copy_memmove@PEBDPEAE@std@@YAPEAEPEBD0PEAE@Z
pdata	ENDS
;	COMDAT pdata
pdata	SEGMENT
$pdata$??$_Copy_n_unchecked4@PEBD_JPEAE@std@@YAPEAEPEBD_JPEAEU_Trivially_copyable_ptr_iterator_tag@0@@Z DD imagerel $LN6
	DD	imagerel $LN6+45
	DD	imagerel $unwind$??$_Copy_n_unchecked4@PEBD_JPEAE@std@@YAPEAEPEBD_JPEAEU_Trivially_copyable_ptr_iterator_tag@0@@Z
pdata	ENDS
;	COMDAT __xmm@00000003000000020000000100000000
CONST	SEGMENT
__xmm@00000003000000020000000100000000 DB 00H, 00H, 00H, 00H, 01H, 00H, 00H
	DB	00H, 02H, 00H, 00H, 00H, 03H, 00H, 00H, 00H
CONST	ENDS
;	COMDAT __xmm@00000001000000010000000100000001
CONST	SEGMENT
__xmm@00000001000000010000000100000001 DB 01H, 00H, 00H, 00H, 01H, 00H, 00H
	DB	00H, 01H, 00H, 00H, 00H, 01H, 00H, 00H, 00H
CONST	ENDS
;	COMDAT ??_R1A@?0A@EA@narrowing_error@gsl@@8
rdata$r	SEGMENT
??_R1A@?0A@EA@narrowing_error@gsl@@8 DD imagerel ??_R0?AUnarrowing_error@gsl@@@8 ; gsl::narrowing_error::`RTTI Base Class Descriptor at (0,-1,0,64)'
	DD	01H
	DD	00H
	DD	0ffffffffH
	DD	00H
	DD	040H
	DD	imagerel ??_R3narrowing_error@gsl@@8
rdata$r	ENDS
;	COMDAT ??_R2narrowing_error@gsl@@8
rdata$r	SEGMENT
??_R2narrowing_error@gsl@@8 DD imagerel ??_R1A@?0A@EA@narrowing_error@gsl@@8 ; gsl::narrowing_error::`RTTI Base Class Array'
	DD	imagerel ??_R1A@?0A@EA@exception@std@@8
	ORG $+3
rdata$r	ENDS
;	COMDAT ??_R3narrowing_error@gsl@@8
rdata$r	SEGMENT
??_R3narrowing_error@gsl@@8 DD 00H			; gsl::narrowing_error::`RTTI Class Hierarchy Descriptor'
	DD	00H
	DD	02H
	DD	imagerel ??_R2narrowing_error@gsl@@8
rdata$r	ENDS
;	COMDAT ??_R4narrowing_error@gsl@@6B@
rdata$r	SEGMENT
??_R4narrowing_error@gsl@@6B@ DD 01H			; gsl::narrowing_error::`RTTI Complete Object Locator'
	DD	00H
	DD	00H
	DD	imagerel ??_R0?AUnarrowing_error@gsl@@@8
	DD	imagerel ??_R3narrowing_error@gsl@@8
	DD	imagerel ??_R4narrowing_error@gsl@@6B@
rdata$r	ENDS
;	COMDAT ??_R1A@?0A@EA@fail_fast@gsl@@8
rdata$r	SEGMENT
??_R1A@?0A@EA@fail_fast@gsl@@8 DD imagerel ??_R0?AUfail_fast@gsl@@@8 ; gsl::fail_fast::`RTTI Base Class Descriptor at (0,-1,0,64)'
	DD	02H
	DD	00H
	DD	0ffffffffH
	DD	00H
	DD	040H
	DD	imagerel ??_R3fail_fast@gsl@@8
rdata$r	ENDS
;	COMDAT ??_R2fail_fast@gsl@@8
rdata$r	SEGMENT
??_R2fail_fast@gsl@@8 DD imagerel ??_R1A@?0A@EA@fail_fast@gsl@@8 ; gsl::fail_fast::`RTTI Base Class Array'
	DD	imagerel ??_R1A@?0A@EA@logic_error@std@@8
	DD	imagerel ??_R1A@?0A@EA@exception@std@@8
	ORG $+3
rdata$r	ENDS
;	COMDAT ??_R3fail_fast@gsl@@8
rdata$r	SEGMENT
??_R3fail_fast@gsl@@8 DD 00H				; gsl::fail_fast::`RTTI Class Hierarchy Descriptor'
	DD	00H
	DD	03H
	DD	imagerel ??_R2fail_fast@gsl@@8
rdata$r	ENDS
;	COMDAT ??_R4fail_fast@gsl@@6B@
rdata$r	SEGMENT
??_R4fail_fast@gsl@@6B@ DD 01H				; gsl::fail_fast::`RTTI Complete Object Locator'
	DD	00H
	DD	00H
	DD	imagerel ??_R0?AUfail_fast@gsl@@@8
	DD	imagerel ??_R3fail_fast@gsl@@8
	DD	imagerel ??_R4fail_fast@gsl@@6B@
rdata$r	ENDS
;	COMDAT ??_R1A@?0A@EA@logic_error@std@@8
rdata$r	SEGMENT
??_R1A@?0A@EA@logic_error@std@@8 DD imagerel ??_R0?AVlogic_error@std@@@8 ; std::logic_error::`RTTI Base Class Descriptor at (0,-1,0,64)'
	DD	01H
	DD	00H
	DD	0ffffffffH
	DD	00H
	DD	040H
	DD	imagerel ??_R3logic_error@std@@8
rdata$r	ENDS
;	COMDAT ??_R2logic_error@std@@8
rdata$r	SEGMENT
??_R2logic_error@std@@8 DD imagerel ??_R1A@?0A@EA@logic_error@std@@8 ; std::logic_error::`RTTI Base Class Array'
	DD	imagerel ??_R1A@?0A@EA@exception@std@@8
	ORG $+3
rdata$r	ENDS
;	COMDAT ??_R3logic_error@std@@8
rdata$r	SEGMENT
??_R3logic_error@std@@8 DD 00H				; std::logic_error::`RTTI Class Hierarchy Descriptor'
	DD	00H
	DD	02H
	DD	imagerel ??_R2logic_error@std@@8
rdata$r	ENDS
;	COMDAT ??_R4logic_error@std@@6B@
rdata$r	SEGMENT
??_R4logic_error@std@@6B@ DD 01H			; std::logic_error::`RTTI Complete Object Locator'
	DD	00H
	DD	00H
	DD	imagerel ??_R0?AVlogic_error@std@@@8
	DD	imagerel ??_R3logic_error@std@@8
	DD	imagerel ??_R4logic_error@std@@6B@
rdata$r	ENDS
;	COMDAT ??_R1A@?0A@EA@exception@std@@8
rdata$r	SEGMENT
??_R1A@?0A@EA@exception@std@@8 DD imagerel ??_R0?AVexception@std@@@8 ; std::exception::`RTTI Base Class Descriptor at (0,-1,0,64)'
	DD	00H
	DD	00H
	DD	0ffffffffH
	DD	00H
	DD	040H
	DD	imagerel ??_R3exception@std@@8
rdata$r	ENDS
;	COMDAT ??_R2exception@std@@8
rdata$r	SEGMENT
??_R2exception@std@@8 DD imagerel ??_R1A@?0A@EA@exception@std@@8 ; std::exception::`RTTI Base Class Array'
	ORG $+3
rdata$r	ENDS
;	COMDAT ??_R3exception@std@@8
rdata$r	SEGMENT
??_R3exception@std@@8 DD 00H				; std::exception::`RTTI Class Hierarchy Descriptor'
	DD	00H
	DD	01H
	DD	imagerel ??_R2exception@std@@8
rdata$r	ENDS
;	COMDAT ??_R4exception@std@@6B@
rdata$r	SEGMENT
??_R4exception@std@@6B@ DD 01H				; std::exception::`RTTI Complete Object Locator'
	DD	00H
	DD	00H
	DD	imagerel ??_R0?AVexception@std@@@8
	DD	imagerel ??_R3exception@std@@8
	DD	imagerel ??_R4exception@std@@6B@
rdata$r	ENDS
;	COMDAT ??_C@_0ED@GOAPCFOK@GSL?3?5Precondition?5failure?5at?5c?3@
CONST	SEGMENT
??_C@_0ED@GOAPCFOK@GSL?3?5Precondition?5failure?5at?5c?3@ DB 'GSL: Precon'
	DB	'dition failure at c:\projects\gsl\include\gsl\span: 266', 00H ; `string'
CONST	ENDS
;	COMDAT _CT??_R0?AUnarrowing_error@gsl@@@8??0narrowing_error@gsl@@QEAA@AEBU01@@Z24
xdata$x	SEGMENT
_CT??_R0?AUnarrowing_error@gsl@@@8??0narrowing_error@gsl@@QEAA@AEBU01@@Z24 DD 00H
	DD	imagerel ??_R0?AUnarrowing_error@gsl@@@8
	DD	00H
	DD	0ffffffffH
	ORG $+4
	DD	018H
	DD	imagerel ??0narrowing_error@gsl@@QEAA@AEBU01@@Z
xdata$x	ENDS
;	COMDAT ??_R0?AUnarrowing_error@gsl@@@8
data$r	SEGMENT
??_R0?AUnarrowing_error@gsl@@@8 DQ FLAT:??_7type_info@@6B@ ; gsl::narrowing_error `RTTI Type Descriptor'
	DQ	0000000000000000H
	DB	'.?AUnarrowing_error@gsl@@', 00H
data$r	ENDS
;	COMDAT _CTA2?AUnarrowing_error@gsl@@
xdata$x	SEGMENT
_CTA2?AUnarrowing_error@gsl@@ DD 02H
	DD	imagerel _CT??_R0?AUnarrowing_error@gsl@@@8??0narrowing_error@gsl@@QEAA@AEBU01@@Z24
	DD	imagerel _CT??_R0?AVexception@std@@@8??0exception@std@@QEAA@AEBV01@@Z24
xdata$x	ENDS
;	COMDAT _TI2?AUnarrowing_error@gsl@@
xdata$x	SEGMENT
_TI2?AUnarrowing_error@gsl@@ DD 00H
	DD	imagerel ??1narrowing_error@gsl@@UEAA@XZ
	DD	00H
	DD	imagerel _CTA2?AUnarrowing_error@gsl@@
xdata$x	ENDS
;	COMDAT ??_C@_0EL@CANAMLLN@GSL?3?5Postcondition?5failure?5at?5c@
CONST	SEGMENT
??_C@_0EL@CANAMLLN@GSL?3?5Postcondition?5failure?5at?5c@ DB 'GSL: Postcon'
	DB	'dition failure at c:\projects\gsl\include\gsl\string_span: 12'
	DB	'2', 00H					; `string'
CONST	ENDS
;	COMDAT ??_C@_0EL@HEMMNCGC@GSL?3?5Postcondition?5failure?5at?5c@
CONST	SEGMENT
??_C@_0EL@HEMMNCGC@GSL?3?5Postcondition?5failure?5at?5c@ DB 'GSL: Postcon'
	DB	'dition failure at c:\projects\gsl\include\gsl\string_span: 11'
	DB	'4', 00H					; `string'
CONST	ENDS
;	COMDAT ??_C@_0ED@JOPLHMJE@GSL?3?5Precondition?5failure?5at?5c?3@
CONST	SEGMENT
??_C@_0ED@JOPLHMJE@GSL?3?5Precondition?5failure?5at?5c?3@ DB 'GSL: Precon'
	DB	'dition failure at c:\projects\gsl\include\gsl\span: 321', 00H ; `string'
CONST	ENDS
;	COMDAT ??_C@_0ED@LKBIKNJ@GSL?3?5Precondition?5failure?5at?5c?3@
CONST	SEGMENT
??_C@_0ED@LKBIKNJ@GSL?3?5Precondition?5failure?5at?5c?3@ DB 'GSL: Precond'
	DB	'ition failure at c:\projects\gsl\include\gsl\span: 272', 00H ; `string'
CONST	ENDS
;	COMDAT ??_C@_0ED@HPBMEGKB@GSL?3?5Precondition?5failure?5at?5c?3@
CONST	SEGMENT
??_C@_0ED@HPBMEGKB@GSL?3?5Precondition?5failure?5at?5c?3@ DB 'GSL: Precon'
	DB	'dition failure at c:\projects\gsl\include\gsl\span: 599', 00H ; `string'
CONST	ENDS
;	COMDAT ??_C@_0EL@EPJEKFNE@GSL?3?5Precondition?5failure?5at?5c?3@
CONST	SEGMENT
??_C@_0EL@EPJEKFNE@GSL?3?5Precondition?5failure?5at?5c?3@ DB 'GSL: Precon'
	DB	'dition failure at c:\projects\gsl\include\gsl\gsl_algorithm: '
	DB	'50', 00H					; `string'
CONST	ENDS
;	COMDAT _CT??_R0?AVlogic_error@std@@@8??0logic_error@std@@QEAA@AEBV01@@Z24
xdata$x	SEGMENT
_CT??_R0?AVlogic_error@std@@@8??0logic_error@std@@QEAA@AEBV01@@Z24 DD 00H
	DD	imagerel ??_R0?AVlogic_error@std@@@8
	DD	00H
	DD	0ffffffffH
	ORG $+4
	DD	018H
	DD	imagerel ??0logic_error@std@@QEAA@AEBV01@@Z
xdata$x	ENDS
;	COMDAT ??_R0?AVlogic_error@std@@@8
data$r	SEGMENT
??_R0?AVlogic_error@std@@@8 DQ FLAT:??_7type_info@@6B@	; std::logic_error `RTTI Type Descriptor'
	DQ	0000000000000000H
	DB	'.?AVlogic_error@std@@', 00H
data$r	ENDS
;	COMDAT _CT??_R0?AUfail_fast@gsl@@@8??0fail_fast@gsl@@QEAA@AEBU01@@Z24
xdata$x	SEGMENT
_CT??_R0?AUfail_fast@gsl@@@8??0fail_fast@gsl@@QEAA@AEBU01@@Z24 DD 00H
	DD	imagerel ??_R0?AUfail_fast@gsl@@@8
	DD	00H
	DD	0ffffffffH
	ORG $+4
	DD	018H
	DD	imagerel ??0fail_fast@gsl@@QEAA@AEBU01@@Z
xdata$x	ENDS
;	COMDAT ??_R0?AUfail_fast@gsl@@@8
data$r	SEGMENT
??_R0?AUfail_fast@gsl@@@8 DQ FLAT:??_7type_info@@6B@	; gsl::fail_fast `RTTI Type Descriptor'
	DQ	0000000000000000H
	DB	'.?AUfail_fast@gsl@@', 00H
data$r	ENDS
;	COMDAT _CTA3?AUfail_fast@gsl@@
xdata$x	SEGMENT
_CTA3?AUfail_fast@gsl@@ DD 03H
	DD	imagerel _CT??_R0?AUfail_fast@gsl@@@8??0fail_fast@gsl@@QEAA@AEBU01@@Z24
	DD	imagerel _CT??_R0?AVlogic_error@std@@@8??0logic_error@std@@QEAA@AEBV01@@Z24
	DD	imagerel _CT??_R0?AVexception@std@@@8??0exception@std@@QEAA@AEBV01@@Z24
xdata$x	ENDS
;	COMDAT _TI3?AUfail_fast@gsl@@
xdata$x	SEGMENT
_TI3?AUfail_fast@gsl@@ DD 00H
	DD	imagerel ??1fail_fast@gsl@@UEAA@XZ
	DD	00H
	DD	imagerel _CTA3?AUfail_fast@gsl@@
xdata$x	ENDS
;	COMDAT ??_C@_0ED@MMILCDJF@GSL?3?5Precondition?5failure?5at?5c?3@
CONST	SEGMENT
??_C@_0ED@MMILCDJF@GSL?3?5Precondition?5failure?5at?5c?3@ DB 'GSL: Precon'
	DB	'dition failure at c:\projects\gsl\include\gsl\span: 635', 00H ; `string'
CONST	ENDS
;	COMDAT ??_C@_0ED@KIOHOGJB@GSL?3?5Precondition?5failure?5at?5c?3@
CONST	SEGMENT
??_C@_0ED@KIOHOGJB@GSL?3?5Precondition?5failure?5at?5c?3@ DB 'GSL: Precon'
	DB	'dition failure at c:\projects\gsl\include\gsl\span: 631', 00H ; `string'
CONST	ENDS
;	COMDAT ??_C@_0ED@GHOHAFBM@GSL?3?5Precondition?5failure?5at?5c?3@
CONST	SEGMENT
??_C@_0ED@GHOHAFBM@GSL?3?5Precondition?5failure?5at?5c?3@ DB 'GSL: Precon'
	DB	'dition failure at c:\projects\gsl\include\gsl\span: 157', 00H ; `string'
CONST	ENDS
;	COMDAT ??_C@_0ED@PLCCJGML@GSL?3?5Precondition?5failure?5at?5c?3@
CONST	SEGMENT
??_C@_0ED@PLCCJGML@GSL?3?5Precondition?5failure?5at?5c?3@ DB 'GSL: Precon'
	DB	'dition failure at c:\projects\gsl\include\gsl\span: 169', 00H ; `string'
CONST	ENDS
;	COMDAT ??_C@_0ED@HAMNHNCO@GSL?3?5Precondition?5failure?5at?5c?3@
CONST	SEGMENT
??_C@_0ED@HAMNHNCO@GSL?3?5Precondition?5failure?5at?5c?3@ DB 'GSL: Precon'
	DB	'dition failure at c:\projects\gsl\include\gsl\span: 509', 00H ; `string'
CONST	ENDS
;	COMDAT ??_C@_0L@CCAJJBND@iVtrau?5lDC@
CONST	SEGMENT
??_C@_0L@CCAJJBND@iVtrau?5lDC@ DB 'iVtrau lDC', 00H	; `string'
CONST	ENDS
;	COMDAT ??_C@_0ED@NAHIIAGE@GSL?3?5Precondition?5failure?5at?5c?3@
CONST	SEGMENT
??_C@_0ED@NAHIIAGE@GSL?3?5Precondition?5failure?5at?5c?3@ DB 'GSL: Precon'
	DB	'dition failure at c:\projects\gsl\include\gsl\span: 336', 00H ; `string'
CONST	ENDS
;	COMDAT ??_7narrowing_error@gsl@@6B@
CONST	SEGMENT
??_7narrowing_error@gsl@@6B@ DQ FLAT:??_R4narrowing_error@gsl@@6B@ ; gsl::narrowing_error::`vftable'
	DQ	FLAT:??_Enarrowing_error@gsl@@UEAAPEAXI@Z
	DQ	FLAT:?what@exception@std@@UEBAPEBDXZ
CONST	ENDS
;	COMDAT _CT??_R0?AVexception@std@@@8??0exception@std@@QEAA@AEBV01@@Z24
xdata$x	SEGMENT
_CT??_R0?AVexception@std@@@8??0exception@std@@QEAA@AEBV01@@Z24 DD 00H
	DD	imagerel ??_R0?AVexception@std@@@8
	DD	00H
	DD	0ffffffffH
	ORG $+4
	DD	018H
	DD	imagerel ??0exception@std@@QEAA@AEBV01@@Z
xdata$x	ENDS
;	COMDAT ??_R0?AVexception@std@@@8
data$r	SEGMENT
??_R0?AVexception@std@@@8 DQ FLAT:??_7type_info@@6B@	; std::exception `RTTI Type Descriptor'
	DQ	0000000000000000H
	DB	'.?AVexception@std@@', 00H
data$r	ENDS
;	COMDAT ??_7fail_fast@gsl@@6B@
CONST	SEGMENT
??_7fail_fast@gsl@@6B@ DQ FLAT:??_R4fail_fast@gsl@@6B@	; gsl::fail_fast::`vftable'
	DQ	FLAT:??_Efail_fast@gsl@@UEAAPEAXI@Z
	DQ	FLAT:?what@exception@std@@UEBAPEBDXZ
CONST	ENDS
;	COMDAT ??_7logic_error@std@@6B@
CONST	SEGMENT
??_7logic_error@std@@6B@ DQ FLAT:??_R4logic_error@std@@6B@ ; std::logic_error::`vftable'
	DQ	FLAT:??_Elogic_error@std@@UEAAPEAXI@Z
	DQ	FLAT:?what@exception@std@@UEBAPEBDXZ
CONST	ENDS
;	COMDAT ??_C@_0BC@EOODALEL@Unknown?5exception@
CONST	SEGMENT
??_C@_0BC@EOODALEL@Unknown?5exception@ DB 'Unknown exception', 00H ; `string'
CONST	ENDS
;	COMDAT ??_7exception@std@@6B@
CONST	SEGMENT
??_7exception@std@@6B@ DQ FLAT:??_R4exception@std@@6B@	; std::exception::`vftable'
	DQ	FLAT:??_Eexception@std@@UEAAPEAXI@Z
	DQ	FLAT:?what@exception@std@@UEBAPEBDXZ
CONST	ENDS
;	COMDAT xdata
xdata	SEGMENT
$unwind$??$_Copy_n_unchecked4@PEBD_JPEAE@std@@YAPEAEPEBD_JPEAEU_Trivially_copyable_ptr_iterator_tag@0@@Z DD 040a01H
	DD	06340aH
	DD	07006320aH
xdata	ENDS
;	COMDAT xdata
xdata	SEGMENT
$unwind$??$_Copy_memmove@PEBDPEAE@std@@YAPEAEPEBD0PEAE@Z DD 040a01H
	DD	06340aH
	DD	07006320aH
xdata	ENDS
;	COMDAT xdata
xdata	SEGMENT
$unwind$??$_Copy_n_unchecked4@PEAH_JPEAH@std@@YAPEAHPEAH_J0U_Trivially_copyable_ptr_iterator_tag@0@@Z DD 040a01H
	DD	06340aH
	DD	07006320aH
xdata	ENDS
;	COMDAT xdata
xdata	SEGMENT
$unwind$??$_Copy_memmove@PEAHPEAH@std@@YAPEAHPEAH00@Z DD 040a01H
	DD	06340aH
	DD	07006320aH
xdata	ENDS
;	COMDAT xdata
xdata	SEGMENT
$unwind$?dtor$1@?0???$?0V?$extent_type@$05@details@gsl@@@?$storage_type@V?$extent_type@$0?0@details@gsl@@@?$span@H$0?0@gsl@@QEAA@PEAHV?$extent_type@$05@details@2@@Z@4HA DD 020601H
	DD	050023206H
xdata	ENDS
;	COMDAT xdata
xdata	SEGMENT
$ip2state$??$?0V?$extent_type@$05@details@gsl@@@?$storage_type@V?$extent_type@$0?0@details@gsl@@@?$span@H$0?0@gsl@@QEAA@PEAHV?$extent_type@$05@details@2@@Z DD imagerel ??$?0V?$extent_type@$05@details@gsl@@@?$storage_type@V?$extent_type@$0?0@details@gsl@@@?$span@H$0?0@gsl@@QEAA@PEAHV?$extent_type@$05@details@2@@Z+79
	DD	01H
xdata	ENDS
;	COMDAT xdata
xdata	SEGMENT
$stateUnwindMap$??$?0V?$extent_type@$05@details@gsl@@@?$storage_type@V?$extent_type@$0?0@details@gsl@@@?$span@H$0?0@gsl@@QEAA@PEAHV?$extent_type@$05@details@2@@Z DD 0ffffffffH
	DD	00H
	DD	0ffffffffH
	DD	imagerel ?dtor$1@?0???$?0V?$extent_type@$05@details@gsl@@@?$storage_type@V?$extent_type@$0?0@details@gsl@@@?$span@H$0?0@gsl@@QEAA@PEAHV?$extent_type@$05@details@2@@Z@4HA
xdata	ENDS
;	COMDAT CONST
CONST	SEGMENT
$cppxdata$??$?0V?$extent_type@$05@details@gsl@@@?$storage_type@V?$extent_type@$0?0@details@gsl@@@?$span@H$0?0@gsl@@QEAA@PEAHV?$extent_type@$05@details@2@@Z DD 019930522H
	DD	02H
	DD	imagerel $stateUnwindMap$??$?0V?$extent_type@$05@details@gsl@@@?$storage_type@V?$extent_type@$0?0@details@gsl@@@?$span@H$0?0@gsl@@QEAA@PEAHV?$extent_type@$05@details@2@@Z
	DD	00H
	DD	00H
	DD	01H
	DD	imagerel $ip2state$??$?0V?$extent_type@$05@details@gsl@@@?$storage_type@V?$extent_type@$0?0@details@gsl@@@?$span@H$0?0@gsl@@QEAA@PEAHV?$extent_type@$05@details@2@@Z
	DD	020H
	DD	00H
	DD	01H
CONST	ENDS
;	COMDAT xdata
xdata	SEGMENT
$unwind$??$?0V?$extent_type@$05@details@gsl@@@?$storage_type@V?$extent_type@$0?0@details@gsl@@@?$span@H$0?0@gsl@@QEAA@PEAHV?$extent_type@$05@details@2@@Z DD 011211H
	DD	08209H
	DD	imagerel __CxxFrameHandler3
	DD	imagerel $cppxdata$??$?0V?$extent_type@$05@details@gsl@@@?$storage_type@V?$extent_type@$0?0@details@gsl@@@?$span@H$0?0@gsl@@QEAA@PEAHV?$extent_type@$05@details@2@@Z
xdata	ENDS
;	COMDAT xdata
xdata	SEGMENT
$unwind$??$_Copy_n_unchecked3@PEBD_JPEAE@std@@YAPEAEPEBD_JPEAE@Z DD 040a01H
	DD	06340aH
	DD	07006320aH
xdata	ENDS
;	COMDAT xdata
xdata	SEGMENT
$unwind$??$throw_exception@Unarrowing_error@gsl@@@details@gsl@@YAX$$QEAUnarrowing_error@1@@Z DD 010401H
	DD	08204H
xdata	ENDS
;	COMDAT xdata
xdata	SEGMENT
$unwind$??$_Copy_unchecked1@PEBDPEAE@std@@YAPEAEPEBD0PEAEU_Trivially_copyable_ptr_iterator_tag@0@@Z DD 040a01H
	DD	06340aH
	DD	07006320aH
xdata	ENDS
;	COMDAT xdata
xdata	SEGMENT
$ip2state$??$_Adl_verify_range1@V?$span_iterator@V?$span@$$CBD$0?0@gsl@@$0A@@details@gsl@@V123@@std@@YAXAEBV?$span_iterator@V?$span@$$CBD$0?0@gsl@@$0A@@details@gsl@@0U?$integral_constant@_N$00@0@@Z DD imagerel ??$_Adl_verify_range1@V?$span_iterator@V?$span@$$CBD$0?0@gsl@@$0A@@details@gsl@@V123@@std@@YAXAEBV?$span_iterator@V?$span@$$CBD$0?0@gsl@@$0A@@details@gsl@@0U?$integral_constant@_N$00@0@@Z+81
	DD	00H
xdata	ENDS
;	COMDAT xdata
xdata	SEGMENT
$stateUnwindMap$??$_Adl_verify_range1@V?$span_iterator@V?$span@$$CBD$0?0@gsl@@$0A@@details@gsl@@V123@@std@@YAXAEBV?$span_iterator@V?$span@$$CBD$0?0@gsl@@$0A@@details@gsl@@0U?$integral_constant@_N$00@0@@Z DD 0ffffffffH
	DD	imagerel __std_terminate
xdata	ENDS
;	COMDAT CONST
CONST	SEGMENT
$cppxdata$??$_Adl_verify_range1@V?$span_iterator@V?$span@$$CBD$0?0@gsl@@$0A@@details@gsl@@V123@@std@@YAXAEBV?$span_iterator@V?$span@$$CBD$0?0@gsl@@$0A@@details@gsl@@0U?$integral_constant@_N$00@0@@Z DD 019930522H
	DD	01H
	DD	imagerel $stateUnwindMap$??$_Adl_verify_range1@V?$span_iterator@V?$span@$$CBD$0?0@gsl@@$0A@@details@gsl@@V123@@std@@YAXAEBV?$span_iterator@V?$span@$$CBD$0?0@gsl@@$0A@@details@gsl@@0U?$integral_constant@_N$00@0@@Z
	DD	00H
	DD	00H
	DD	01H
	DD	imagerel $ip2state$??$_Adl_verify_range1@V?$span_iterator@V?$span@$$CBD$0?0@gsl@@$0A@@details@gsl@@V123@@std@@YAXAEBV?$span_iterator@V?$span@$$CBD$0?0@gsl@@$0A@@details@gsl@@0U?$integral_constant@_N$00@0@@Z
	DD	020H
	DD	00H
	DD	01H
CONST	ENDS
;	COMDAT xdata
xdata	SEGMENT
$unwind$??$_Adl_verify_range1@V?$span_iterator@V?$span@$$CBD$0?0@gsl@@$0A@@details@gsl@@V123@@std@@YAXAEBV?$span_iterator@V?$span@$$CBD$0?0@gsl@@$0A@@details@gsl@@0U?$integral_constant@_N$00@0@@Z DD 010d11H
	DD	0c204H
	DD	imagerel __CxxFrameHandler3
	DD	imagerel $cppxdata$??$_Adl_verify_range1@V?$span_iterator@V?$span@$$CBD$0?0@gsl@@$0A@@details@gsl@@V123@@std@@YAXAEBV?$span_iterator@V?$span@$$CBD$0?0@gsl@@$0A@@details@gsl@@0U?$integral_constant@_N$00@0@@Z
xdata	ENDS
;	COMDAT xdata
xdata	SEGMENT
$unwind$?dtor$2@?0???$ensure_sentinel@$$CBD$0A@@gsl@@YA?AV?$span@$$CBD$0?0@0@PEBD_J@Z@4HA DD 020601H
	DD	050023206H
xdata	ENDS
;	COMDAT xdata
xdata	SEGMENT
$unwind$?dtor$0@?0???$ensure_sentinel@$$CBD$0A@@gsl@@YA?AV?$span@$$CBD$0?0@0@PEBD_J@Z@4HA DD 020601H
	DD	050023206H
xdata	ENDS
;	COMDAT xdata
xdata	SEGMENT
$ip2state$??$ensure_sentinel@$$CBD$0A@@gsl@@YA?AV?$span@$$CBD$0?0@0@PEBD_J@Z DD imagerel ??$ensure_sentinel@$$CBD$0A@@gsl@@YA?AV?$span@$$CBD$0?0@0@PEBD_J@Z+77
	DD	0ffffffffH
	DD	imagerel ??$ensure_sentinel@$$CBD$0A@@gsl@@YA?AV?$span@$$CBD$0?0@0@PEBD_J@Z+120
	DD	02H
	DD	imagerel ??$ensure_sentinel@$$CBD$0A@@gsl@@YA?AV?$span@$$CBD$0?0@0@PEBD_J@Z+155
	DD	00H
xdata	ENDS
;	COMDAT xdata
xdata	SEGMENT
$stateUnwindMap$??$ensure_sentinel@$$CBD$0A@@gsl@@YA?AV?$span@$$CBD$0?0@0@PEBD_J@Z DD 0ffffffffH
	DD	imagerel ?dtor$0@?0???$ensure_sentinel@$$CBD$0A@@gsl@@YA?AV?$span@$$CBD$0?0@0@PEBD_J@Z@4HA
	DD	0ffffffffH
	DD	00H
	DD	0ffffffffH
	DD	imagerel ?dtor$2@?0???$ensure_sentinel@$$CBD$0A@@gsl@@YA?AV?$span@$$CBD$0?0@0@PEBD_J@Z@4HA
xdata	ENDS
;	COMDAT CONST
CONST	SEGMENT
$cppxdata$??$ensure_sentinel@$$CBD$0A@@gsl@@YA?AV?$span@$$CBD$0?0@0@PEBD_J@Z DD 019930522H
	DD	03H
	DD	imagerel $stateUnwindMap$??$ensure_sentinel@$$CBD$0A@@gsl@@YA?AV?$span@$$CBD$0?0@0@PEBD_J@Z
	DD	00H
	DD	00H
	DD	03H
	DD	imagerel $ip2state$??$ensure_sentinel@$$CBD$0A@@gsl@@YA?AV?$span@$$CBD$0?0@0@PEBD_J@Z
	DD	020H
	DD	00H
	DD	01H
CONST	ENDS
;	COMDAT xdata
xdata	SEGMENT
$unwind$??$ensure_sentinel@$$CBD$0A@@gsl@@YA?AV?$span@$$CBD$0?0@0@PEBD_J@Z DD 020f11H
	DD	030027206H
	DD	imagerel __CxxFrameHandler3
	DD	imagerel $cppxdata$??$ensure_sentinel@$$CBD$0A@@gsl@@YA?AV?$span@$$CBD$0?0@0@PEBD_J@Z
xdata	ENDS
;	COMDAT xdata
xdata	SEGMENT
$unwind$??$_Copy_n_unchecked3@PEAH_JPEAH@std@@YAPEAHPEAH_J0@Z DD 040a01H
	DD	06340aH
	DD	07006320aH
xdata	ENDS
;	COMDAT xdata
xdata	SEGMENT
$unwind$??$_Copy_unchecked1@PEAHPEAH@std@@YAPEAHPEAH00U_Trivially_copyable_ptr_iterator_tag@0@@Z DD 040a01H
	DD	06340aH
	DD	07006320aH
xdata	ENDS
;	COMDAT xdata
xdata	SEGMENT
$ip2state$??$_Adl_verify_range1@V?$span_iterator@V?$span@H$0?0@gsl@@$0A@@details@gsl@@V123@@std@@YAXAEBV?$span_iterator@V?$span@H$0?0@gsl@@$0A@@details@gsl@@0U?$integral_constant@_N$00@0@@Z DD imagerel ??$_Adl_verify_range1@V?$span_iterator@V?$span@H$0?0@gsl@@$0A@@details@gsl@@V123@@std@@YAXAEBV?$span_iterator@V?$span@H$0?0@gsl@@$0A@@details@gsl@@0U?$integral_constant@_N$00@0@@Z+81
	DD	00H
xdata	ENDS
;	COMDAT xdata
xdata	SEGMENT
$stateUnwindMap$??$_Adl_verify_range1@V?$span_iterator@V?$span@H$0?0@gsl@@$0A@@details@gsl@@V123@@std@@YAXAEBV?$span_iterator@V?$span@H$0?0@gsl@@$0A@@details@gsl@@0U?$integral_constant@_N$00@0@@Z DD 0ffffffffH
	DD	imagerel __std_terminate
xdata	ENDS
;	COMDAT CONST
CONST	SEGMENT
$cppxdata$??$_Adl_verify_range1@V?$span_iterator@V?$span@H$0?0@gsl@@$0A@@details@gsl@@V123@@std@@YAXAEBV?$span_iterator@V?$span@H$0?0@gsl@@$0A@@details@gsl@@0U?$integral_constant@_N$00@0@@Z DD 019930522H
	DD	01H
	DD	imagerel $stateUnwindMap$??$_Adl_verify_range1@V?$span_iterator@V?$span@H$0?0@gsl@@$0A@@details@gsl@@V123@@std@@YAXAEBV?$span_iterator@V?$span@H$0?0@gsl@@$0A@@details@gsl@@0U?$integral_constant@_N$00@0@@Z
	DD	00H
	DD	00H
	DD	01H
	DD	imagerel $ip2state$??$_Adl_verify_range1@V?$span_iterator@V?$span@H$0?0@gsl@@$0A@@details@gsl@@V123@@std@@YAXAEBV?$span_iterator@V?$span@H$0?0@gsl@@$0A@@details@gsl@@0U?$integral_constant@_N$00@0@@Z
	DD	020H
	DD	00H
	DD	01H
CONST	ENDS
;	COMDAT xdata
xdata	SEGMENT
$unwind$??$_Adl_verify_range1@V?$span_iterator@V?$span@H$0?0@gsl@@$0A@@details@gsl@@V123@@std@@YAXAEBV?$span_iterator@V?$span@H$0?0@gsl@@$0A@@details@gsl@@0U?$integral_constant@_N$00@0@@Z DD 010d11H
	DD	0c204H
	DD	imagerel __CxxFrameHandler3
	DD	imagerel $cppxdata$??$_Adl_verify_range1@V?$span_iterator@V?$span@H$0?0@gsl@@$0A@@details@gsl@@V123@@std@@YAXAEBV?$span_iterator@V?$span@H$0?0@gsl@@$0A@@details@gsl@@0U?$integral_constant@_N$00@0@@Z
xdata	ENDS
;	COMDAT xdata
xdata	SEGMENT
$unwind$?dtor$1@?0???$?0_J@?$storage_type@V?$extent_type@$0?0@details@gsl@@@?$span@E$0?0@gsl@@QEAA@PEAE_J@Z@4HA DD 020601H
	DD	050023206H
xdata	ENDS
;	COMDAT xdata
xdata	SEGMENT
$unwind$?dtor$2@?0???$?0_J@?$storage_type@V?$extent_type@$0?0@details@gsl@@@?$span@E$0?0@gsl@@QEAA@PEAE_J@Z@4HA DD 020601H
	DD	050023206H
xdata	ENDS
;	COMDAT xdata
xdata	SEGMENT
$ip2state$??$?0_J@?$storage_type@V?$extent_type@$0?0@details@gsl@@@?$span@E$0?0@gsl@@QEAA@PEAE_J@Z DD imagerel ??$?0_J@?$storage_type@V?$extent_type@$0?0@details@gsl@@@?$span@E$0?0@gsl@@QEAA@PEAE_J@Z+80
	DD	02H
	DD	imagerel ??$?0_J@?$storage_type@V?$extent_type@$0?0@details@gsl@@@?$span@E$0?0@gsl@@QEAA@PEAE_J@Z+115
	DD	00H
xdata	ENDS
;	COMDAT xdata
xdata	SEGMENT
$stateUnwindMap$??$?0_J@?$storage_type@V?$extent_type@$0?0@details@gsl@@@?$span@E$0?0@gsl@@QEAA@PEAE_J@Z DD 0ffffffffH
	DD	imagerel ?dtor$2@?0???$?0_J@?$storage_type@V?$extent_type@$0?0@details@gsl@@@?$span@E$0?0@gsl@@QEAA@PEAE_J@Z@4HA
	DD	0ffffffffH
	DD	00H
	DD	0ffffffffH
	DD	imagerel ?dtor$1@?0???$?0_J@?$storage_type@V?$extent_type@$0?0@details@gsl@@@?$span@E$0?0@gsl@@QEAA@PEAE_J@Z@4HA
xdata	ENDS
;	COMDAT CONST
CONST	SEGMENT
$cppxdata$??$?0_J@?$storage_type@V?$extent_type@$0?0@details@gsl@@@?$span@E$0?0@gsl@@QEAA@PEAE_J@Z DD 019930522H
	DD	03H
	DD	imagerel $stateUnwindMap$??$?0_J@?$storage_type@V?$extent_type@$0?0@details@gsl@@@?$span@E$0?0@gsl@@QEAA@PEAE_J@Z
	DD	00H
	DD	00H
	DD	02H
	DD	imagerel $ip2state$??$?0_J@?$storage_type@V?$extent_type@$0?0@details@gsl@@@?$span@E$0?0@gsl@@QEAA@PEAE_J@Z
	DD	020H
	DD	00H
	DD	01H
CONST	ENDS
;	COMDAT xdata
xdata	SEGMENT
$unwind$??$?0_J@?$storage_type@V?$extent_type@$0?0@details@gsl@@@?$span@E$0?0@gsl@@QEAA@PEAE_J@Z DD 010d11H
	DD	08204H
	DD	imagerel __CxxFrameHandler3
	DD	imagerel $cppxdata$??$?0_J@?$storage_type@V?$extent_type@$0?0@details@gsl@@@?$span@E$0?0@gsl@@QEAA@PEAE_J@Z
xdata	ENDS
;	COMDAT xdata
xdata	SEGMENT
$unwind$?dtor$1@?0???$?0_J@?$storage_type@V?$extent_type@$0?0@details@gsl@@@?$span@$$CBD$0?0@gsl@@QEAA@PEBD_J@Z@4HA DD 020601H
	DD	050023206H
xdata	ENDS
;	COMDAT xdata
xdata	SEGMENT
$unwind$?dtor$2@?0???$?0_J@?$storage_type@V?$extent_type@$0?0@details@gsl@@@?$span@$$CBD$0?0@gsl@@QEAA@PEBD_J@Z@4HA DD 020601H
	DD	050023206H
xdata	ENDS
;	COMDAT xdata
xdata	SEGMENT
$ip2state$??$?0_J@?$storage_type@V?$extent_type@$0?0@details@gsl@@@?$span@$$CBD$0?0@gsl@@QEAA@PEBD_J@Z DD imagerel ??$?0_J@?$storage_type@V?$extent_type@$0?0@details@gsl@@@?$span@$$CBD$0?0@gsl@@QEAA@PEBD_J@Z+80
	DD	02H
	DD	imagerel ??$?0_J@?$storage_type@V?$extent_type@$0?0@details@gsl@@@?$span@$$CBD$0?0@gsl@@QEAA@PEBD_J@Z+115
	DD	00H
xdata	ENDS
;	COMDAT xdata
xdata	SEGMENT
$stateUnwindMap$??$?0_J@?$storage_type@V?$extent_type@$0?0@details@gsl@@@?$span@$$CBD$0?0@gsl@@QEAA@PEBD_J@Z DD 0ffffffffH
	DD	imagerel ?dtor$2@?0???$?0_J@?$storage_type@V?$extent_type@$0?0@details@gsl@@@?$span@$$CBD$0?0@gsl@@QEAA@PEBD_J@Z@4HA
	DD	0ffffffffH
	DD	00H
	DD	0ffffffffH
	DD	imagerel ?dtor$1@?0???$?0_J@?$storage_type@V?$extent_type@$0?0@details@gsl@@@?$span@$$CBD$0?0@gsl@@QEAA@PEBD_J@Z@4HA
xdata	ENDS
;	COMDAT CONST
CONST	SEGMENT
$cppxdata$??$?0_J@?$storage_type@V?$extent_type@$0?0@details@gsl@@@?$span@$$CBD$0?0@gsl@@QEAA@PEBD_J@Z DD 019930522H
	DD	03H
	DD	imagerel $stateUnwindMap$??$?0_J@?$storage_type@V?$extent_type@$0?0@details@gsl@@@?$span@$$CBD$0?0@gsl@@QEAA@PEBD_J@Z
	DD	00H
	DD	00H
	DD	02H
	DD	imagerel $ip2state$??$?0_J@?$storage_type@V?$extent_type@$0?0@details@gsl@@@?$span@$$CBD$0?0@gsl@@QEAA@PEBD_J@Z
	DD	020H
	DD	00H
	DD	01H
CONST	ENDS
;	COMDAT xdata
xdata	SEGMENT
$unwind$??$?0_J@?$storage_type@V?$extent_type@$0?0@details@gsl@@@?$span@$$CBD$0?0@gsl@@QEAA@PEBD_J@Z DD 010d11H
	DD	08204H
	DD	imagerel __CxxFrameHandler3
	DD	imagerel $cppxdata$??$?0_J@?$storage_type@V?$extent_type@$0?0@details@gsl@@@?$span@$$CBD$0?0@gsl@@QEAA@PEBD_J@Z
xdata	ENDS
;	COMDAT xdata
xdata	SEGMENT
$unwind$?dtor$4@?0???$?0H$05X@?$span@H$0?0@gsl@@QEAA@AEBV?$span@H$05@1@@Z@4HA DD 020601H
	DD	050023206H
xdata	ENDS
;	COMDAT xdata
xdata	SEGMENT
$ip2state$??$?0H$05X@?$span@H$0?0@gsl@@QEAA@AEBV?$span@H$05@1@@Z DD imagerel ??$?0H$05X@?$span@H$0?0@gsl@@QEAA@AEBV?$span@H$05@1@@Z+77
	DD	02H
xdata	ENDS
;	COMDAT xdata
xdata	SEGMENT
$stateUnwindMap$??$?0H$05X@?$span@H$0?0@gsl@@QEAA@AEBV?$span@H$05@1@@Z DD 0ffffffffH
	DD	00H
	DD	0ffffffffH
	DD	00H
	DD	0ffffffffH
	DD	imagerel ?dtor$4@?0???$?0H$05X@?$span@H$0?0@gsl@@QEAA@AEBV?$span@H$05@1@@Z@4HA
xdata	ENDS
;	COMDAT CONST
CONST	SEGMENT
$cppxdata$??$?0H$05X@?$span@H$0?0@gsl@@QEAA@AEBV?$span@H$05@1@@Z DD 019930522H
	DD	03H
	DD	imagerel $stateUnwindMap$??$?0H$05X@?$span@H$0?0@gsl@@QEAA@AEBV?$span@H$05@1@@Z
	DD	00H
	DD	00H
	DD	01H
	DD	imagerel $ip2state$??$?0H$05X@?$span@H$0?0@gsl@@QEAA@AEBV?$span@H$05@1@@Z
	DD	020H
	DD	00H
	DD	01H
CONST	ENDS
;	COMDAT xdata
xdata	SEGMENT
$unwind$??$?0H$05X@?$span@H$0?0@gsl@@QEAA@AEBV?$span@H$05@1@@Z DD 010d11H
	DD	08204H
	DD	imagerel __CxxFrameHandler3
	DD	imagerel $cppxdata$??$?0H$05X@?$span@H$0?0@gsl@@QEAA@AEBV?$span@H$05@1@@Z
xdata	ENDS
;	COMDAT xdata
xdata	SEGMENT
$unwind$??$copy_n@PEBD_JPEAE@std@@YAPEAEPEBD_JPEAE@Z DD 040a01H
	DD	06340aH
	DD	07006320aH
xdata	ENDS
;	COMDAT xdata
xdata	SEGMENT
$unwind$??$narrow@_J_J@gsl@@YA_J_J@Z DD 010c01H
	DD	02204H
xdata	ENDS
;	COMDAT xdata
xdata	SEGMENT
$unwind$??$_Copy_unchecked@PEBDPEAE@std@@YAPEAEPEBD0PEAE@Z DD 040a01H
	DD	06340aH
	DD	07006320aH
xdata	ENDS
;	COMDAT xdata
xdata	SEGMENT
$ip2state$??$_Get_unwrapped_n@V?$span_iterator@V?$span@E$0?0@gsl@@$0A@@details@gsl@@_J$0A@@std@@YAPEAEAEBV?$span_iterator@V?$span@E$0?0@gsl@@$0A@@details@gsl@@_J@Z DD imagerel ??$_Get_unwrapped_n@V?$span_iterator@V?$span@E$0?0@gsl@@$0A@@details@gsl@@_J$0A@@std@@YAPEAEAEBV?$span_iterator@V?$span@E$0?0@gsl@@$0A@@details@gsl@@_J@Z+66
	DD	00H
xdata	ENDS
;	COMDAT xdata
xdata	SEGMENT
$stateUnwindMap$??$_Get_unwrapped_n@V?$span_iterator@V?$span@E$0?0@gsl@@$0A@@details@gsl@@_J$0A@@std@@YAPEAEAEBV?$span_iterator@V?$span@E$0?0@gsl@@$0A@@details@gsl@@_J@Z DD 0ffffffffH
	DD	imagerel __std_terminate
xdata	ENDS
;	COMDAT CONST
CONST	SEGMENT
$cppxdata$??$_Get_unwrapped_n@V?$span_iterator@V?$span@E$0?0@gsl@@$0A@@details@gsl@@_J$0A@@std@@YAPEAEAEBV?$span_iterator@V?$span@E$0?0@gsl@@$0A@@details@gsl@@_J@Z DD 019930522H
	DD	01H
	DD	imagerel $stateUnwindMap$??$_Get_unwrapped_n@V?$span_iterator@V?$span@E$0?0@gsl@@$0A@@details@gsl@@_J$0A@@std@@YAPEAEAEBV?$span_iterator@V?$span@E$0?0@gsl@@$0A@@details@gsl@@_J@Z
	DD	00H
	DD	00H
	DD	01H
	DD	imagerel $ip2state$??$_Get_unwrapped_n@V?$span_iterator@V?$span@E$0?0@gsl@@$0A@@details@gsl@@_J$0A@@std@@YAPEAEAEBV?$span_iterator@V?$span@E$0?0@gsl@@$0A@@details@gsl@@_J@Z
	DD	020H
	DD	00H
	DD	01H
CONST	ENDS
;	COMDAT xdata
xdata	SEGMENT
$unwind$??$_Get_unwrapped_n@V?$span_iterator@V?$span@E$0?0@gsl@@$0A@@details@gsl@@_J$0A@@std@@YAPEAEAEBV?$span_iterator@V?$span@E$0?0@gsl@@$0A@@details@gsl@@_J@Z DD 010d11H
	DD	08204H
	DD	imagerel __CxxFrameHandler3
	DD	imagerel $cppxdata$??$_Get_unwrapped_n@V?$span_iterator@V?$span@E$0?0@gsl@@$0A@@details@gsl@@_J$0A@@std@@YAPEAEAEBV?$span_iterator@V?$span@E$0?0@gsl@@$0A@@details@gsl@@_J@Z
xdata	ENDS
;	COMDAT xdata
xdata	SEGMENT
$ip2state$??$_Adl_verify_range@V?$span_iterator@V?$span@$$CBD$0?0@gsl@@$0A@@details@gsl@@V123@@std@@YAXAEBV?$span_iterator@V?$span@$$CBD$0?0@gsl@@$0A@@details@gsl@@0@Z DD imagerel ??$_Adl_verify_range@V?$span_iterator@V?$span@$$CBD$0?0@gsl@@$0A@@details@gsl@@V123@@std@@YAXAEBV?$span_iterator@V?$span@$$CBD$0?0@gsl@@$0A@@details@gsl@@0@Z+81
	DD	00H
xdata	ENDS
;	COMDAT xdata
xdata	SEGMENT
$stateUnwindMap$??$_Adl_verify_range@V?$span_iterator@V?$span@$$CBD$0?0@gsl@@$0A@@details@gsl@@V123@@std@@YAXAEBV?$span_iterator@V?$span@$$CBD$0?0@gsl@@$0A@@details@gsl@@0@Z DD 0ffffffffH
	DD	imagerel __std_terminate
xdata	ENDS
;	COMDAT CONST
CONST	SEGMENT
$cppxdata$??$_Adl_verify_range@V?$span_iterator@V?$span@$$CBD$0?0@gsl@@$0A@@details@gsl@@V123@@std@@YAXAEBV?$span_iterator@V?$span@$$CBD$0?0@gsl@@$0A@@details@gsl@@0@Z DD 019930522H
	DD	01H
	DD	imagerel $stateUnwindMap$??$_Adl_verify_range@V?$span_iterator@V?$span@$$CBD$0?0@gsl@@$0A@@details@gsl@@V123@@std@@YAXAEBV?$span_iterator@V?$span@$$CBD$0?0@gsl@@$0A@@details@gsl@@0@Z
	DD	00H
	DD	00H
	DD	01H
	DD	imagerel $ip2state$??$_Adl_verify_range@V?$span_iterator@V?$span@$$CBD$0?0@gsl@@$0A@@details@gsl@@V123@@std@@YAXAEBV?$span_iterator@V?$span@$$CBD$0?0@gsl@@$0A@@details@gsl@@0@Z
	DD	020H
	DD	00H
	DD	01H
CONST	ENDS
;	COMDAT xdata
xdata	SEGMENT
$unwind$??$_Adl_verify_range@V?$span_iterator@V?$span@$$CBD$0?0@gsl@@$0A@@details@gsl@@V123@@std@@YAXAEBV?$span_iterator@V?$span@$$CBD$0?0@gsl@@$0A@@details@gsl@@0@Z DD 010d11H
	DD	0c204H
	DD	imagerel __CxxFrameHandler3
	DD	imagerel $cppxdata$??$_Adl_verify_range@V?$span_iterator@V?$span@$$CBD$0?0@gsl@@$0A@@details@gsl@@V123@@std@@YAXAEBV?$span_iterator@V?$span@$$CBD$0?0@gsl@@$0A@@details@gsl@@0@Z
xdata	ENDS
;	COMDAT xdata
xdata	SEGMENT
$unwind$?dtor$2@?0???$ensure_z@$$CBD@gsl@@YA?AV?$span@$$CBD$0?0@0@AEBQEBD_J@Z@4HA DD 020601H
	DD	050023206H
xdata	ENDS
;	COMDAT xdata
xdata	SEGMENT
$unwind$?dtor$0@?0???$ensure_z@$$CBD@gsl@@YA?AV?$span@$$CBD$0?0@0@AEBQEBD_J@Z@4HA DD 020601H
	DD	050023206H
xdata	ENDS
;	COMDAT xdata
xdata	SEGMENT
$ip2state$??$ensure_z@$$CBD@gsl@@YA?AV?$span@$$CBD$0?0@0@AEBQEBD_J@Z DD imagerel ??$ensure_z@$$CBD@gsl@@YA?AV?$span@$$CBD$0?0@0@AEBQEBD_J@Z+77
	DD	0ffffffffH
	DD	imagerel ??$ensure_z@$$CBD@gsl@@YA?AV?$span@$$CBD$0?0@0@AEBQEBD_J@Z+120
	DD	02H
	DD	imagerel ??$ensure_z@$$CBD@gsl@@YA?AV?$span@$$CBD$0?0@0@AEBQEBD_J@Z+155
	DD	00H
xdata	ENDS
;	COMDAT xdata
xdata	SEGMENT
$stateUnwindMap$??$ensure_z@$$CBD@gsl@@YA?AV?$span@$$CBD$0?0@0@AEBQEBD_J@Z DD 0ffffffffH
	DD	imagerel ?dtor$0@?0???$ensure_z@$$CBD@gsl@@YA?AV?$span@$$CBD$0?0@0@AEBQEBD_J@Z@4HA
	DD	0ffffffffH
	DD	00H
	DD	0ffffffffH
	DD	imagerel ?dtor$2@?0???$ensure_z@$$CBD@gsl@@YA?AV?$span@$$CBD$0?0@0@AEBQEBD_J@Z@4HA
xdata	ENDS
;	COMDAT CONST
CONST	SEGMENT
$cppxdata$??$ensure_z@$$CBD@gsl@@YA?AV?$span@$$CBD$0?0@0@AEBQEBD_J@Z DD 019930522H
	DD	03H
	DD	imagerel $stateUnwindMap$??$ensure_z@$$CBD@gsl@@YA?AV?$span@$$CBD$0?0@0@AEBQEBD_J@Z
	DD	00H
	DD	00H
	DD	03H
	DD	imagerel $ip2state$??$ensure_z@$$CBD@gsl@@YA?AV?$span@$$CBD$0?0@0@AEBQEBD_J@Z
	DD	020H
	DD	00H
	DD	01H
CONST	ENDS
;	COMDAT xdata
xdata	SEGMENT
$unwind$??$ensure_z@$$CBD@gsl@@YA?AV?$span@$$CBD$0?0@0@AEBQEBD_J@Z DD 020f11H
	DD	030027206H
	DD	imagerel __CxxFrameHandler3
	DD	imagerel $cppxdata$??$ensure_z@$$CBD@gsl@@YA?AV?$span@$$CBD$0?0@0@AEBQEBD_J@Z
xdata	ENDS
;	COMDAT xdata
xdata	SEGMENT
$unwind$??$?0V?$extent_type@$09@details@gsl@@@?$storage_type@V?$extent_type@$0?0@details@gsl@@@?$span@E$0?0@gsl@@QEAA@UKnownNotNull@12@V?$extent_type@$09@details@2@@Z DD 010c01H
	DD	02204H
xdata	ENDS
;	COMDAT xdata
xdata	SEGMENT
$chain$1$??$copy_n@PEAH_JPEAH@std@@YAPEAHPEAH_J0@Z DD 021H
	DD	imagerel $LN20
	DD	imagerel $LN20+14
	DD	imagerel $unwind$??$copy_n@PEAH_JPEAH@std@@YAPEAHPEAH_J0@Z
xdata	ENDS
;	COMDAT xdata
xdata	SEGMENT
$chain$0$??$copy_n@PEAH_JPEAH@std@@YAPEAHPEAH_J0@Z DD 020521H
	DD	063405H
	DD	imagerel $LN20
	DD	imagerel $LN20+14
	DD	imagerel $unwind$??$copy_n@PEAH_JPEAH@std@@YAPEAHPEAH_J0@Z
xdata	ENDS
;	COMDAT xdata
xdata	SEGMENT
$unwind$??$copy_n@PEAH_JPEAH@std@@YAPEAHPEAH_J0@Z DD 020601H
	DD	070023206H
xdata	ENDS
;	COMDAT xdata
xdata	SEGMENT
$unwind$??$_Copy_unchecked@PEAHPEAH@std@@YAPEAHPEAH00@Z DD 040a01H
	DD	06340aH
	DD	07006320aH
xdata	ENDS
;	COMDAT xdata
xdata	SEGMENT
$ip2state$??$_Get_unwrapped_n@V?$span_iterator@V?$span@H$0?0@gsl@@$0A@@details@gsl@@_J$0A@@std@@YAPEAHAEBV?$span_iterator@V?$span@H$0?0@gsl@@$0A@@details@gsl@@_J@Z DD imagerel ??$_Get_unwrapped_n@V?$span_iterator@V?$span@H$0?0@gsl@@$0A@@details@gsl@@_J$0A@@std@@YAPEAHAEBV?$span_iterator@V?$span@H$0?0@gsl@@$0A@@details@gsl@@_J@Z+67
	DD	00H
xdata	ENDS
;	COMDAT xdata
xdata	SEGMENT
$stateUnwindMap$??$_Get_unwrapped_n@V?$span_iterator@V?$span@H$0?0@gsl@@$0A@@details@gsl@@_J$0A@@std@@YAPEAHAEBV?$span_iterator@V?$span@H$0?0@gsl@@$0A@@details@gsl@@_J@Z DD 0ffffffffH
	DD	imagerel __std_terminate
xdata	ENDS
;	COMDAT CONST
CONST	SEGMENT
$cppxdata$??$_Get_unwrapped_n@V?$span_iterator@V?$span@H$0?0@gsl@@$0A@@details@gsl@@_J$0A@@std@@YAPEAHAEBV?$span_iterator@V?$span@H$0?0@gsl@@$0A@@details@gsl@@_J@Z DD 019930522H
	DD	01H
	DD	imagerel $stateUnwindMap$??$_Get_unwrapped_n@V?$span_iterator@V?$span@H$0?0@gsl@@$0A@@details@gsl@@_J$0A@@std@@YAPEAHAEBV?$span_iterator@V?$span@H$0?0@gsl@@$0A@@details@gsl@@_J@Z
	DD	00H
	DD	00H
	DD	01H
	DD	imagerel $ip2state$??$_Get_unwrapped_n@V?$span_iterator@V?$span@H$0?0@gsl@@$0A@@details@gsl@@_J$0A@@std@@YAPEAHAEBV?$span_iterator@V?$span@H$0?0@gsl@@$0A@@details@gsl@@_J@Z
	DD	020H
	DD	00H
	DD	01H
CONST	ENDS
;	COMDAT xdata
xdata	SEGMENT
$unwind$??$_Get_unwrapped_n@V?$span_iterator@V?$span@H$0?0@gsl@@$0A@@details@gsl@@_J$0A@@std@@YAPEAHAEBV?$span_iterator@V?$span@H$0?0@gsl@@$0A@@details@gsl@@_J@Z DD 010d11H
	DD	08204H
	DD	imagerel __CxxFrameHandler3
	DD	imagerel $cppxdata$??$_Get_unwrapped_n@V?$span_iterator@V?$span@H$0?0@gsl@@$0A@@details@gsl@@_J$0A@@std@@YAPEAHAEBV?$span_iterator@V?$span@H$0?0@gsl@@$0A@@details@gsl@@_J@Z
xdata	ENDS
;	COMDAT xdata
xdata	SEGMENT
$ip2state$??$_Adl_verify_range@V?$span_iterator@V?$span@H$0?0@gsl@@$0A@@details@gsl@@V123@@std@@YAXAEBV?$span_iterator@V?$span@H$0?0@gsl@@$0A@@details@gsl@@0@Z DD imagerel ??$_Adl_verify_range@V?$span_iterator@V?$span@H$0?0@gsl@@$0A@@details@gsl@@V123@@std@@YAXAEBV?$span_iterator@V?$span@H$0?0@gsl@@$0A@@details@gsl@@0@Z+81
	DD	00H
xdata	ENDS
;	COMDAT xdata
xdata	SEGMENT
$stateUnwindMap$??$_Adl_verify_range@V?$span_iterator@V?$span@H$0?0@gsl@@$0A@@details@gsl@@V123@@std@@YAXAEBV?$span_iterator@V?$span@H$0?0@gsl@@$0A@@details@gsl@@0@Z DD 0ffffffffH
	DD	imagerel __std_terminate
xdata	ENDS
;	COMDAT CONST
CONST	SEGMENT
$cppxdata$??$_Adl_verify_range@V?$span_iterator@V?$span@H$0?0@gsl@@$0A@@details@gsl@@V123@@std@@YAXAEBV?$span_iterator@V?$span@H$0?0@gsl@@$0A@@details@gsl@@0@Z DD 019930522H
	DD	01H
	DD	imagerel $stateUnwindMap$??$_Adl_verify_range@V?$span_iterator@V?$span@H$0?0@gsl@@$0A@@details@gsl@@V123@@std@@YAXAEBV?$span_iterator@V?$span@H$0?0@gsl@@$0A@@details@gsl@@0@Z
	DD	00H
	DD	00H
	DD	01H
	DD	imagerel $ip2state$??$_Adl_verify_range@V?$span_iterator@V?$span@H$0?0@gsl@@$0A@@details@gsl@@V123@@std@@YAXAEBV?$span_iterator@V?$span@H$0?0@gsl@@$0A@@details@gsl@@0@Z
	DD	020H
	DD	00H
	DD	01H
CONST	ENDS
;	COMDAT xdata
xdata	SEGMENT
$unwind$??$_Adl_verify_range@V?$span_iterator@V?$span@H$0?0@gsl@@$0A@@details@gsl@@V123@@std@@YAXAEBV?$span_iterator@V?$span@H$0?0@gsl@@$0A@@details@gsl@@0@Z DD 010d11H
	DD	0c204H
	DD	imagerel __CxxFrameHandler3
	DD	imagerel $cppxdata$??$_Adl_verify_range@V?$span_iterator@V?$span@H$0?0@gsl@@$0A@@details@gsl@@V123@@std@@YAXAEBV?$span_iterator@V?$span@H$0?0@gsl@@$0A@@details@gsl@@0@Z
xdata	ENDS
;	COMDAT xdata
xdata	SEGMENT
$unwind$??$?0V?$extent_type@$0A@@details@gsl@@@?$storage_type@V?$extent_type@$0?0@details@gsl@@@?$span@H$0?0@gsl@@QEAA@PEAHV?$extent_type@$0A@@details@2@@Z DD 010c01H
	DD	02204H
xdata	ENDS
;	COMDAT xdata
xdata	SEGMENT
$unwind$??$?0V?$extent_type@$05@details@gsl@@@?$storage_type@V?$extent_type@$05@details@gsl@@@?$span@H$05@gsl@@QEAA@UKnownNotNull@12@V?$extent_type@$05@details@2@@Z DD 010c01H
	DD	02204H
xdata	ENDS
;	COMDAT xdata
xdata	SEGMENT
$unwind$??$?0V?$extent_type@$05@details@gsl@@@?$storage_type@V?$extent_type@$0?0@details@gsl@@@?$span@E$0?0@gsl@@QEAA@UKnownNotNull@12@V?$extent_type@$05@details@2@@Z DD 010c01H
	DD	02204H
xdata	ENDS
;	COMDAT xdata
xdata	SEGMENT
$unwind$?dtor$1@?0???$?0_J@?$storage_type@V?$extent_type@$0?0@details@gsl@@@?$span@H$0?0@gsl@@QEAA@UKnownNotNull@12@_J@Z@4HA DD 020601H
	DD	050023206H
xdata	ENDS
;	COMDAT xdata
xdata	SEGMENT
$ip2state$??$?0_J@?$storage_type@V?$extent_type@$0?0@details@gsl@@@?$span@H$0?0@gsl@@QEAA@UKnownNotNull@12@_J@Z DD imagerel ??$?0_J@?$storage_type@V?$extent_type@$0?0@details@gsl@@@?$span@H$0?0@gsl@@QEAA@UKnownNotNull@12@_J@Z+70
	DD	00H
xdata	ENDS
;	COMDAT xdata
xdata	SEGMENT
$stateUnwindMap$??$?0_J@?$storage_type@V?$extent_type@$0?0@details@gsl@@@?$span@H$0?0@gsl@@QEAA@UKnownNotNull@12@_J@Z DD 0ffffffffH
	DD	imagerel ?dtor$1@?0???$?0_J@?$storage_type@V?$extent_type@$0?0@details@gsl@@@?$span@H$0?0@gsl@@QEAA@UKnownNotNull@12@_J@Z@4HA
	DD	0ffffffffH
	DD	00H
xdata	ENDS
;	COMDAT CONST
CONST	SEGMENT
$cppxdata$??$?0_J@?$storage_type@V?$extent_type@$0?0@details@gsl@@@?$span@H$0?0@gsl@@QEAA@UKnownNotNull@12@_J@Z DD 019930522H
	DD	02H
	DD	imagerel $stateUnwindMap$??$?0_J@?$storage_type@V?$extent_type@$0?0@details@gsl@@@?$span@H$0?0@gsl@@QEAA@UKnownNotNull@12@_J@Z
	DD	00H
	DD	00H
	DD	01H
	DD	imagerel $ip2state$??$?0_J@?$storage_type@V?$extent_type@$0?0@details@gsl@@@?$span@H$0?0@gsl@@QEAA@UKnownNotNull@12@_J@Z
	DD	020H
	DD	00H
	DD	01H
CONST	ENDS
;	COMDAT xdata
xdata	SEGMENT
$unwind$??$?0_J@?$storage_type@V?$extent_type@$0?0@details@gsl@@@?$span@H$0?0@gsl@@QEAA@UKnownNotNull@12@_J@Z DD 010d11H
	DD	08204H
	DD	imagerel __CxxFrameHandler3
	DD	imagerel $cppxdata$??$?0_J@?$storage_type@V?$extent_type@$0?0@details@gsl@@@?$span@H$0?0@gsl@@QEAA@UKnownNotNull@12@_J@Z
xdata	ENDS
;	COMDAT xdata
xdata	SEGMENT
$unwind$?dtor$1@?0???$?0_J@?$storage_type@V?$extent_type@$0?0@details@gsl@@@?$span@H$0?0@gsl@@QEAA@PEAH_J@Z@4HA DD 020601H
	DD	050023206H
xdata	ENDS
;	COMDAT xdata
xdata	SEGMENT
$unwind$?dtor$2@?0???$?0_J@?$storage_type@V?$extent_type@$0?0@details@gsl@@@?$span@H$0?0@gsl@@QEAA@PEAH_J@Z@4HA DD 020601H
	DD	050023206H
xdata	ENDS
;	COMDAT xdata
xdata	SEGMENT
$ip2state$??$?0_J@?$storage_type@V?$extent_type@$0?0@details@gsl@@@?$span@H$0?0@gsl@@QEAA@PEAH_J@Z DD imagerel ??$?0_J@?$storage_type@V?$extent_type@$0?0@details@gsl@@@?$span@H$0?0@gsl@@QEAA@PEAH_J@Z+80
	DD	02H
	DD	imagerel ??$?0_J@?$storage_type@V?$extent_type@$0?0@details@gsl@@@?$span@H$0?0@gsl@@QEAA@PEAH_J@Z+115
	DD	00H
xdata	ENDS
;	COMDAT xdata
xdata	SEGMENT
$stateUnwindMap$??$?0_J@?$storage_type@V?$extent_type@$0?0@details@gsl@@@?$span@H$0?0@gsl@@QEAA@PEAH_J@Z DD 0ffffffffH
	DD	imagerel ?dtor$2@?0???$?0_J@?$storage_type@V?$extent_type@$0?0@details@gsl@@@?$span@H$0?0@gsl@@QEAA@PEAH_J@Z@4HA
	DD	0ffffffffH
	DD	00H
	DD	0ffffffffH
	DD	imagerel ?dtor$1@?0???$?0_J@?$storage_type@V?$extent_type@$0?0@details@gsl@@@?$span@H$0?0@gsl@@QEAA@PEAH_J@Z@4HA
xdata	ENDS
;	COMDAT CONST
CONST	SEGMENT
$cppxdata$??$?0_J@?$storage_type@V?$extent_type@$0?0@details@gsl@@@?$span@H$0?0@gsl@@QEAA@PEAH_J@Z DD 019930522H
	DD	03H
	DD	imagerel $stateUnwindMap$??$?0_J@?$storage_type@V?$extent_type@$0?0@details@gsl@@@?$span@H$0?0@gsl@@QEAA@PEAH_J@Z
	DD	00H
	DD	00H
	DD	02H
	DD	imagerel $ip2state$??$?0_J@?$storage_type@V?$extent_type@$0?0@details@gsl@@@?$span@H$0?0@gsl@@QEAA@PEAH_J@Z
	DD	020H
	DD	00H
	DD	01H
CONST	ENDS
;	COMDAT xdata
xdata	SEGMENT
$unwind$??$?0_J@?$storage_type@V?$extent_type@$0?0@details@gsl@@@?$span@H$0?0@gsl@@QEAA@PEAH_J@Z DD 010d11H
	DD	08204H
	DD	imagerel __CxxFrameHandler3
	DD	imagerel $cppxdata$??$?0_J@?$storage_type@V?$extent_type@$0?0@details@gsl@@@?$span@H$0?0@gsl@@QEAA@PEAH_J@Z
xdata	ENDS
;	COMDAT xdata
xdata	SEGMENT
$unwind$?dtor$4@?0???$make_subspan@$05@?$span@H$05@gsl@@AEBA?AV?$span@H$0?0@1@_J0V?$subspan_selector@$05@01@@Z@4HA DD 020601H
	DD	050023206H
xdata	ENDS
;	COMDAT xdata
xdata	SEGMENT
$ip2state$??$make_subspan@$05@?$span@H$05@gsl@@AEBA?AV?$span@H$0?0@1@_J0V?$subspan_selector@$05@01@@Z DD imagerel ??$make_subspan@$05@?$span@H$05@gsl@@AEBA?AV?$span@H$0?0@1@_J0V?$subspan_selector@$05@01@@Z+58
	DD	0ffffffffH
	DD	imagerel ??$make_subspan@$05@?$span@H$05@gsl@@AEBA?AV?$span@H$0?0@1@_J0V?$subspan_selector@$05@01@@Z+101
	DD	02H
xdata	ENDS
;	COMDAT xdata
xdata	SEGMENT
$stateUnwindMap$??$make_subspan@$05@?$span@H$05@gsl@@AEBA?AV?$span@H$0?0@1@_J0V?$subspan_selector@$05@01@@Z DD 0ffffffffH
	DD	00H
	DD	0ffffffffH
	DD	00H
	DD	0ffffffffH
	DD	imagerel ?dtor$4@?0???$make_subspan@$05@?$span@H$05@gsl@@AEBA?AV?$span@H$0?0@1@_J0V?$subspan_selector@$05@01@@Z@4HA
xdata	ENDS
;	COMDAT CONST
CONST	SEGMENT
$cppxdata$??$make_subspan@$05@?$span@H$05@gsl@@AEBA?AV?$span@H$0?0@1@_J0V?$subspan_selector@$05@01@@Z DD 019930522H
	DD	03H
	DD	imagerel $stateUnwindMap$??$make_subspan@$05@?$span@H$05@gsl@@AEBA?AV?$span@H$0?0@1@_J0V?$subspan_selector@$05@01@@Z
	DD	00H
	DD	00H
	DD	02H
	DD	imagerel $ip2state$??$make_subspan@$05@?$span@H$05@gsl@@AEBA?AV?$span@H$0?0@1@_J0V?$subspan_selector@$05@01@@Z
	DD	038H
	DD	00H
	DD	01H
CONST	ENDS
;	COMDAT xdata
xdata	SEGMENT
$unwind$??$make_subspan@$05@?$span@H$05@gsl@@AEBA?AV?$span@H$0?0@1@_J0V?$subspan_selector@$05@01@@Z DD 020f11H
	DD	03002b206H
	DD	imagerel __CxxFrameHandler3
	DD	imagerel $cppxdata$??$make_subspan@$05@?$span@H$05@gsl@@AEBA?AV?$span@H$0?0@1@_J0V?$subspan_selector@$05@01@@Z
xdata	ENDS
;	COMDAT xdata
xdata	SEGMENT
$unwind$?dtor$0@?0???$copy@$$CBD$0?0E$0?0@gsl@@YAXV?$span@$$CBD$0?0@0@V?$span@E$0?0@0@@Z@4HA DD 020601H
	DD	050023206H
xdata	ENDS
;	COMDAT xdata
xdata	SEGMENT
$ip2state$??$copy@$$CBD$0?0E$0?0@gsl@@YAXV?$span@$$CBD$0?0@0@V?$span@E$0?0@0@@Z DD imagerel ??$copy@$$CBD$0?0E$0?0@gsl@@YAXV?$span@$$CBD$0?0@0@V?$span@E$0?0@0@@Z+88
	DD	00H
xdata	ENDS
;	COMDAT xdata
xdata	SEGMENT
$stateUnwindMap$??$copy@$$CBD$0?0E$0?0@gsl@@YAXV?$span@$$CBD$0?0@0@V?$span@E$0?0@0@@Z DD 0ffffffffH
	DD	imagerel ?dtor$0@?0???$copy@$$CBD$0?0E$0?0@gsl@@YAXV?$span@$$CBD$0?0@0@V?$span@E$0?0@0@@Z@4HA
xdata	ENDS
;	COMDAT CONST
CONST	SEGMENT
$cppxdata$??$copy@$$CBD$0?0E$0?0@gsl@@YAXV?$span@$$CBD$0?0@0@V?$span@E$0?0@0@@Z DD 019930522H
	DD	01H
	DD	imagerel $stateUnwindMap$??$copy@$$CBD$0?0E$0?0@gsl@@YAXV?$span@$$CBD$0?0@0@V?$span@E$0?0@0@@Z
	DD	00H
	DD	00H
	DD	01H
	DD	imagerel $ip2state$??$copy@$$CBD$0?0E$0?0@gsl@@YAXV?$span@$$CBD$0?0@0@V?$span@E$0?0@0@@Z
	DD	020H
	DD	00H
	DD	01H
CONST	ENDS
;	COMDAT xdata
xdata	SEGMENT
$unwind$??$copy@$$CBD$0?0E$0?0@gsl@@YAXV?$span@$$CBD$0?0@0@V?$span@E$0?0@0@@Z DD 010d11H
	DD	08204H
	DD	imagerel __CxxFrameHandler3
	DD	imagerel $cppxdata$??$copy@$$CBD$0?0E$0?0@gsl@@YAXV?$span@$$CBD$0?0@0@V?$span@E$0?0@0@@Z
xdata	ENDS
;	COMDAT xdata
xdata	SEGMENT
$unwind$??$?0V?$basic_string_span@$$CBD$0?0@gsl@@X@?$span@$$CBD$0?0@gsl@@QEAA@AEAV?$basic_string_span@$$CBD$0?0@1@@Z DD 020f01H
	DD	030025206H
xdata	ENDS
;	COMDAT xdata
xdata	SEGMENT
$unwind$?dtor$35@?0??test_string_gsl_copy@@YAXXZ@4HA DD 020601H
	DD	050023206H
xdata	ENDS
;	COMDAT xdata
xdata	SEGMENT
$unwind$?dtor$15@?0??test_string_gsl_copy@@YAXXZ@4HA DD 020601H
	DD	050023206H
xdata	ENDS
;	COMDAT xdata
xdata	SEGMENT
$unwind$?dtor$6@?0??test_string_gsl_copy@@YAXXZ@4HA DD 020601H
	DD	050023206H
xdata	ENDS
;	COMDAT xdata
xdata	SEGMENT
$ip2state$?test_string_gsl_copy@@YAXXZ DD imagerel ?test_string_gsl_copy@@YAXXZ+144
	DD	0ffffffffH
	DD	imagerel ?test_string_gsl_copy@@YAXXZ+191
	DD	0cH
	DD	imagerel ?test_string_gsl_copy@@YAXXZ+208
	DD	0ffffffffH
	DD	imagerel ?test_string_gsl_copy@@YAXXZ+237
	DD	04H
	DD	imagerel ?test_string_gsl_copy@@YAXXZ+272
	DD	03H
xdata	ENDS
;	COMDAT xdata
xdata	SEGMENT
$stateUnwindMap$?test_string_gsl_copy@@YAXXZ DD 0ffffffffH
	DD	imagerel __std_terminate
	DD	0ffffffffH
	DD	00H
	DD	0ffffffffH
	DD	00H
	DD	0ffffffffH
	DD	imagerel ?dtor$6@?0??test_string_gsl_copy@@YAXXZ@4HA
	DD	0ffffffffH
	DD	imagerel ?dtor$15@?0??test_string_gsl_copy@@YAXXZ@4HA
	DD	0ffffffffH
	DD	00H
	DD	0ffffffffH
	DD	00H
	DD	0ffffffffH
	DD	00H
	DD	0ffffffffH
	DD	00H
	DD	0ffffffffH
	DD	00H
	DD	0ffffffffH
	DD	00H
	DD	0ffffffffH
	DD	00H
	DD	0ffffffffH
	DD	imagerel ?dtor$35@?0??test_string_gsl_copy@@YAXXZ@4HA
xdata	ENDS
;	COMDAT CONST
CONST	SEGMENT
$cppxdata$?test_string_gsl_copy@@YAXXZ DD 019930522H
	DD	0dH
	DD	imagerel $stateUnwindMap$?test_string_gsl_copy@@YAXXZ
	DD	00H
	DD	00H
	DD	05H
	DD	imagerel $ip2state$?test_string_gsl_copy@@YAXXZ
	DD	050H
	DD	00H
	DD	01H
CONST	ENDS
;	COMDAT xdata
xdata	SEGMENT
$unwind$?test_string_gsl_copy@@YAXXZ DD 022219H
	DD	0130107H
	DD	imagerel __GSHandlerCheck_EH
	DD	imagerel $cppxdata$?test_string_gsl_copy@@YAXXZ
	DD	082H
xdata	ENDS
;	COMDAT xdata
xdata	SEGMENT
$ip2state$??$copy@V?$span_iterator@V?$span@$$CBD$0?0@gsl@@$0A@@details@gsl@@V?$span_iterator@V?$span@E$0?0@gsl@@$0A@@23@@std@@YA?AV?$span_iterator@V?$span@E$0?0@gsl@@$0A@@details@gsl@@V?$span_iterator@V?$span@$$CBD$0?0@gsl@@$0A@@23@0V123@@Z DD imagerel ??$copy@V?$span_iterator@V?$span@$$CBD$0?0@gsl@@$0A@@details@gsl@@V?$span_iterator@V?$span@E$0?0@gsl@@$0A@@23@@std@@YA?AV?$span_iterator@V?$span@E$0?0@gsl@@$0A@@details@gsl@@V?$span_iterator@V?$span@$$CBD$0?0@gsl@@$0A@@23@0V123@@Z+225
	DD	00H
xdata	ENDS
;	COMDAT xdata
xdata	SEGMENT
$stateUnwindMap$??$copy@V?$span_iterator@V?$span@$$CBD$0?0@gsl@@$0A@@details@gsl@@V?$span_iterator@V?$span@E$0?0@gsl@@$0A@@23@@std@@YA?AV?$span_iterator@V?$span@E$0?0@gsl@@$0A@@details@gsl@@V?$span_iterator@V?$span@$$CBD$0?0@gsl@@$0A@@23@0V123@@Z DD 0ffffffffH
	DD	imagerel __std_terminate
xdata	ENDS
;	COMDAT CONST
CONST	SEGMENT
$cppxdata$??$copy@V?$span_iterator@V?$span@$$CBD$0?0@gsl@@$0A@@details@gsl@@V?$span_iterator@V?$span@E$0?0@gsl@@$0A@@23@@std@@YA?AV?$span_iterator@V?$span@E$0?0@gsl@@$0A@@details@gsl@@V?$span_iterator@V?$span@$$CBD$0?0@gsl@@$0A@@23@0V123@@Z DD 019930522H
	DD	01H
	DD	imagerel $stateUnwindMap$??$copy@V?$span_iterator@V?$span@$$CBD$0?0@gsl@@$0A@@details@gsl@@V?$span_iterator@V?$span@E$0?0@gsl@@$0A@@23@@std@@YA?AV?$span_iterator@V?$span@E$0?0@gsl@@$0A@@details@gsl@@V?$span_iterator@V?$span@$$CBD$0?0@gsl@@$0A@@23@0V123@@Z
	DD	00H
	DD	00H
	DD	01H
	DD	imagerel $ip2state$??$copy@V?$span_iterator@V?$span@$$CBD$0?0@gsl@@$0A@@details@gsl@@V?$span_iterator@V?$span@E$0?0@gsl@@$0A@@23@@std@@YA?AV?$span_iterator@V?$span@E$0?0@gsl@@$0A@@details@gsl@@V?$span_iterator@V?$span@$$CBD$0?0@gsl@@$0A@@23@0V123@@Z
	DD	020H
	DD	00H
	DD	01H
CONST	ENDS
;	COMDAT xdata
xdata	SEGMENT
$unwind$??$copy@V?$span_iterator@V?$span@$$CBD$0?0@gsl@@$0A@@details@gsl@@V?$span_iterator@V?$span@E$0?0@gsl@@$0A@@23@@std@@YA?AV?$span_iterator@V?$span@E$0?0@gsl@@$0A@@details@gsl@@V?$span_iterator@V?$span@$$CBD$0?0@gsl@@$0A@@23@0V123@@Z DD 0a2111H
	DD	0117421H
	DD	010641dH
	DD	0f5419H
	DD	0e3415H
	DD	0e005b209H
	DD	imagerel __CxxFrameHandler3
	DD	imagerel $cppxdata$??$copy@V?$span_iterator@V?$span@$$CBD$0?0@gsl@@$0A@@details@gsl@@V?$span_iterator@V?$span@E$0?0@gsl@@$0A@@23@@std@@YA?AV?$span_iterator@V?$span@E$0?0@gsl@@$0A@@details@gsl@@V?$span_iterator@V?$span@$$CBD$0?0@gsl@@$0A@@23@0V123@@Z
xdata	ENDS
;	COMDAT xdata
xdata	SEGMENT
$ip2state$?_Verify_offset@?$span_iterator@V?$span@E$0?0@gsl@@$0A@@details@gsl@@QEBAX_J@Z DD imagerel ?_Verify_offset@?$span_iterator@V?$span@E$0?0@gsl@@$0A@@details@gsl@@QEBAX_J@Z+56
	DD	0ffffffffH
xdata	ENDS
;	COMDAT CONST
CONST	SEGMENT
$cppxdata$?_Verify_offset@?$span_iterator@V?$span@E$0?0@gsl@@$0A@@details@gsl@@QEBAX_J@Z DD 019930522H
	DD	00H
	DD	00H
	DD	00H
	DD	00H
	DD	01H
	DD	imagerel $ip2state$?_Verify_offset@?$span_iterator@V?$span@E$0?0@gsl@@$0A@@details@gsl@@QEBAX_J@Z
	DD	020H
	DD	00H
	DD	05H
CONST	ENDS
;	COMDAT xdata
xdata	SEGMENT
$unwind$?_Verify_offset@?$span_iterator@V?$span@E$0?0@gsl@@$0A@@details@gsl@@QEBAX_J@Z DD 010d19H
	DD	08204H
	DD	imagerel __CxxFrameHandler3
	DD	imagerel $cppxdata$?_Verify_offset@?$span_iterator@V?$span@E$0?0@gsl@@$0A@@details@gsl@@QEBAX_J@Z
xdata	ENDS
;	COMDAT xdata
xdata	SEGMENT
$ip2state$?_Verify_range@details@gsl@@YAXV?$span_iterator@V?$span@$$CBD$0?0@gsl@@$0A@@12@0@Z DD imagerel ?_Verify_range@details@gsl@@YAXV?$span_iterator@V?$span@$$CBD$0?0@gsl@@$0A@@12@0@Z+57
	DD	0ffffffffH
xdata	ENDS
;	COMDAT CONST
CONST	SEGMENT
$cppxdata$?_Verify_range@details@gsl@@YAXV?$span_iterator@V?$span@$$CBD$0?0@gsl@@$0A@@12@0@Z DD 019930522H
	DD	00H
	DD	00H
	DD	00H
	DD	00H
	DD	01H
	DD	imagerel $ip2state$?_Verify_range@details@gsl@@YAXV?$span_iterator@V?$span@$$CBD$0?0@gsl@@$0A@@12@0@Z
	DD	020H
	DD	00H
	DD	05H
CONST	ENDS
;	COMDAT xdata
xdata	SEGMENT
$unwind$?_Verify_range@details@gsl@@YAXV?$span_iterator@V?$span@$$CBD$0?0@gsl@@$0A@@12@0@Z DD 010d19H
	DD	08204H
	DD	imagerel __CxxFrameHandler3
	DD	imagerel $cppxdata$?_Verify_range@details@gsl@@YAXV?$span_iterator@V?$span@$$CBD$0?0@gsl@@$0A@@12@0@Z
xdata	ENDS
;	COMDAT xdata
xdata	SEGMENT
$unwind$?dtor$2@?0???$ensure_z@$$CBD$0L@@gsl@@YA?AV?$span@$$CBD$0?0@0@AEAY0L@$$CBD@Z@4HA DD 020601H
	DD	050023206H
xdata	ENDS
;	COMDAT xdata
xdata	SEGMENT
$unwind$?dtor$0@?0???$ensure_z@$$CBD$0L@@gsl@@YA?AV?$span@$$CBD$0?0@0@AEAY0L@$$CBD@Z@4HA DD 020601H
	DD	050023206H
xdata	ENDS
;	COMDAT xdata
xdata	SEGMENT
$ip2state$??$ensure_z@$$CBD$0L@@gsl@@YA?AV?$span@$$CBD$0?0@0@AEAY0L@$$CBD@Z DD imagerel ??$ensure_z@$$CBD$0L@@gsl@@YA?AV?$span@$$CBD$0?0@0@AEAY0L@$$CBD@Z+64
	DD	0ffffffffH
	DD	imagerel ??$ensure_z@$$CBD$0L@@gsl@@YA?AV?$span@$$CBD$0?0@0@AEAY0L@$$CBD@Z+107
	DD	02H
	DD	imagerel ??$ensure_z@$$CBD$0L@@gsl@@YA?AV?$span@$$CBD$0?0@0@AEAY0L@$$CBD@Z+142
	DD	00H
xdata	ENDS
;	COMDAT xdata
xdata	SEGMENT
$stateUnwindMap$??$ensure_z@$$CBD$0L@@gsl@@YA?AV?$span@$$CBD$0?0@0@AEAY0L@$$CBD@Z DD 0ffffffffH
	DD	imagerel ?dtor$0@?0???$ensure_z@$$CBD$0L@@gsl@@YA?AV?$span@$$CBD$0?0@0@AEAY0L@$$CBD@Z@4HA
	DD	0ffffffffH
	DD	00H
	DD	0ffffffffH
	DD	imagerel ?dtor$2@?0???$ensure_z@$$CBD$0L@@gsl@@YA?AV?$span@$$CBD$0?0@0@AEAY0L@$$CBD@Z@4HA
xdata	ENDS
;	COMDAT CONST
CONST	SEGMENT
$cppxdata$??$ensure_z@$$CBD$0L@@gsl@@YA?AV?$span@$$CBD$0?0@0@AEAY0L@$$CBD@Z DD 019930522H
	DD	03H
	DD	imagerel $stateUnwindMap$??$ensure_z@$$CBD$0L@@gsl@@YA?AV?$span@$$CBD$0?0@0@AEAY0L@$$CBD@Z
	DD	00H
	DD	00H
	DD	03H
	DD	imagerel $ip2state$??$ensure_z@$$CBD$0L@@gsl@@YA?AV?$span@$$CBD$0?0@0@AEAY0L@$$CBD@Z
	DD	020H
	DD	00H
	DD	01H
CONST	ENDS
;	COMDAT xdata
xdata	SEGMENT
$unwind$??$ensure_z@$$CBD$0L@@gsl@@YA?AV?$span@$$CBD$0?0@0@AEAY0L@$$CBD@Z DD 020f11H
	DD	030027206H
	DD	imagerel __CxxFrameHandler3
	DD	imagerel $cppxdata$??$ensure_z@$$CBD$0L@@gsl@@YA?AV?$span@$$CBD$0?0@0@AEAY0L@$$CBD@Z
xdata	ENDS
;	COMDAT xdata
xdata	SEGMENT
$unwind$?dtor$1@?0???0?$span@$$CBD$0?0@gsl@@QEAA@PEBD_J@Z@4HA DD 020601H
	DD	050023206H
xdata	ENDS
;	COMDAT xdata
xdata	SEGMENT
$unwind$?dtor$2@?0???0?$span@$$CBD$0?0@gsl@@QEAA@PEBD_J@Z@4HA DD 020601H
	DD	050023206H
xdata	ENDS
;	COMDAT xdata
xdata	SEGMENT
$ip2state$??0?$span@$$CBD$0?0@gsl@@QEAA@PEBD_J@Z DD imagerel ??0?$span@$$CBD$0?0@gsl@@QEAA@PEBD_J@Z+80
	DD	02H
	DD	imagerel ??0?$span@$$CBD$0?0@gsl@@QEAA@PEBD_J@Z+115
	DD	00H
xdata	ENDS
;	COMDAT xdata
xdata	SEGMENT
$stateUnwindMap$??0?$span@$$CBD$0?0@gsl@@QEAA@PEBD_J@Z DD 0ffffffffH
	DD	imagerel ?dtor$2@?0???0?$span@$$CBD$0?0@gsl@@QEAA@PEBD_J@Z@4HA
	DD	0ffffffffH
	DD	00H
	DD	0ffffffffH
	DD	imagerel ?dtor$1@?0???0?$span@$$CBD$0?0@gsl@@QEAA@PEBD_J@Z@4HA
xdata	ENDS
;	COMDAT CONST
CONST	SEGMENT
$cppxdata$??0?$span@$$CBD$0?0@gsl@@QEAA@PEBD_J@Z DD 019930522H
	DD	03H
	DD	imagerel $stateUnwindMap$??0?$span@$$CBD$0?0@gsl@@QEAA@PEBD_J@Z
	DD	00H
	DD	00H
	DD	02H
	DD	imagerel $ip2state$??0?$span@$$CBD$0?0@gsl@@QEAA@PEBD_J@Z
	DD	020H
	DD	00H
	DD	01H
CONST	ENDS
;	COMDAT xdata
xdata	SEGMENT
$unwind$??0?$span@$$CBD$0?0@gsl@@QEAA@PEBD_J@Z DD 010d11H
	DD	08204H
	DD	imagerel __CxxFrameHandler3
	DD	imagerel $cppxdata$??0?$span@$$CBD$0?0@gsl@@QEAA@PEBD_J@Z
xdata	ENDS
;	COMDAT CONST
CONST	SEGMENT
$cppxdata$??$?0$09@?$span@E$0?0@gsl@@QEAA@AEAY09E@Z DD 019930522H
	DD	00H
	DD	00H
	DD	00H
	DD	00H
	DD	2 DUP(00H)
	DD	00H
	DD	00H
	DD	05H
CONST	ENDS
;	COMDAT xdata
xdata	SEGMENT
$unwind$??$?0$09@?$span@E$0?0@gsl@@QEAA@AEAY09E@Z DD 010c19H
	DD	02204H
	DD	imagerel __CxxFrameHandler3
	DD	imagerel $cppxdata$??$?0$09@?$span@E$0?0@gsl@@QEAA@AEAY09E@Z
xdata	ENDS
;	COMDAT xdata
xdata	SEGMENT
$unwind$?dtor$15@?0??test_string_std_copy@@YAXXZ@4HA DD 020601H
	DD	050023206H
xdata	ENDS
;	COMDAT xdata
xdata	SEGMENT
$unwind$?dtor$6@?0??test_string_std_copy@@YAXXZ@4HA DD 020601H
	DD	050023206H
xdata	ENDS
;	COMDAT xdata
xdata	SEGMENT
$ip2state$?test_string_std_copy@@YAXXZ DD imagerel ?test_string_std_copy@@YAXXZ+187
	DD	0ffffffffH
	DD	imagerel ?test_string_std_copy@@YAXXZ+216
	DD	00H
	DD	imagerel ?test_string_std_copy@@YAXXZ+242
	DD	0ffffffffH
	DD	imagerel ?test_string_std_copy@@YAXXZ+274
	DD	04H
	DD	imagerel ?test_string_std_copy@@YAXXZ+309
	DD	03H
xdata	ENDS
;	COMDAT xdata
xdata	SEGMENT
$stateUnwindMap$?test_string_std_copy@@YAXXZ DD 0ffffffffH
	DD	imagerel __std_terminate
	DD	0ffffffffH
	DD	00H
	DD	0ffffffffH
	DD	00H
	DD	0ffffffffH
	DD	imagerel ?dtor$6@?0??test_string_std_copy@@YAXXZ@4HA
	DD	0ffffffffH
	DD	imagerel ?dtor$15@?0??test_string_std_copy@@YAXXZ@4HA
	DD	0ffffffffH
	DD	00H
	DD	0ffffffffH
	DD	00H
xdata	ENDS
;	COMDAT CONST
CONST	SEGMENT
$cppxdata$?test_string_std_copy@@YAXXZ DD 019930522H
	DD	07H
	DD	imagerel $stateUnwindMap$?test_string_std_copy@@YAXXZ
	DD	00H
	DD	00H
	DD	05H
	DD	imagerel $ip2state$?test_string_std_copy@@YAXXZ
	DD	060H
	DD	00H
	DD	01H
CONST	ENDS
;	COMDAT xdata
xdata	SEGMENT
$unwind$?test_string_std_copy@@YAXXZ DD 022219H
	DD	0190107H
	DD	imagerel __GSHandlerCheck_EH
	DD	imagerel $cppxdata$?test_string_std_copy@@YAXXZ
	DD	0b2H
xdata	ENDS
;	COMDAT xdata
xdata	SEGMENT
$unwind$?dtor$0@?0???$copy@H$0?0H$0?0@gsl@@YAXV?$span@H$0?0@0@0@Z@4HA DD 020601H
	DD	050023206H
xdata	ENDS
;	COMDAT xdata
xdata	SEGMENT
$ip2state$??$copy@H$0?0H$0?0@gsl@@YAXV?$span@H$0?0@0@0@Z DD imagerel ??$copy@H$0?0H$0?0@gsl@@YAXV?$span@H$0?0@0@0@Z+96
	DD	00H
xdata	ENDS
;	COMDAT xdata
xdata	SEGMENT
$stateUnwindMap$??$copy@H$0?0H$0?0@gsl@@YAXV?$span@H$0?0@0@0@Z DD 0ffffffffH
	DD	imagerel ?dtor$0@?0???$copy@H$0?0H$0?0@gsl@@YAXV?$span@H$0?0@0@0@Z@4HA
xdata	ENDS
;	COMDAT CONST
CONST	SEGMENT
$cppxdata$??$copy@H$0?0H$0?0@gsl@@YAXV?$span@H$0?0@0@0@Z DD 019930522H
	DD	01H
	DD	imagerel $stateUnwindMap$??$copy@H$0?0H$0?0@gsl@@YAXV?$span@H$0?0@0@0@Z
	DD	00H
	DD	00H
	DD	01H
	DD	imagerel $ip2state$??$copy@H$0?0H$0?0@gsl@@YAXV?$span@H$0?0@0@0@Z
	DD	020H
	DD	00H
	DD	01H
CONST	ENDS
;	COMDAT xdata
xdata	SEGMENT
$unwind$??$copy@H$0?0H$0?0@gsl@@YAXV?$span@H$0?0@0@0@Z DD 010d11H
	DD	08204H
	DD	imagerel __CxxFrameHandler3
	DD	imagerel $cppxdata$??$copy@H$0?0H$0?0@gsl@@YAXV?$span@H$0?0@0@0@Z
xdata	ENDS
;	COMDAT xdata
xdata	SEGMENT
$unwind$?dtor$0@?0??gsl_copy_span@@YAXV?$span@H$0?0@gsl@@0@Z@4HA DD 020601H
	DD	050023206H
xdata	ENDS
;	COMDAT xdata
xdata	SEGMENT
$ip2state$?gsl_copy_span@@YAXV?$span@H$0?0@gsl@@0@Z DD imagerel ?gsl_copy_span@@YAXV?$span@H$0?0@gsl@@0@Z+118
	DD	00H
xdata	ENDS
;	COMDAT xdata
xdata	SEGMENT
$stateUnwindMap$?gsl_copy_span@@YAXV?$span@H$0?0@gsl@@0@Z DD 0ffffffffH
	DD	imagerel ?dtor$0@?0??gsl_copy_span@@YAXV?$span@H$0?0@gsl@@0@Z@4HA
xdata	ENDS
;	COMDAT CONST
CONST	SEGMENT
$cppxdata$?gsl_copy_span@@YAXV?$span@H$0?0@gsl@@0@Z DD 019930522H
	DD	01H
	DD	imagerel $stateUnwindMap$?gsl_copy_span@@YAXV?$span@H$0?0@gsl@@0@Z
	DD	00H
	DD	00H
	DD	01H
	DD	imagerel $ip2state$?gsl_copy_span@@YAXV?$span@H$0?0@gsl@@0@Z
	DD	020H
	DD	00H
	DD	01H
CONST	ENDS
;	COMDAT xdata
xdata	SEGMENT
$unwind$?gsl_copy_span@@YAXV?$span@H$0?0@gsl@@0@Z DD 010d11H
	DD	0c204H
	DD	imagerel __CxxFrameHandler3
	DD	imagerel $cppxdata$?gsl_copy_span@@YAXV?$span@H$0?0@gsl@@0@Z
xdata	ENDS
;	COMDAT xdata
xdata	SEGMENT
$ip2state$??$copy@V?$span_iterator@V?$span@H$0?0@gsl@@$0A@@details@gsl@@V123@@std@@YA?AV?$span_iterator@V?$span@H$0?0@gsl@@$0A@@details@gsl@@V123@00@Z DD imagerel ??$copy@V?$span_iterator@V?$span@H$0?0@gsl@@$0A@@details@gsl@@V123@@std@@YA?AV?$span_iterator@V?$span@H$0?0@gsl@@$0A@@details@gsl@@V123@00@Z+241
	DD	00H
xdata	ENDS
;	COMDAT xdata
xdata	SEGMENT
$stateUnwindMap$??$copy@V?$span_iterator@V?$span@H$0?0@gsl@@$0A@@details@gsl@@V123@@std@@YA?AV?$span_iterator@V?$span@H$0?0@gsl@@$0A@@details@gsl@@V123@00@Z DD 0ffffffffH
	DD	imagerel __std_terminate
xdata	ENDS
;	COMDAT CONST
CONST	SEGMENT
$cppxdata$??$copy@V?$span_iterator@V?$span@H$0?0@gsl@@$0A@@details@gsl@@V123@@std@@YA?AV?$span_iterator@V?$span@H$0?0@gsl@@$0A@@details@gsl@@V123@00@Z DD 019930522H
	DD	01H
	DD	imagerel $stateUnwindMap$??$copy@V?$span_iterator@V?$span@H$0?0@gsl@@$0A@@details@gsl@@V123@@std@@YA?AV?$span_iterator@V?$span@H$0?0@gsl@@$0A@@details@gsl@@V123@00@Z
	DD	00H
	DD	00H
	DD	01H
	DD	imagerel $ip2state$??$copy@V?$span_iterator@V?$span@H$0?0@gsl@@$0A@@details@gsl@@V123@@std@@YA?AV?$span_iterator@V?$span@H$0?0@gsl@@$0A@@details@gsl@@V123@00@Z
	DD	020H
	DD	00H
	DD	01H
CONST	ENDS
;	COMDAT xdata
xdata	SEGMENT
$unwind$??$copy@V?$span_iterator@V?$span@H$0?0@gsl@@$0A@@details@gsl@@V123@@std@@YA?AV?$span_iterator@V?$span@H$0?0@gsl@@$0A@@details@gsl@@V123@00@Z DD 0a2111H
	DD	0117421H
	DD	010641dH
	DD	0f5419H
	DD	0e3415H
	DD	0e005b209H
	DD	imagerel __CxxFrameHandler3
	DD	imagerel $cppxdata$??$copy@V?$span_iterator@V?$span@H$0?0@gsl@@$0A@@details@gsl@@V123@@std@@YA?AV?$span_iterator@V?$span@H$0?0@gsl@@$0A@@details@gsl@@V123@00@Z
xdata	ENDS
;	COMDAT xdata
xdata	SEGMENT
$ip2state$?copy_span@@YAXV?$span@H$0?0@gsl@@0@Z DD imagerel ?copy_span@@YAXV?$span@H$0?0@gsl@@0@Z+75
	DD	00H
xdata	ENDS
;	COMDAT xdata
xdata	SEGMENT
$stateUnwindMap$?copy_span@@YAXV?$span@H$0?0@gsl@@0@Z DD 0ffffffffH
	DD	imagerel __std_terminate
xdata	ENDS
;	COMDAT CONST
CONST	SEGMENT
$cppxdata$?copy_span@@YAXV?$span@H$0?0@gsl@@0@Z DD 019930522H
	DD	01H
	DD	imagerel $stateUnwindMap$?copy_span@@YAXV?$span@H$0?0@gsl@@0@Z
	DD	00H
	DD	00H
	DD	01H
	DD	imagerel $ip2state$?copy_span@@YAXV?$span@H$0?0@gsl@@0@Z
	DD	020H
	DD	00H
	DD	01H
CONST	ENDS
;	COMDAT xdata
xdata	SEGMENT
$unwind$?copy_span@@YAXV?$span@H$0?0@gsl@@0@Z DD 010d11H
	DD	08204H
	DD	imagerel __CxxFrameHandler3
	DD	imagerel $cppxdata$?copy_span@@YAXV?$span@H$0?0@gsl@@0@Z
xdata	ENDS
;	COMDAT xdata
xdata	SEGMENT
$unwind$?doterminate@@YAXXZ DD 010401H
	DD	04204H
xdata	ENDS
;	COMDAT xdata
xdata	SEGMENT
$unwind$?dtor$10@?0??mysubspan9@@YA?AV?$span@H$0?0@gsl@@PEAH_J1@Z@4HA DD 020601H
	DD	050023206H
xdata	ENDS
;	COMDAT xdata
xdata	SEGMENT
$unwind$?dtor$9@?0??mysubspan9@@YA?AV?$span@H$0?0@gsl@@PEAH_J1@Z@4HA DD 020601H
	DD	050023206H
xdata	ENDS
;	COMDAT xdata
xdata	SEGMENT
$unwind$?dtor$2@?0??mysubspan9@@YA?AV?$span@H$0?0@gsl@@PEAH_J1@Z@4HA DD 020601H
	DD	050023206H
xdata	ENDS
;	COMDAT xdata
xdata	SEGMENT
$ip2state$?mysubspan9@@YA?AV?$span@H$0?0@gsl@@PEAH_J1@Z DD imagerel ?mysubspan9@@YA?AV?$span@H$0?0@gsl@@PEAH_J1@Z+60
	DD	0ffffffffH
	DD	imagerel ?mysubspan9@@YA?AV?$span@H$0?0@gsl@@PEAH_J1@Z+105
	DD	05H
	DD	imagerel ?mysubspan9@@YA?AV?$span@H$0?0@gsl@@PEAH_J1@Z+150
	DD	00H
	DD	imagerel ?mysubspan9@@YA?AV?$span@H$0?0@gsl@@PEAH_J1@Z+185
	DD	04H
	DD	imagerel ?mysubspan9@@YA?AV?$span@H$0?0@gsl@@PEAH_J1@Z+220
	DD	03H
xdata	ENDS
;	COMDAT xdata
xdata	SEGMENT
$stateUnwindMap$?mysubspan9@@YA?AV?$span@H$0?0@gsl@@PEAH_J1@Z DD 0ffffffffH
	DD	imagerel ?dtor$2@?0??mysubspan9@@YA?AV?$span@H$0?0@gsl@@PEAH_J1@Z@4HA
	DD	0ffffffffH
	DD	00H
	DD	0ffffffffH
	DD	00H
	DD	0ffffffffH
	DD	imagerel ?dtor$9@?0??mysubspan9@@YA?AV?$span@H$0?0@gsl@@PEAH_J1@Z@4HA
	DD	0ffffffffH
	DD	imagerel ?dtor$10@?0??mysubspan9@@YA?AV?$span@H$0?0@gsl@@PEAH_J1@Z@4HA
	DD	0ffffffffH
	DD	imagerel __std_terminate
xdata	ENDS
;	COMDAT CONST
CONST	SEGMENT
$cppxdata$?mysubspan9@@YA?AV?$span@H$0?0@gsl@@PEAH_J1@Z DD 019930522H
	DD	06H
	DD	imagerel $stateUnwindMap$?mysubspan9@@YA?AV?$span@H$0?0@gsl@@PEAH_J1@Z
	DD	00H
	DD	00H
	DD	05H
	DD	imagerel $ip2state$?mysubspan9@@YA?AV?$span@H$0?0@gsl@@PEAH_J1@Z
	DD	020H
	DD	00H
	DD	01H
CONST	ENDS
;	COMDAT xdata
xdata	SEGMENT
$unwind$?mysubspan9@@YA?AV?$span@H$0?0@gsl@@PEAH_J1@Z DD 020f11H
	DD	030027206H
	DD	imagerel __CxxFrameHandler3
	DD	imagerel $cppxdata$?mysubspan9@@YA?AV?$span@H$0?0@gsl@@PEAH_J1@Z
xdata	ENDS
;	COMDAT xdata
xdata	SEGMENT
$unwind$?dtor$2@?0??mysubspan8@@YA?AV?$span@H$0?0@gsl@@PEAH_J1@Z@4HA DD 020601H
	DD	050023206H
xdata	ENDS
;	COMDAT xdata
xdata	SEGMENT
$ip2state$?mysubspan8@@YA?AV?$span@H$0?0@gsl@@PEAH_J1@Z DD imagerel ?mysubspan8@@YA?AV?$span@H$0?0@gsl@@PEAH_J1@Z+68
	DD	0ffffffffH
	DD	imagerel ?mysubspan8@@YA?AV?$span@H$0?0@gsl@@PEAH_J1@Z+127
	DD	00H
xdata	ENDS
;	COMDAT xdata
xdata	SEGMENT
$stateUnwindMap$?mysubspan8@@YA?AV?$span@H$0?0@gsl@@PEAH_J1@Z DD 0ffffffffH
	DD	imagerel ?dtor$2@?0??mysubspan8@@YA?AV?$span@H$0?0@gsl@@PEAH_J1@Z@4HA
	DD	0ffffffffH
	DD	00H
	DD	0ffffffffH
	DD	00H
	DD	0ffffffffH
	DD	imagerel __std_terminate
xdata	ENDS
;	COMDAT CONST
CONST	SEGMENT
$cppxdata$?mysubspan8@@YA?AV?$span@H$0?0@gsl@@PEAH_J1@Z DD 019930522H
	DD	04H
	DD	imagerel $stateUnwindMap$?mysubspan8@@YA?AV?$span@H$0?0@gsl@@PEAH_J1@Z
	DD	00H
	DD	00H
	DD	02H
	DD	imagerel $ip2state$?mysubspan8@@YA?AV?$span@H$0?0@gsl@@PEAH_J1@Z
	DD	030H
	DD	00H
	DD	01H
CONST	ENDS
;	COMDAT xdata
xdata	SEGMENT
$unwind$?mysubspan8@@YA?AV?$span@H$0?0@gsl@@PEAH_J1@Z DD 020f11H
	DD	030029206H
	DD	imagerel __CxxFrameHandler3
	DD	imagerel $cppxdata$?mysubspan8@@YA?AV?$span@H$0?0@gsl@@PEAH_J1@Z
xdata	ENDS
;	COMDAT xdata
xdata	SEGMENT
$unwind$?dtor$10@?0??mysubspan7@@YA?AV?$span@H$0?0@gsl@@PEAH_J1@Z@4HA DD 020601H
	DD	050023206H
xdata	ENDS
;	COMDAT xdata
xdata	SEGMENT
$unwind$?dtor$9@?0??mysubspan7@@YA?AV?$span@H$0?0@gsl@@PEAH_J1@Z@4HA DD 020601H
	DD	050023206H
xdata	ENDS
;	COMDAT xdata
xdata	SEGMENT
$unwind$?dtor$2@?0??mysubspan7@@YA?AV?$span@H$0?0@gsl@@PEAH_J1@Z@4HA DD 020601H
	DD	050023206H
xdata	ENDS
;	COMDAT xdata
xdata	SEGMENT
$ip2state$?mysubspan7@@YA?AV?$span@H$0?0@gsl@@PEAH_J1@Z DD imagerel ?mysubspan7@@YA?AV?$span@H$0?0@gsl@@PEAH_J1@Z+112
	DD	00H
	DD	imagerel ?mysubspan7@@YA?AV?$span@H$0?0@gsl@@PEAH_J1@Z+147
	DD	04H
	DD	imagerel ?mysubspan7@@YA?AV?$span@H$0?0@gsl@@PEAH_J1@Z+182
	DD	03H
xdata	ENDS
;	COMDAT xdata
xdata	SEGMENT
$stateUnwindMap$?mysubspan7@@YA?AV?$span@H$0?0@gsl@@PEAH_J1@Z DD 0ffffffffH
	DD	imagerel ?dtor$2@?0??mysubspan7@@YA?AV?$span@H$0?0@gsl@@PEAH_J1@Z@4HA
	DD	0ffffffffH
	DD	00H
	DD	0ffffffffH
	DD	00H
	DD	0ffffffffH
	DD	imagerel ?dtor$9@?0??mysubspan7@@YA?AV?$span@H$0?0@gsl@@PEAH_J1@Z@4HA
	DD	0ffffffffH
	DD	imagerel ?dtor$10@?0??mysubspan7@@YA?AV?$span@H$0?0@gsl@@PEAH_J1@Z@4HA
	DD	0ffffffffH
	DD	00H
	DD	0ffffffffH
	DD	00H
	DD	0ffffffffH
	DD	imagerel __std_terminate
xdata	ENDS
;	COMDAT CONST
CONST	SEGMENT
$cppxdata$?mysubspan7@@YA?AV?$span@H$0?0@gsl@@PEAH_J1@Z DD 019930522H
	DD	08H
	DD	imagerel $stateUnwindMap$?mysubspan7@@YA?AV?$span@H$0?0@gsl@@PEAH_J1@Z
	DD	00H
	DD	00H
	DD	03H
	DD	imagerel $ip2state$?mysubspan7@@YA?AV?$span@H$0?0@gsl@@PEAH_J1@Z
	DD	020H
	DD	00H
	DD	01H
CONST	ENDS
;	COMDAT xdata
xdata	SEGMENT
$unwind$?mysubspan7@@YA?AV?$span@H$0?0@gsl@@PEAH_J1@Z DD 010d11H
	DD	08204H
	DD	imagerel __CxxFrameHandler3
	DD	imagerel $cppxdata$?mysubspan7@@YA?AV?$span@H$0?0@gsl@@PEAH_J1@Z
xdata	ENDS
;	COMDAT xdata
xdata	SEGMENT
$unwind$?dtor$9@?0??mysubspan6@@YA?AV?$span@H$0?0@gsl@@PEAH_J@Z@4HA DD 020601H
	DD	050023206H
xdata	ENDS
;	COMDAT xdata
xdata	SEGMENT
$unwind$?dtor$2@?0??mysubspan6@@YA?AV?$span@H$0?0@gsl@@PEAH_J@Z@4HA DD 020601H
	DD	050023206H
xdata	ENDS
;	COMDAT xdata
xdata	SEGMENT
$ip2state$?mysubspan6@@YA?AV?$span@H$0?0@gsl@@PEAH_J@Z DD imagerel ?mysubspan6@@YA?AV?$span@H$0?0@gsl@@PEAH_J@Z+44
	DD	0ffffffffH
	DD	imagerel ?mysubspan6@@YA?AV?$span@H$0?0@gsl@@PEAH_J@Z+103
	DD	00H
	DD	imagerel ?mysubspan6@@YA?AV?$span@H$0?0@gsl@@PEAH_J@Z+138
	DD	03H
xdata	ENDS
;	COMDAT xdata
xdata	SEGMENT
$stateUnwindMap$?mysubspan6@@YA?AV?$span@H$0?0@gsl@@PEAH_J@Z DD 0ffffffffH
	DD	imagerel ?dtor$2@?0??mysubspan6@@YA?AV?$span@H$0?0@gsl@@PEAH_J@Z@4HA
	DD	0ffffffffH
	DD	00H
	DD	0ffffffffH
	DD	00H
	DD	0ffffffffH
	DD	imagerel ?dtor$9@?0??mysubspan6@@YA?AV?$span@H$0?0@gsl@@PEAH_J@Z@4HA
	DD	0ffffffffH
	DD	00H
	DD	0ffffffffH
	DD	00H
	DD	0ffffffffH
	DD	00H
	DD	0ffffffffH
	DD	imagerel __std_terminate
xdata	ENDS
;	COMDAT CONST
CONST	SEGMENT
$cppxdata$?mysubspan6@@YA?AV?$span@H$0?0@gsl@@PEAH_J@Z DD 019930522H
	DD	08H
	DD	imagerel $stateUnwindMap$?mysubspan6@@YA?AV?$span@H$0?0@gsl@@PEAH_J@Z
	DD	00H
	DD	00H
	DD	03H
	DD	imagerel $ip2state$?mysubspan6@@YA?AV?$span@H$0?0@gsl@@PEAH_J@Z
	DD	020H
	DD	00H
	DD	01H
CONST	ENDS
;	COMDAT xdata
xdata	SEGMENT
$unwind$?mysubspan6@@YA?AV?$span@H$0?0@gsl@@PEAH_J@Z DD 020f11H
	DD	030027206H
	DD	imagerel __CxxFrameHandler3
	DD	imagerel $cppxdata$?mysubspan6@@YA?AV?$span@H$0?0@gsl@@PEAH_J@Z
xdata	ENDS
;	COMDAT xdata
xdata	SEGMENT
$unwind$?dtor$9@?0??mysubspan5@@YA?AV?$span@H$0?0@gsl@@PEAH_J1@Z@4HA DD 020601H
	DD	050023206H
xdata	ENDS
;	COMDAT xdata
xdata	SEGMENT
$unwind$?dtor$2@?0??mysubspan5@@YA?AV?$span@H$0?0@gsl@@PEAH_J1@Z@4HA DD 020601H
	DD	050023206H
xdata	ENDS
;	COMDAT xdata
xdata	SEGMENT
$ip2state$?mysubspan5@@YA?AV?$span@H$0?0@gsl@@PEAH_J1@Z DD imagerel ?mysubspan5@@YA?AV?$span@H$0?0@gsl@@PEAH_J1@Z+48
	DD	0ffffffffH
	DD	imagerel ?mysubspan5@@YA?AV?$span@H$0?0@gsl@@PEAH_J1@Z+107
	DD	00H
	DD	imagerel ?mysubspan5@@YA?AV?$span@H$0?0@gsl@@PEAH_J1@Z+142
	DD	03H
xdata	ENDS
;	COMDAT xdata
xdata	SEGMENT
$stateUnwindMap$?mysubspan5@@YA?AV?$span@H$0?0@gsl@@PEAH_J1@Z DD 0ffffffffH
	DD	imagerel ?dtor$2@?0??mysubspan5@@YA?AV?$span@H$0?0@gsl@@PEAH_J1@Z@4HA
	DD	0ffffffffH
	DD	00H
	DD	0ffffffffH
	DD	00H
	DD	0ffffffffH
	DD	imagerel ?dtor$9@?0??mysubspan5@@YA?AV?$span@H$0?0@gsl@@PEAH_J1@Z@4HA
	DD	0ffffffffH
	DD	00H
	DD	0ffffffffH
	DD	00H
	DD	0ffffffffH
	DD	00H
	DD	0ffffffffH
	DD	imagerel __std_terminate
xdata	ENDS
;	COMDAT CONST
CONST	SEGMENT
$cppxdata$?mysubspan5@@YA?AV?$span@H$0?0@gsl@@PEAH_J1@Z DD 019930522H
	DD	08H
	DD	imagerel $stateUnwindMap$?mysubspan5@@YA?AV?$span@H$0?0@gsl@@PEAH_J1@Z
	DD	00H
	DD	00H
	DD	03H
	DD	imagerel $ip2state$?mysubspan5@@YA?AV?$span@H$0?0@gsl@@PEAH_J1@Z
	DD	020H
	DD	00H
	DD	01H
CONST	ENDS
;	COMDAT xdata
xdata	SEGMENT
$unwind$?mysubspan5@@YA?AV?$span@H$0?0@gsl@@PEAH_J1@Z DD 020f11H
	DD	030027206H
	DD	imagerel __CxxFrameHandler3
	DD	imagerel $cppxdata$?mysubspan5@@YA?AV?$span@H$0?0@gsl@@PEAH_J1@Z
xdata	ENDS
;	COMDAT CONST
CONST	SEGMENT
$cppxdata$??$?0$0A@X@?$span@H$0?0@gsl@@QEAA@XZ DD 019930522H
	DD	00H
	DD	00H
	DD	00H
	DD	00H
	DD	2 DUP(00H)
	DD	00H
	DD	00H
	DD	05H
CONST	ENDS
;	COMDAT xdata
xdata	SEGMENT
$unwind$??$?0$0A@X@?$span@H$0?0@gsl@@QEAA@XZ DD 010c19H
	DD	02204H
	DD	imagerel __CxxFrameHandler3
	DD	imagerel $cppxdata$??$?0$0A@X@?$span@H$0?0@gsl@@QEAA@XZ
xdata	ENDS
;	COMDAT xdata
xdata	SEGMENT
$unwind$?dtor$9@?0??mysubspan4@@YA?AV?$span@H$0?0@gsl@@PEAH_J1@Z@4HA DD 020601H
	DD	050023206H
xdata	ENDS
;	COMDAT xdata
xdata	SEGMENT
$unwind$?dtor$2@?0??mysubspan4@@YA?AV?$span@H$0?0@gsl@@PEAH_J1@Z@4HA DD 020601H
	DD	050023206H
xdata	ENDS
;	COMDAT xdata
xdata	SEGMENT
$ip2state$?mysubspan4@@YA?AV?$span@H$0?0@gsl@@PEAH_J1@Z DD imagerel ?mysubspan4@@YA?AV?$span@H$0?0@gsl@@PEAH_J1@Z+51
	DD	0ffffffffH
	DD	imagerel ?mysubspan4@@YA?AV?$span@H$0?0@gsl@@PEAH_J1@Z+110
	DD	00H
	DD	imagerel ?mysubspan4@@YA?AV?$span@H$0?0@gsl@@PEAH_J1@Z+145
	DD	03H
xdata	ENDS
;	COMDAT xdata
xdata	SEGMENT
$stateUnwindMap$?mysubspan4@@YA?AV?$span@H$0?0@gsl@@PEAH_J1@Z DD 0ffffffffH
	DD	imagerel ?dtor$2@?0??mysubspan4@@YA?AV?$span@H$0?0@gsl@@PEAH_J1@Z@4HA
	DD	0ffffffffH
	DD	00H
	DD	0ffffffffH
	DD	00H
	DD	0ffffffffH
	DD	imagerel ?dtor$9@?0??mysubspan4@@YA?AV?$span@H$0?0@gsl@@PEAH_J1@Z@4HA
	DD	0ffffffffH
	DD	00H
	DD	0ffffffffH
	DD	00H
	DD	0ffffffffH
	DD	00H
	DD	0ffffffffH
	DD	imagerel __std_terminate
xdata	ENDS
;	COMDAT CONST
CONST	SEGMENT
$cppxdata$?mysubspan4@@YA?AV?$span@H$0?0@gsl@@PEAH_J1@Z DD 019930522H
	DD	08H
	DD	imagerel $stateUnwindMap$?mysubspan4@@YA?AV?$span@H$0?0@gsl@@PEAH_J1@Z
	DD	00H
	DD	00H
	DD	03H
	DD	imagerel $ip2state$?mysubspan4@@YA?AV?$span@H$0?0@gsl@@PEAH_J1@Z
	DD	020H
	DD	00H
	DD	01H
CONST	ENDS
;	COMDAT xdata
xdata	SEGMENT
$unwind$?mysubspan4@@YA?AV?$span@H$0?0@gsl@@PEAH_J1@Z DD 020f11H
	DD	030027206H
	DD	imagerel __CxxFrameHandler3
	DD	imagerel $cppxdata$?mysubspan4@@YA?AV?$span@H$0?0@gsl@@PEAH_J1@Z
xdata	ENDS
;	COMDAT xdata
xdata	SEGMENT
$stateUnwindMap$?mysubspan3@@YA_JXZ DD 0ffffffffH
	DD	imagerel __std_terminate
	DD	0ffffffffH
	DD	00H
	DD	0ffffffffH
	DD	00H
	DD	0ffffffffH
	DD	00H
	DD	0ffffffffH
	DD	00H
	DD	0ffffffffH
	DD	00H
	DD	0ffffffffH
	DD	00H
	DD	0ffffffffH
	DD	00H
	DD	0ffffffffH
	DD	00H
	DD	0ffffffffH
	DD	00H
xdata	ENDS
;	COMDAT CONST
CONST	SEGMENT
$cppxdata$?mysubspan3@@YA_JXZ DD 019930522H
	DD	0aH
	DD	imagerel $stateUnwindMap$?mysubspan3@@YA_JXZ
	DD	00H
	DD	00H
	DD	2 DUP(00H)
	DD	00H
	DD	00H
	DD	01H
CONST	ENDS
;	COMDAT xdata
xdata	SEGMENT
$unwind$?mysubspan3@@YA_JXZ DD 010c11H
	DD	02204H
	DD	imagerel __CxxFrameHandler3
	DD	imagerel $cppxdata$?mysubspan3@@YA_JXZ
xdata	ENDS
;	COMDAT xdata
xdata	SEGMENT
$unwind$?dtor$13@?0??mysubspan2@@YA_J_J@Z@4HA DD 020601H
	DD	050023206H
xdata	ENDS
;	COMDAT xdata
xdata	SEGMENT
$ip2state$?mysubspan2@@YA_J_J@Z DD imagerel ?mysubspan2@@YA_J_J@Z+92
	DD	0ffffffffH
	DD	imagerel ?mysubspan2@@YA_J_J@Z+131
	DD	04H
xdata	ENDS
;	COMDAT xdata
xdata	SEGMENT
$stateUnwindMap$?mysubspan2@@YA_J_J@Z DD 0ffffffffH
	DD	imagerel __std_terminate
	DD	0ffffffffH
	DD	00H
	DD	0ffffffffH
	DD	00H
	DD	0ffffffffH
	DD	00H
	DD	0ffffffffH
	DD	imagerel ?dtor$13@?0??mysubspan2@@YA_J_J@Z@4HA
	DD	0ffffffffH
	DD	00H
	DD	0ffffffffH
	DD	00H
	DD	0ffffffffH
	DD	00H
	DD	0ffffffffH
	DD	00H
	DD	0ffffffffH
	DD	00H
xdata	ENDS
;	COMDAT CONST
CONST	SEGMENT
$cppxdata$?mysubspan2@@YA_J_J@Z DD 019930522H
	DD	0aH
	DD	imagerel $stateUnwindMap$?mysubspan2@@YA_J_J@Z
	DD	00H
	DD	00H
	DD	02H
	DD	imagerel $ip2state$?mysubspan2@@YA_J_J@Z
	DD	028H
	DD	00H
	DD	01H
CONST	ENDS
;	COMDAT xdata
xdata	SEGMENT
$unwind$?mysubspan2@@YA_J_J@Z DD 011c19H
	DD	0e204H
	DD	imagerel __GSHandlerCheck_EH
	DD	imagerel $cppxdata$?mysubspan2@@YA_J_J@Z
	DD	062H
xdata	ENDS
;	COMDAT CONST
CONST	SEGMENT
$cppxdata$??$?0$05@?$span@H$05@gsl@@QEAA@AEAY05H@Z DD 019930522H
	DD	00H
	DD	00H
	DD	00H
	DD	00H
	DD	2 DUP(00H)
	DD	00H
	DD	00H
	DD	05H
CONST	ENDS
;	COMDAT xdata
xdata	SEGMENT
$unwind$??$?0$05@?$span@H$05@gsl@@QEAA@AEAY05H@Z DD 010c19H
	DD	02204H
	DD	imagerel __CxxFrameHandler3
	DD	imagerel $cppxdata$??$?0$05@?$span@H$05@gsl@@QEAA@AEAY05H@Z
xdata	ENDS
;	COMDAT xdata
xdata	SEGMENT
$unwind$?dtor$0@?0???0?$extent_type@$05@details@gsl@@QEAA@_J@Z@4HA DD 020601H
	DD	050023206H
xdata	ENDS
;	COMDAT xdata
xdata	SEGMENT
$ip2state$??0?$extent_type@$05@details@gsl@@QEAA@_J@Z DD imagerel ??0?$extent_type@$05@details@gsl@@QEAA@_J@Z+64
	DD	00H
xdata	ENDS
;	COMDAT xdata
xdata	SEGMENT
$stateUnwindMap$??0?$extent_type@$05@details@gsl@@QEAA@_J@Z DD 0ffffffffH
	DD	imagerel ?dtor$0@?0???0?$extent_type@$05@details@gsl@@QEAA@_J@Z@4HA
xdata	ENDS
;	COMDAT CONST
CONST	SEGMENT
$cppxdata$??0?$extent_type@$05@details@gsl@@QEAA@_J@Z DD 019930522H
	DD	01H
	DD	imagerel $stateUnwindMap$??0?$extent_type@$05@details@gsl@@QEAA@_J@Z
	DD	00H
	DD	00H
	DD	01H
	DD	imagerel $ip2state$??0?$extent_type@$05@details@gsl@@QEAA@_J@Z
	DD	020H
	DD	00H
	DD	01H
CONST	ENDS
;	COMDAT xdata
xdata	SEGMENT
$unwind$??0?$extent_type@$05@details@gsl@@QEAA@_J@Z DD 010d11H
	DD	08204H
	DD	imagerel __CxxFrameHandler3
	DD	imagerel $cppxdata$??0?$extent_type@$05@details@gsl@@QEAA@_J@Z
xdata	ENDS
;	COMDAT xdata
xdata	SEGMENT
$unwind$?dtor$4@?0??subspan@?$span@H$05@gsl@@QEBA?AV?$span@H$0?0@2@_J0@Z@4HA DD 020601H
	DD	050023206H
xdata	ENDS
;	COMDAT xdata
xdata	SEGMENT
$ip2state$?subspan@?$span@H$05@gsl@@QEBA?AV?$span@H$0?0@2@_J0@Z DD imagerel ?subspan@?$span@H$05@gsl@@QEBA?AV?$span@H$0?0@2@_J0@Z+58
	DD	0ffffffffH
	DD	imagerel ?subspan@?$span@H$05@gsl@@QEBA?AV?$span@H$0?0@2@_J0@Z+101
	DD	02H
xdata	ENDS
;	COMDAT xdata
xdata	SEGMENT
$stateUnwindMap$?subspan@?$span@H$05@gsl@@QEBA?AV?$span@H$0?0@2@_J0@Z DD 0ffffffffH
	DD	00H
	DD	0ffffffffH
	DD	00H
	DD	0ffffffffH
	DD	imagerel ?dtor$4@?0??subspan@?$span@H$05@gsl@@QEBA?AV?$span@H$0?0@2@_J0@Z@4HA
xdata	ENDS
;	COMDAT CONST
CONST	SEGMENT
$cppxdata$?subspan@?$span@H$05@gsl@@QEBA?AV?$span@H$0?0@2@_J0@Z DD 019930522H
	DD	03H
	DD	imagerel $stateUnwindMap$?subspan@?$span@H$05@gsl@@QEBA?AV?$span@H$0?0@2@_J0@Z
	DD	00H
	DD	00H
	DD	02H
	DD	imagerel $ip2state$?subspan@?$span@H$05@gsl@@QEBA?AV?$span@H$0?0@2@_J0@Z
	DD	038H
	DD	00H
	DD	01H
CONST	ENDS
;	COMDAT xdata
xdata	SEGMENT
$unwind$?subspan@?$span@H$05@gsl@@QEBA?AV?$span@H$0?0@2@_J0@Z DD 020f11H
	DD	03002b206H
	DD	imagerel __CxxFrameHandler3
	DD	imagerel $cppxdata$?subspan@?$span@H$05@gsl@@QEBA?AV?$span@H$0?0@2@_J0@Z
xdata	ENDS
;	COMDAT xdata
xdata	SEGMENT
$unwind$?dtor$9@?0??last@?$span@H$05@gsl@@QEBA?AV?$span@H$0?0@2@_J@Z@4HA DD 020601H
	DD	050023206H
xdata	ENDS
;	COMDAT xdata
xdata	SEGMENT
$unwind$?dtor$4@?0??last@?$span@H$05@gsl@@QEBA?AV?$span@H$0?0@2@_J@Z@4HA DD 020601H
	DD	050023206H
xdata	ENDS
;	COMDAT xdata
xdata	SEGMENT
$ip2state$?last@?$span@H$05@gsl@@QEBA?AV?$span@H$0?0@2@_J@Z DD imagerel ?last@?$span@H$05@gsl@@QEBA?AV?$span@H$0?0@2@_J@Z+59
	DD	0ffffffffH
	DD	imagerel ?last@?$span@H$05@gsl@@QEBA?AV?$span@H$0?0@2@_J@Z+102
	DD	02H
	DD	imagerel ?last@?$span@H$05@gsl@@QEBA?AV?$span@H$0?0@2@_J@Z+137
	DD	03H
xdata	ENDS
;	COMDAT xdata
xdata	SEGMENT
$stateUnwindMap$?last@?$span@H$05@gsl@@QEBA?AV?$span@H$0?0@2@_J@Z DD 0ffffffffH
	DD	00H
	DD	0ffffffffH
	DD	00H
	DD	0ffffffffH
	DD	imagerel ?dtor$4@?0??last@?$span@H$05@gsl@@QEBA?AV?$span@H$0?0@2@_J@Z@4HA
	DD	0ffffffffH
	DD	imagerel ?dtor$9@?0??last@?$span@H$05@gsl@@QEBA?AV?$span@H$0?0@2@_J@Z@4HA
	DD	0ffffffffH
	DD	00H
	DD	0ffffffffH
	DD	00H
	DD	0ffffffffH
	DD	00H
xdata	ENDS
;	COMDAT CONST
CONST	SEGMENT
$cppxdata$?last@?$span@H$05@gsl@@QEBA?AV?$span@H$0?0@2@_J@Z DD 019930522H
	DD	07H
	DD	imagerel $stateUnwindMap$?last@?$span@H$05@gsl@@QEBA?AV?$span@H$0?0@2@_J@Z
	DD	00H
	DD	00H
	DD	03H
	DD	imagerel $ip2state$?last@?$span@H$05@gsl@@QEBA?AV?$span@H$0?0@2@_J@Z
	DD	020H
	DD	00H
	DD	01H
CONST	ENDS
;	COMDAT xdata
xdata	SEGMENT
$unwind$?last@?$span@H$05@gsl@@QEBA?AV?$span@H$0?0@2@_J@Z DD 020f11H
	DD	030027206H
	DD	imagerel __CxxFrameHandler3
	DD	imagerel $cppxdata$?last@?$span@H$05@gsl@@QEBA?AV?$span@H$0?0@2@_J@Z
xdata	ENDS
;	COMDAT xdata
xdata	SEGMENT
$stateUnwindMap$?mysubspan1@@YA_JXZ DD 0ffffffffH
	DD	imagerel __std_terminate
	DD	0ffffffffH
	DD	00H
	DD	0ffffffffH
	DD	00H
	DD	0ffffffffH
	DD	00H
	DD	0ffffffffH
	DD	00H
	DD	0ffffffffH
	DD	00H
	DD	0ffffffffH
	DD	00H
	DD	0ffffffffH
	DD	00H
	DD	0ffffffffH
	DD	00H
	DD	0ffffffffH
	DD	00H
xdata	ENDS
;	COMDAT CONST
CONST	SEGMENT
$cppxdata$?mysubspan1@@YA_JXZ DD 019930522H
	DD	0aH
	DD	imagerel $stateUnwindMap$?mysubspan1@@YA_JXZ
	DD	00H
	DD	00H
	DD	2 DUP(00H)
	DD	00H
	DD	00H
	DD	01H
CONST	ENDS
;	COMDAT xdata
xdata	SEGMENT
$unwind$?mysubspan1@@YA_JXZ DD 010c11H
	DD	02204H
	DD	imagerel __CxxFrameHandler3
	DD	imagerel $cppxdata$?mysubspan1@@YA_JXZ
xdata	ENDS
;	COMDAT xdata
xdata	SEGMENT
$unwind$?dtor$1@?0???$convert_span@EV?$span@G$0?0@gsl@@@@YA?AV?$span@E$0?0@gsl@@V?$span@G$0?0@1@@Z@4HA DD 020601H
	DD	050023206H
xdata	ENDS
;	COMDAT xdata
xdata	SEGMENT
$unwind$?dtor$2@?0???$convert_span@EV?$span@G$0?0@gsl@@@@YA?AV?$span@E$0?0@gsl@@V?$span@G$0?0@1@@Z@4HA DD 020601H
	DD	050023206H
xdata	ENDS
;	COMDAT xdata
xdata	SEGMENT
$ip2state$??$convert_span@EV?$span@G$0?0@gsl@@@@YA?AV?$span@E$0?0@gsl@@V?$span@G$0?0@1@@Z DD imagerel ??$convert_span@EV?$span@G$0?0@gsl@@@@YA?AV?$span@E$0?0@gsl@@V?$span@G$0?0@1@@Z+87
	DD	02H
	DD	imagerel ??$convert_span@EV?$span@G$0?0@gsl@@@@YA?AV?$span@E$0?0@gsl@@V?$span@G$0?0@1@@Z+122
	DD	00H
xdata	ENDS
;	COMDAT xdata
xdata	SEGMENT
$stateUnwindMap$??$convert_span@EV?$span@G$0?0@gsl@@@@YA?AV?$span@E$0?0@gsl@@V?$span@G$0?0@1@@Z DD 0ffffffffH
	DD	imagerel ?dtor$2@?0???$convert_span@EV?$span@G$0?0@gsl@@@@YA?AV?$span@E$0?0@gsl@@V?$span@G$0?0@1@@Z@4HA
	DD	0ffffffffH
	DD	00H
	DD	0ffffffffH
	DD	imagerel ?dtor$1@?0???$convert_span@EV?$span@G$0?0@gsl@@@@YA?AV?$span@E$0?0@gsl@@V?$span@G$0?0@1@@Z@4HA
xdata	ENDS
;	COMDAT CONST
CONST	SEGMENT
$cppxdata$??$convert_span@EV?$span@G$0?0@gsl@@@@YA?AV?$span@E$0?0@gsl@@V?$span@G$0?0@1@@Z DD 019930522H
	DD	03H
	DD	imagerel $stateUnwindMap$??$convert_span@EV?$span@G$0?0@gsl@@@@YA?AV?$span@E$0?0@gsl@@V?$span@G$0?0@1@@Z
	DD	00H
	DD	00H
	DD	02H
	DD	imagerel $ip2state$??$convert_span@EV?$span@G$0?0@gsl@@@@YA?AV?$span@E$0?0@gsl@@V?$span@G$0?0@1@@Z
	DD	020H
	DD	00H
	DD	01H
CONST	ENDS
;	COMDAT xdata
xdata	SEGMENT
$unwind$??$convert_span@EV?$span@G$0?0@gsl@@@@YA?AV?$span@E$0?0@gsl@@V?$span@G$0?0@1@@Z DD 010d11H
	DD	08204H
	DD	imagerel __CxxFrameHandler3
	DD	imagerel $cppxdata$??$convert_span@EV?$span@G$0?0@gsl@@@@YA?AV?$span@E$0?0@gsl@@V?$span@G$0?0@1@@Z
xdata	ENDS
;	COMDAT xdata
xdata	SEGMENT
$unwind$?dtor$9@?0??test_convert_span_Joe@@YAEAEAUIDE_DRIVE_STATE@@@Z@4HA DD 020601H
	DD	050023206H
xdata	ENDS
;	COMDAT xdata
xdata	SEGMENT
$unwind$?dtor$1@?0??test_convert_span_Joe@@YAEAEAUIDE_DRIVE_STATE@@@Z@4HA DD 020601H
	DD	050023206H
xdata	ENDS
;	COMDAT xdata
xdata	SEGMENT
$unwind$?dtor$2@?0??test_convert_span_Joe@@YAEAEAUIDE_DRIVE_STATE@@@Z@4HA DD 020601H
	DD	050023206H
xdata	ENDS
;	COMDAT xdata
xdata	SEGMENT
$ip2state$?test_convert_span_Joe@@YAEAEAUIDE_DRIVE_STATE@@@Z DD imagerel ?test_convert_span_Joe@@YAEAEAUIDE_DRIVE_STATE@@@Z+101
	DD	03H
	DD	imagerel ?test_convert_span_Joe@@YAEAEAUIDE_DRIVE_STATE@@@Z+136
	DD	00H
	DD	imagerel ?test_convert_span_Joe@@YAEAEAUIDE_DRIVE_STATE@@@Z+171
	DD	02H
xdata	ENDS
;	COMDAT xdata
xdata	SEGMENT
$stateUnwindMap$?test_convert_span_Joe@@YAEAEAUIDE_DRIVE_STATE@@@Z DD 0ffffffffH
	DD	imagerel ?dtor$2@?0??test_convert_span_Joe@@YAEAEAUIDE_DRIVE_STATE@@@Z@4HA
	DD	0ffffffffH
	DD	00H
	DD	0ffffffffH
	DD	imagerel ?dtor$1@?0??test_convert_span_Joe@@YAEAEAUIDE_DRIVE_STATE@@@Z@4HA
	DD	0ffffffffH
	DD	imagerel ?dtor$9@?0??test_convert_span_Joe@@YAEAEAUIDE_DRIVE_STATE@@@Z@4HA
xdata	ENDS
;	COMDAT CONST
CONST	SEGMENT
$cppxdata$?test_convert_span_Joe@@YAEAEAUIDE_DRIVE_STATE@@@Z DD 019930522H
	DD	04H
	DD	imagerel $stateUnwindMap$?test_convert_span_Joe@@YAEAEAUIDE_DRIVE_STATE@@@Z
	DD	00H
	DD	00H
	DD	03H
	DD	imagerel $ip2state$?test_convert_span_Joe@@YAEAEAUIDE_DRIVE_STATE@@@Z
	DD	020H
	DD	00H
	DD	01H
CONST	ENDS
;	COMDAT xdata
xdata	SEGMENT
$unwind$?test_convert_span_Joe@@YAEAEAUIDE_DRIVE_STATE@@@Z DD 010d11H
	DD	0a204H
	DD	imagerel __CxxFrameHandler3
	DD	imagerel $cppxdata$?test_convert_span_Joe@@YAEAEAUIDE_DRIVE_STATE@@@Z
xdata	ENDS
;	COMDAT CONST
CONST	SEGMENT
$cppxdata$??$?0$05@?$span@E$0?0@gsl@@QEAA@AEAY05E@Z DD 019930522H
	DD	00H
	DD	00H
	DD	00H
	DD	00H
	DD	2 DUP(00H)
	DD	00H
	DD	00H
	DD	05H
CONST	ENDS
;	COMDAT xdata
xdata	SEGMENT
$unwind$??$?0$05@?$span@E$0?0@gsl@@QEAA@AEAY05E@Z DD 010c19H
	DD	02204H
	DD	imagerel __CxxFrameHandler3
	DD	imagerel $cppxdata$??$?0$05@?$span@E$0?0@gsl@@QEAA@AEAY05E@Z
xdata	ENDS
;	COMDAT xdata
xdata	SEGMENT
$unwind$?dtor$0@?0???A?$span@E$0?0@gsl@@QEBAAEAE_J@Z@4HA DD 020601H
	DD	050023206H
xdata	ENDS
;	COMDAT xdata
xdata	SEGMENT
$ip2state$??A?$span@E$0?0@gsl@@QEBAAEAE_J@Z DD imagerel ??A?$span@E$0?0@gsl@@QEBAAEAE_J@Z+67
	DD	00H
xdata	ENDS
;	COMDAT xdata
xdata	SEGMENT
$stateUnwindMap$??A?$span@E$0?0@gsl@@QEBAAEAE_J@Z DD 0ffffffffH
	DD	imagerel ?dtor$0@?0???A?$span@E$0?0@gsl@@QEBAAEAE_J@Z@4HA
xdata	ENDS
;	COMDAT CONST
CONST	SEGMENT
$cppxdata$??A?$span@E$0?0@gsl@@QEBAAEAE_J@Z DD 019930522H
	DD	01H
	DD	imagerel $stateUnwindMap$??A?$span@E$0?0@gsl@@QEBAAEAE_J@Z
	DD	00H
	DD	00H
	DD	01H
	DD	imagerel $ip2state$??A?$span@E$0?0@gsl@@QEBAAEAE_J@Z
	DD	020H
	DD	00H
	DD	01H
CONST	ENDS
;	COMDAT xdata
xdata	SEGMENT
$unwind$??A?$span@E$0?0@gsl@@QEBAAEAE_J@Z DD 010d11H
	DD	08204H
	DD	imagerel __CxxFrameHandler3
	DD	imagerel $cppxdata$??A?$span@E$0?0@gsl@@QEBAAEAE_J@Z
xdata	ENDS
;	COMDAT xdata
xdata	SEGMENT
$unwind$?dtor$1@?0???0?$span@E$0?0@gsl@@QEAA@PEAE_J@Z@4HA DD 020601H
	DD	050023206H
xdata	ENDS
;	COMDAT xdata
xdata	SEGMENT
$unwind$?dtor$2@?0???0?$span@E$0?0@gsl@@QEAA@PEAE_J@Z@4HA DD 020601H
	DD	050023206H
xdata	ENDS
;	COMDAT xdata
xdata	SEGMENT
$ip2state$??0?$span@E$0?0@gsl@@QEAA@PEAE_J@Z DD imagerel ??0?$span@E$0?0@gsl@@QEAA@PEAE_J@Z+80
	DD	02H
	DD	imagerel ??0?$span@E$0?0@gsl@@QEAA@PEAE_J@Z+115
	DD	00H
xdata	ENDS
;	COMDAT xdata
xdata	SEGMENT
$stateUnwindMap$??0?$span@E$0?0@gsl@@QEAA@PEAE_J@Z DD 0ffffffffH
	DD	imagerel ?dtor$2@?0???0?$span@E$0?0@gsl@@QEAA@PEAE_J@Z@4HA
	DD	0ffffffffH
	DD	00H
	DD	0ffffffffH
	DD	imagerel ?dtor$1@?0???0?$span@E$0?0@gsl@@QEAA@PEAE_J@Z@4HA
xdata	ENDS
;	COMDAT CONST
CONST	SEGMENT
$cppxdata$??0?$span@E$0?0@gsl@@QEAA@PEAE_J@Z DD 019930522H
	DD	03H
	DD	imagerel $stateUnwindMap$??0?$span@E$0?0@gsl@@QEAA@PEAE_J@Z
	DD	00H
	DD	00H
	DD	02H
	DD	imagerel $ip2state$??0?$span@E$0?0@gsl@@QEAA@PEAE_J@Z
	DD	020H
	DD	00H
	DD	01H
CONST	ENDS
;	COMDAT xdata
xdata	SEGMENT
$unwind$??0?$span@E$0?0@gsl@@QEAA@PEAE_J@Z DD 010d11H
	DD	08204H
	DD	imagerel __CxxFrameHandler3
	DD	imagerel $cppxdata$??0?$span@E$0?0@gsl@@QEAA@PEAE_J@Z
xdata	ENDS
;	COMDAT xdata
xdata	SEGMENT
$unwind$?dtor$4@?0??static_size_array_span@@YAXAEAUIDE_DRIVE_STATE@@@Z@4HA DD 020601H
	DD	050023206H
xdata	ENDS
;	COMDAT xdata
xdata	SEGMENT
$ip2state$?static_size_array_span@@YAXAEAUIDE_DRIVE_STATE@@@Z DD imagerel ?static_size_array_span@@YAXAEAUIDE_DRIVE_STATE@@@Z+140
	DD	01H
xdata	ENDS
;	COMDAT xdata
xdata	SEGMENT
$stateUnwindMap$?static_size_array_span@@YAXAEAUIDE_DRIVE_STATE@@@Z DD 0ffffffffH
	DD	imagerel __std_terminate
	DD	0ffffffffH
	DD	imagerel ?dtor$4@?0??static_size_array_span@@YAXAEAUIDE_DRIVE_STATE@@@Z@4HA
xdata	ENDS
;	COMDAT CONST
CONST	SEGMENT
$cppxdata$?static_size_array_span@@YAXAEAUIDE_DRIVE_STATE@@@Z DD 019930522H
	DD	02H
	DD	imagerel $stateUnwindMap$?static_size_array_span@@YAXAEAUIDE_DRIVE_STATE@@@Z
	DD	00H
	DD	00H
	DD	01H
	DD	imagerel $ip2state$?static_size_array_span@@YAXAEAUIDE_DRIVE_STATE@@@Z
	DD	020H
	DD	00H
	DD	01H
CONST	ENDS
;	COMDAT xdata
xdata	SEGMENT
$unwind$?static_size_array_span@@YAXAEAUIDE_DRIVE_STATE@@@Z DD 081e11H
	DD	0d641eH
	DD	0c5419H
	DD	0b3414H
	DD	070027206H
	DD	imagerel __CxxFrameHandler3
	DD	imagerel $cppxdata$?static_size_array_span@@YAXAEAUIDE_DRIVE_STATE@@@Z
xdata	ENDS
;	COMDAT xdata
xdata	SEGMENT
$ip2state$?_Verify_offset@?$span_iterator@V?$span@H$0?0@gsl@@$0A@@details@gsl@@QEBAX_J@Z DD imagerel ?_Verify_offset@?$span_iterator@V?$span@H$0?0@gsl@@$0A@@details@gsl@@QEBAX_J@Z+56
	DD	0ffffffffH
xdata	ENDS
;	COMDAT CONST
CONST	SEGMENT
$cppxdata$?_Verify_offset@?$span_iterator@V?$span@H$0?0@gsl@@$0A@@details@gsl@@QEBAX_J@Z DD 019930522H
	DD	00H
	DD	00H
	DD	00H
	DD	00H
	DD	01H
	DD	imagerel $ip2state$?_Verify_offset@?$span_iterator@V?$span@H$0?0@gsl@@$0A@@details@gsl@@QEBAX_J@Z
	DD	020H
	DD	00H
	DD	05H
CONST	ENDS
;	COMDAT xdata
xdata	SEGMENT
$unwind$?_Verify_offset@?$span_iterator@V?$span@H$0?0@gsl@@$0A@@details@gsl@@QEBAX_J@Z DD 010d19H
	DD	08204H
	DD	imagerel __CxxFrameHandler3
	DD	imagerel $cppxdata$?_Verify_offset@?$span_iterator@V?$span@H$0?0@gsl@@$0A@@details@gsl@@QEBAX_J@Z
xdata	ENDS
;	COMDAT xdata
xdata	SEGMENT
$ip2state$?_Verify_range@details@gsl@@YAXV?$span_iterator@V?$span@H$0?0@gsl@@$0A@@12@0@Z DD imagerel ?_Verify_range@details@gsl@@YAXV?$span_iterator@V?$span@H$0?0@gsl@@$0A@@12@0@Z+57
	DD	0ffffffffH
xdata	ENDS
;	COMDAT CONST
CONST	SEGMENT
$cppxdata$?_Verify_range@details@gsl@@YAXV?$span_iterator@V?$span@H$0?0@gsl@@$0A@@12@0@Z DD 019930522H
	DD	00H
	DD	00H
	DD	00H
	DD	00H
	DD	01H
	DD	imagerel $ip2state$?_Verify_range@details@gsl@@YAXV?$span_iterator@V?$span@H$0?0@gsl@@$0A@@12@0@Z
	DD	020H
	DD	00H
	DD	05H
CONST	ENDS
;	COMDAT xdata
xdata	SEGMENT
$unwind$?_Verify_range@details@gsl@@YAXV?$span_iterator@V?$span@H$0?0@gsl@@$0A@@12@0@Z DD 010d19H
	DD	08204H
	DD	imagerel __CxxFrameHandler3
	DD	imagerel $cppxdata$?_Verify_range@details@gsl@@YAXV?$span_iterator@V?$span@H$0?0@gsl@@$0A@@12@0@Z
xdata	ENDS
;	COMDAT xdata
xdata	SEGMENT
$unwind$??9details@gsl@@YA_NV?$span_iterator@V?$span@H$0?0@gsl@@$0A@@01@0@Z DD 010401H
	DD	04204H
xdata	ENDS
;	COMDAT xdata
xdata	SEGMENT
$unwind$?dtor$0@?0???E?$span_iterator@V?$span@H$0?0@gsl@@$0A@@details@gsl@@QEAAAEAV012@XZ@4HA DD 020601H
	DD	050023206H
xdata	ENDS
;	COMDAT xdata
xdata	SEGMENT
$ip2state$??E?$span_iterator@V?$span@H$0?0@gsl@@$0A@@details@gsl@@QEAAAEAV012@XZ DD imagerel ??E?$span_iterator@V?$span@H$0?0@gsl@@$0A@@details@gsl@@QEAAAEAV012@XZ+83
	DD	00H
xdata	ENDS
;	COMDAT xdata
xdata	SEGMENT
$stateUnwindMap$??E?$span_iterator@V?$span@H$0?0@gsl@@$0A@@details@gsl@@QEAAAEAV012@XZ DD 0ffffffffH
	DD	imagerel ?dtor$0@?0???E?$span_iterator@V?$span@H$0?0@gsl@@$0A@@details@gsl@@QEAAAEAV012@XZ@4HA
xdata	ENDS
;	COMDAT CONST
CONST	SEGMENT
$cppxdata$??E?$span_iterator@V?$span@H$0?0@gsl@@$0A@@details@gsl@@QEAAAEAV012@XZ DD 019930522H
	DD	01H
	DD	imagerel $stateUnwindMap$??E?$span_iterator@V?$span@H$0?0@gsl@@$0A@@details@gsl@@QEAAAEAV012@XZ
	DD	00H
	DD	00H
	DD	01H
	DD	imagerel $ip2state$??E?$span_iterator@V?$span@H$0?0@gsl@@$0A@@details@gsl@@QEAAAEAV012@XZ
	DD	020H
	DD	00H
	DD	01H
CONST	ENDS
;	COMDAT xdata
xdata	SEGMENT
$unwind$??E?$span_iterator@V?$span@H$0?0@gsl@@$0A@@details@gsl@@QEAAAEAV012@XZ DD 010d11H
	DD	08204H
	DD	imagerel __CxxFrameHandler3
	DD	imagerel $cppxdata$??E?$span_iterator@V?$span@H$0?0@gsl@@$0A@@details@gsl@@QEAAAEAV012@XZ
xdata	ENDS
;	COMDAT xdata
xdata	SEGMENT
$unwind$?dtor$0@?0???D?$span_iterator@V?$span@H$0?0@gsl@@$0A@@details@gsl@@QEBAAEAHXZ@4HA DD 020601H
	DD	050023206H
xdata	ENDS
;	COMDAT xdata
xdata	SEGMENT
$ip2state$??D?$span_iterator@V?$span@H$0?0@gsl@@$0A@@details@gsl@@QEBAAEAHXZ DD imagerel ??D?$span_iterator@V?$span@H$0?0@gsl@@$0A@@details@gsl@@QEBAAEAHXZ+75
	DD	00H
xdata	ENDS
;	COMDAT xdata
xdata	SEGMENT
$stateUnwindMap$??D?$span_iterator@V?$span@H$0?0@gsl@@$0A@@details@gsl@@QEBAAEAHXZ DD 0ffffffffH
	DD	imagerel ?dtor$0@?0???D?$span_iterator@V?$span@H$0?0@gsl@@$0A@@details@gsl@@QEBAAEAHXZ@4HA
xdata	ENDS
;	COMDAT CONST
CONST	SEGMENT
$cppxdata$??D?$span_iterator@V?$span@H$0?0@gsl@@$0A@@details@gsl@@QEBAAEAHXZ DD 019930522H
	DD	01H
	DD	imagerel $stateUnwindMap$??D?$span_iterator@V?$span@H$0?0@gsl@@$0A@@details@gsl@@QEBAAEAHXZ
	DD	00H
	DD	00H
	DD	01H
	DD	imagerel $ip2state$??D?$span_iterator@V?$span@H$0?0@gsl@@$0A@@details@gsl@@QEBAAEAHXZ
	DD	020H
	DD	00H
	DD	01H
CONST	ENDS
;	COMDAT xdata
xdata	SEGMENT
$unwind$??D?$span_iterator@V?$span@H$0?0@gsl@@$0A@@details@gsl@@QEBAAEAHXZ DD 010d11H
	DD	08204H
	DD	imagerel __CxxFrameHandler3
	DD	imagerel $cppxdata$??D?$span_iterator@V?$span@H$0?0@gsl@@$0A@@details@gsl@@QEBAAEAHXZ
xdata	ENDS
;	COMDAT xdata
xdata	SEGMENT
$unwind$?dtor$0@?0??test_span_iter@@YAXV?$span@H$0?0@gsl@@@Z@4HA DD 020601H
	DD	050023206H
xdata	ENDS
;	COMDAT xdata
xdata	SEGMENT
$ip2state$?test_span_iter@@YAXV?$span@H$0?0@gsl@@@Z DD imagerel ?test_span_iter@@YAXV?$span@H$0?0@gsl@@@Z+174
	DD	00H
xdata	ENDS
;	COMDAT xdata
xdata	SEGMENT
$stateUnwindMap$?test_span_iter@@YAXV?$span@H$0?0@gsl@@@Z DD 0ffffffffH
	DD	imagerel ?dtor$0@?0??test_span_iter@@YAXV?$span@H$0?0@gsl@@@Z@4HA
	DD	0ffffffffH
	DD	00H
xdata	ENDS
;	COMDAT CONST
CONST	SEGMENT
$cppxdata$?test_span_iter@@YAXV?$span@H$0?0@gsl@@@Z DD 019930522H
	DD	02H
	DD	imagerel $stateUnwindMap$?test_span_iter@@YAXV?$span@H$0?0@gsl@@@Z
	DD	00H
	DD	00H
	DD	01H
	DD	imagerel $ip2state$?test_span_iter@@YAXV?$span@H$0?0@gsl@@@Z
	DD	020H
	DD	00H
	DD	01H
CONST	ENDS
;	COMDAT xdata
xdata	SEGMENT
$unwind$?test_span_iter@@YAXV?$span@H$0?0@gsl@@@Z DD 081c11H
	DD	0e541cH
	DD	0d3417H
	DD	0e0057209H
	DD	060027003H
	DD	imagerel __CxxFrameHandler3
	DD	imagerel $cppxdata$?test_span_iter@@YAXV?$span@H$0?0@gsl@@@Z
xdata	ENDS
;	COMDAT xdata
xdata	SEGMENT
$unwind$?dtor$0@?0??test_span_for@@YAXV?$span@H$0?0@gsl@@@Z@4HA DD 020601H
	DD	050023206H
xdata	ENDS
;	COMDAT xdata
xdata	SEGMENT
$ip2state$?test_span_for@@YAXV?$span@H$0?0@gsl@@@Z DD imagerel ?test_span_for@@YAXV?$span@H$0?0@gsl@@@Z+145
	DD	00H
xdata	ENDS
;	COMDAT xdata
xdata	SEGMENT
$stateUnwindMap$?test_span_for@@YAXV?$span@H$0?0@gsl@@@Z DD 0ffffffffH
	DD	imagerel ?dtor$0@?0??test_span_for@@YAXV?$span@H$0?0@gsl@@@Z@4HA
xdata	ENDS
;	COMDAT CONST
CONST	SEGMENT
$cppxdata$?test_span_for@@YAXV?$span@H$0?0@gsl@@@Z DD 019930522H
	DD	01H
	DD	imagerel $stateUnwindMap$?test_span_for@@YAXV?$span@H$0?0@gsl@@@Z
	DD	00H
	DD	00H
	DD	01H
	DD	imagerel $ip2state$?test_span_for@@YAXV?$span@H$0?0@gsl@@@Z
	DD	020H
	DD	00H
	DD	01H
CONST	ENDS
;	COMDAT xdata
xdata	SEGMENT
$unwind$?test_span_for@@YAXV?$span@H$0?0@gsl@@@Z DD 081c11H
	DD	0e541cH
	DD	0d3417H
	DD	0e0057209H
	DD	060027003H
	DD	imagerel __CxxFrameHandler3
	DD	imagerel $cppxdata$?test_span_for@@YAXV?$span@H$0?0@gsl@@@Z
xdata	ENDS
;	COMDAT xdata
xdata	SEGMENT
$unwind$?dtor$1@?0??make_subspan@?$span@H$0?0@gsl@@AEBA?AV12@_J0V?$subspan_selector@$0?0@12@@Z@4HA DD 020601H
	DD	050023206H
xdata	ENDS
;	COMDAT xdata
xdata	SEGMENT
$unwind$?dtor$0@?0??make_subspan@?$span@H$0?0@gsl@@AEBA?AV12@_J0V?$subspan_selector@$0?0@12@@Z@4HA DD 020601H
	DD	050023206H
xdata	ENDS
;	COMDAT xdata
xdata	SEGMENT
$ip2state$?make_subspan@?$span@H$0?0@gsl@@AEBA?AV12@_J0V?$subspan_selector@$0?0@12@@Z DD imagerel ?make_subspan@?$span@H$0?0@gsl@@AEBA?AV12@_J0V?$subspan_selector@$0?0@12@@Z+59
	DD	0ffffffffH
	DD	imagerel ?make_subspan@?$span@H$0?0@gsl@@AEBA?AV12@_J0V?$subspan_selector@$0?0@12@@Z+129
	DD	01H
	DD	imagerel ?make_subspan@?$span@H$0?0@gsl@@AEBA?AV12@_J0V?$subspan_selector@$0?0@12@@Z+146
	DD	0ffffffffH
	DD	imagerel ?make_subspan@?$span@H$0?0@gsl@@AEBA?AV12@_J0V?$subspan_selector@$0?0@12@@Z+175
	DD	00H
xdata	ENDS
;	COMDAT xdata
xdata	SEGMENT
$stateUnwindMap$?make_subspan@?$span@H$0?0@gsl@@AEBA?AV12@_J0V?$subspan_selector@$0?0@12@@Z DD 0ffffffffH
	DD	imagerel ?dtor$0@?0??make_subspan@?$span@H$0?0@gsl@@AEBA?AV12@_J0V?$subspan_selector@$0?0@12@@Z@4HA
	DD	0ffffffffH
	DD	imagerel ?dtor$1@?0??make_subspan@?$span@H$0?0@gsl@@AEBA?AV12@_J0V?$subspan_selector@$0?0@12@@Z@4HA
xdata	ENDS
;	COMDAT CONST
CONST	SEGMENT
$cppxdata$?make_subspan@?$span@H$0?0@gsl@@AEBA?AV12@_J0V?$subspan_selector@$0?0@12@@Z DD 019930522H
	DD	02H
	DD	imagerel $stateUnwindMap$?make_subspan@?$span@H$0?0@gsl@@AEBA?AV12@_J0V?$subspan_selector@$0?0@12@@Z
	DD	00H
	DD	00H
	DD	04H
	DD	imagerel $ip2state$?make_subspan@?$span@H$0?0@gsl@@AEBA?AV12@_J0V?$subspan_selector@$0?0@12@@Z
	DD	020H
	DD	00H
	DD	01H
CONST	ENDS
;	COMDAT xdata
xdata	SEGMENT
$unwind$?make_subspan@?$span@H$0?0@gsl@@AEBA?AV12@_J0V?$subspan_selector@$0?0@12@@Z DD 020f11H
	DD	030027206H
	DD	imagerel __CxxFrameHandler3
	DD	imagerel $cppxdata$?make_subspan@?$span@H$0?0@gsl@@AEBA?AV12@_J0V?$subspan_selector@$0?0@12@@Z
xdata	ENDS
;	COMDAT xdata
xdata	SEGMENT
$unwind$?dtor$1@?0???0?$span@H$0?0@gsl@@AEAA@UKnownNotNull@01@_J@Z@4HA DD 020601H
	DD	050023206H
xdata	ENDS
;	COMDAT xdata
xdata	SEGMENT
$ip2state$??0?$span@H$0?0@gsl@@AEAA@UKnownNotNull@01@_J@Z DD imagerel ??0?$span@H$0?0@gsl@@AEAA@UKnownNotNull@01@_J@Z+70
	DD	00H
xdata	ENDS
;	COMDAT xdata
xdata	SEGMENT
$stateUnwindMap$??0?$span@H$0?0@gsl@@AEAA@UKnownNotNull@01@_J@Z DD 0ffffffffH
	DD	imagerel ?dtor$1@?0???0?$span@H$0?0@gsl@@AEAA@UKnownNotNull@01@_J@Z@4HA
	DD	0ffffffffH
	DD	00H
xdata	ENDS
;	COMDAT CONST
CONST	SEGMENT
$cppxdata$??0?$span@H$0?0@gsl@@AEAA@UKnownNotNull@01@_J@Z DD 019930522H
	DD	02H
	DD	imagerel $stateUnwindMap$??0?$span@H$0?0@gsl@@AEAA@UKnownNotNull@01@_J@Z
	DD	00H
	DD	00H
	DD	01H
	DD	imagerel $ip2state$??0?$span@H$0?0@gsl@@AEAA@UKnownNotNull@01@_J@Z
	DD	020H
	DD	00H
	DD	01H
CONST	ENDS
;	COMDAT xdata
xdata	SEGMENT
$unwind$??0?$span@H$0?0@gsl@@AEAA@UKnownNotNull@01@_J@Z DD 010d11H
	DD	08204H
	DD	imagerel __CxxFrameHandler3
	DD	imagerel $cppxdata$??0?$span@H$0?0@gsl@@AEAA@UKnownNotNull@01@_J@Z
xdata	ENDS
;	COMDAT xdata
xdata	SEGMENT
$unwind$?dtor$0@?0???A?$span@H$0?0@gsl@@QEBAAEAH_J@Z@4HA DD 020601H
	DD	050023206H
xdata	ENDS
;	COMDAT xdata
xdata	SEGMENT
$ip2state$??A?$span@H$0?0@gsl@@QEBAAEAH_J@Z DD imagerel ??A?$span@H$0?0@gsl@@QEBAAEAH_J@Z+68
	DD	00H
xdata	ENDS
;	COMDAT xdata
xdata	SEGMENT
$stateUnwindMap$??A?$span@H$0?0@gsl@@QEBAAEAH_J@Z DD 0ffffffffH
	DD	imagerel ?dtor$0@?0???A?$span@H$0?0@gsl@@QEBAAEAH_J@Z@4HA
xdata	ENDS
;	COMDAT CONST
CONST	SEGMENT
$cppxdata$??A?$span@H$0?0@gsl@@QEBAAEAH_J@Z DD 019930522H
	DD	01H
	DD	imagerel $stateUnwindMap$??A?$span@H$0?0@gsl@@QEBAAEAH_J@Z
	DD	00H
	DD	00H
	DD	01H
	DD	imagerel $ip2state$??A?$span@H$0?0@gsl@@QEBAAEAH_J@Z
	DD	020H
	DD	00H
	DD	01H
CONST	ENDS
;	COMDAT xdata
xdata	SEGMENT
$unwind$??A?$span@H$0?0@gsl@@QEBAAEAH_J@Z DD 010d11H
	DD	08204H
	DD	imagerel __CxxFrameHandler3
	DD	imagerel $cppxdata$??A?$span@H$0?0@gsl@@QEBAAEAH_J@Z
xdata	ENDS
;	COMDAT xdata
xdata	SEGMENT
$unwind$?subspan@?$span@H$0?0@gsl@@QEBA?AV12@_J0@Z DD 020601H
	DD	030025206H
xdata	ENDS
;	COMDAT xdata
xdata	SEGMENT
$unwind$?dtor$0@?0??last@?$span@H$0?0@gsl@@QEBA?AV12@_J@Z@4HA DD 020601H
	DD	050023206H
xdata	ENDS
;	COMDAT xdata
xdata	SEGMENT
$ip2state$?last@?$span@H$0?0@gsl@@QEBA?AV12@_J@Z DD imagerel ?last@?$span@H$0?0@gsl@@QEBA?AV12@_J@Z+50
	DD	0ffffffffH
	DD	imagerel ?last@?$span@H$0?0@gsl@@QEBA?AV12@_J@Z+93
	DD	00H
xdata	ENDS
;	COMDAT xdata
xdata	SEGMENT
$stateUnwindMap$?last@?$span@H$0?0@gsl@@QEBA?AV12@_J@Z DD 0ffffffffH
	DD	imagerel ?dtor$0@?0??last@?$span@H$0?0@gsl@@QEBA?AV12@_J@Z@4HA
	DD	0ffffffffH
	DD	00H
	DD	0ffffffffH
	DD	00H
	DD	0ffffffffH
	DD	00H
xdata	ENDS
;	COMDAT CONST
CONST	SEGMENT
$cppxdata$?last@?$span@H$0?0@gsl@@QEBA?AV12@_J@Z DD 019930522H
	DD	04H
	DD	imagerel $stateUnwindMap$?last@?$span@H$0?0@gsl@@QEBA?AV12@_J@Z
	DD	00H
	DD	00H
	DD	02H
	DD	imagerel $ip2state$?last@?$span@H$0?0@gsl@@QEBA?AV12@_J@Z
	DD	020H
	DD	00H
	DD	01H
CONST	ENDS
;	COMDAT xdata
xdata	SEGMENT
$unwind$?last@?$span@H$0?0@gsl@@QEBA?AV12@_J@Z DD 020f11H
	DD	030027206H
	DD	imagerel __CxxFrameHandler3
	DD	imagerel $cppxdata$?last@?$span@H$0?0@gsl@@QEBA?AV12@_J@Z
xdata	ENDS
;	COMDAT xdata
xdata	SEGMENT
$unwind$?dtor$1@?0???0?$span@H$0?0@gsl@@QEAA@PEAH_J@Z@4HA DD 020601H
	DD	050023206H
xdata	ENDS
;	COMDAT xdata
xdata	SEGMENT
$unwind$?dtor$2@?0???0?$span@H$0?0@gsl@@QEAA@PEAH_J@Z@4HA DD 020601H
	DD	050023206H
xdata	ENDS
;	COMDAT xdata
xdata	SEGMENT
$ip2state$??0?$span@H$0?0@gsl@@QEAA@PEAH_J@Z DD imagerel ??0?$span@H$0?0@gsl@@QEAA@PEAH_J@Z+80
	DD	02H
	DD	imagerel ??0?$span@H$0?0@gsl@@QEAA@PEAH_J@Z+115
	DD	00H
xdata	ENDS
;	COMDAT xdata
xdata	SEGMENT
$stateUnwindMap$??0?$span@H$0?0@gsl@@QEAA@PEAH_J@Z DD 0ffffffffH
	DD	imagerel ?dtor$2@?0???0?$span@H$0?0@gsl@@QEAA@PEAH_J@Z@4HA
	DD	0ffffffffH
	DD	00H
	DD	0ffffffffH
	DD	imagerel ?dtor$1@?0???0?$span@H$0?0@gsl@@QEAA@PEAH_J@Z@4HA
xdata	ENDS
;	COMDAT CONST
CONST	SEGMENT
$cppxdata$??0?$span@H$0?0@gsl@@QEAA@PEAH_J@Z DD 019930522H
	DD	03H
	DD	imagerel $stateUnwindMap$??0?$span@H$0?0@gsl@@QEAA@PEAH_J@Z
	DD	00H
	DD	00H
	DD	02H
	DD	imagerel $ip2state$??0?$span@H$0?0@gsl@@QEAA@PEAH_J@Z
	DD	020H
	DD	00H
	DD	01H
CONST	ENDS
;	COMDAT xdata
xdata	SEGMENT
$unwind$??0?$span@H$0?0@gsl@@QEAA@PEAH_J@Z DD 010d11H
	DD	08204H
	DD	imagerel __CxxFrameHandler3
	DD	imagerel $cppxdata$??0?$span@H$0?0@gsl@@QEAA@PEAH_J@Z
xdata	ENDS
;	COMDAT xdata
xdata	SEGMENT
$unwind$?dtor$0@?0??test_span_unoptimizable_rangecheck@@YAXV?$span@H$0?0@gsl@@H@Z@4HA DD 020601H
	DD	050023206H
xdata	ENDS
;	COMDAT xdata
xdata	SEGMENT
$ip2state$?test_span_unoptimizable_rangecheck@@YAXV?$span@H$0?0@gsl@@H@Z DD imagerel ?test_span_unoptimizable_rangecheck@@YAXV?$span@H$0?0@gsl@@H@Z+162
	DD	00H
xdata	ENDS
;	COMDAT xdata
xdata	SEGMENT
$stateUnwindMap$?test_span_unoptimizable_rangecheck@@YAXV?$span@H$0?0@gsl@@H@Z DD 0ffffffffH
	DD	imagerel ?dtor$0@?0??test_span_unoptimizable_rangecheck@@YAXV?$span@H$0?0@gsl@@H@Z@4HA
xdata	ENDS
;	COMDAT CONST
CONST	SEGMENT
$cppxdata$?test_span_unoptimizable_rangecheck@@YAXV?$span@H$0?0@gsl@@H@Z DD 019930522H
	DD	01H
	DD	imagerel $stateUnwindMap$?test_span_unoptimizable_rangecheck@@YAXV?$span@H$0?0@gsl@@H@Z
	DD	00H
	DD	00H
	DD	01H
	DD	imagerel $ip2state$?test_span_unoptimizable_rangecheck@@YAXV?$span@H$0?0@gsl@@H@Z
	DD	020H
	DD	00H
	DD	01H
CONST	ENDS
;	COMDAT xdata
xdata	SEGMENT
$unwind$?test_span_unoptimizable_rangecheck@@YAXV?$span@H$0?0@gsl@@H@Z DD 0a2911H
	DD	0f6429H
	DD	0e5424H
	DD	0c341fH
	DD	0f00d7211H
	DD	07009e00bH
	DD	imagerel __CxxFrameHandler3
	DD	imagerel $cppxdata$?test_span_unoptimizable_rangecheck@@YAXV?$span@H$0?0@gsl@@H@Z
xdata	ENDS
;	COMDAT xdata
xdata	SEGMENT
$unwind$??$throw_exception@Ufail_fast@gsl@@@details@gsl@@YAX$$QEAUfail_fast@1@@Z DD 010401H
	DD	08204H
xdata	ENDS
;	COMDAT xdata
xdata	SEGMENT
$unwind$?dtor$0@?0???0?$extent_type@$0?0@details@gsl@@QEAA@_J@Z@4HA DD 020601H
	DD	050023206H
xdata	ENDS
;	COMDAT xdata
xdata	SEGMENT
$ip2state$??0?$extent_type@$0?0@details@gsl@@QEAA@_J@Z DD imagerel ??0?$extent_type@$0?0@details@gsl@@QEAA@_J@Z+66
	DD	00H
xdata	ENDS
;	COMDAT xdata
xdata	SEGMENT
$stateUnwindMap$??0?$extent_type@$0?0@details@gsl@@QEAA@_J@Z DD 0ffffffffH
	DD	imagerel ?dtor$0@?0???0?$extent_type@$0?0@details@gsl@@QEAA@_J@Z@4HA
xdata	ENDS
;	COMDAT CONST
CONST	SEGMENT
$cppxdata$??0?$extent_type@$0?0@details@gsl@@QEAA@_J@Z DD 019930522H
	DD	01H
	DD	imagerel $stateUnwindMap$??0?$extent_type@$0?0@details@gsl@@QEAA@_J@Z
	DD	00H
	DD	00H
	DD	01H
	DD	imagerel $ip2state$??0?$extent_type@$0?0@details@gsl@@QEAA@_J@Z
	DD	020H
	DD	00H
	DD	01H
CONST	ENDS
;	COMDAT xdata
xdata	SEGMENT
$unwind$??0?$extent_type@$0?0@details@gsl@@QEAA@_J@Z DD 010d11H
	DD	08204H
	DD	imagerel __CxxFrameHandler3
	DD	imagerel $cppxdata$??0?$extent_type@$0?0@details@gsl@@QEAA@_J@Z
xdata	ENDS
;	COMDAT xdata
xdata	SEGMENT
$unwind$??_Gnarrowing_error@gsl@@UEAAPEAXI@Z DD 040a01H
	DD	06340aH
	DD	07006320aH
xdata	ENDS
;	COMDAT xdata
xdata	SEGMENT
$unwind$??0narrowing_error@gsl@@QEAA@$$QEAU01@@Z DD 020601H
	DD	030023206H
xdata	ENDS
;	COMDAT xdata
xdata	SEGMENT
$unwind$??0narrowing_error@gsl@@QEAA@AEBU01@@Z DD 020601H
	DD	030023206H
xdata	ENDS
;	COMDAT xdata
xdata	SEGMENT
$unwind$??_Gfail_fast@gsl@@UEAAPEAXI@Z DD 040a01H
	DD	06340aH
	DD	07006320aH
xdata	ENDS
;	COMDAT xdata
xdata	SEGMENT
$unwind$??0fail_fast@gsl@@QEAA@$$QEAU01@@Z DD 020601H
	DD	030023206H
xdata	ENDS
;	COMDAT xdata
xdata	SEGMENT
$unwind$??0fail_fast@gsl@@QEAA@AEBU01@@Z DD 020601H
	DD	030023206H
xdata	ENDS
;	COMDAT xdata
xdata	SEGMENT
$unwind$??0fail_fast@gsl@@QEAA@QEBD@Z DD 020601H
	DD	030025206H
xdata	ENDS
;	COMDAT xdata
xdata	SEGMENT
$unwind$??_Glogic_error@std@@UEAAPEAXI@Z DD 040a01H
	DD	06340aH
	DD	07006320aH
xdata	ENDS
;	COMDAT xdata
xdata	SEGMENT
$unwind$??0logic_error@std@@QEAA@$$QEAV01@@Z DD 020601H
	DD	030023206H
xdata	ENDS
;	COMDAT xdata
xdata	SEGMENT
$unwind$??0logic_error@std@@QEAA@AEBV01@@Z DD 020601H
	DD	030023206H
xdata	ENDS
;	COMDAT xdata
xdata	SEGMENT
$unwind$??0logic_error@std@@QEAA@PEBD@Z DD 020601H
	DD	030025206H
xdata	ENDS
;	COMDAT xdata
xdata	SEGMENT
$unwind$??_Gexception@std@@UEAAPEAXI@Z DD 040a01H
	DD	06340aH
	DD	07006320aH
xdata	ENDS
;	COMDAT xdata
xdata	SEGMENT
$unwind$??0exception@std@@QEAA@AEBV01@@Z DD 020601H
	DD	030023206H
xdata	ENDS
;	COMDAT xdata
xdata	SEGMENT
$unwind$??0exception@std@@QEAA@QEBD@Z DD 020601H
	DD	030025206H
xdata	ENDS
; Function compile flags: /Ogtpy
;	COMDAT ??$_Copy_n_unchecked4@PEBD_JPEAE@std@@YAPEAEPEBD_JPEAEU_Trivially_copyable_ptr_iterator_tag@0@@Z
_TEXT	SEGMENT
_First$ = 48
_Count$ = 56
_Dest$ = 64
__formal$ = 72
??$_Copy_n_unchecked4@PEBD_JPEAE@std@@YAPEAEPEBD_JPEAEU_Trivially_copyable_ptr_iterator_tag@0@@Z PROC ; std::_Copy_n_unchecked4<char const *,__int64,unsigned char *>, COMDAT
; File c:\program files (x86)\microsoft visual studio\2017\community\vc\tools\msvc\14.16.27023\include\xutility
; Line 2516
$LN6:
	mov	QWORD PTR [rsp+8], rbx
	push	rdi
	sub	rsp, 32					; 00000020H
	mov	rdi, r8
	mov	rbx, rdx
; Line 2403
	mov	r8, rdx
	mov	rdx, rcx
	mov	rcx, rdi
	call	memmove
; Line 2404
	lea	rax, QWORD PTR [rbx+rdi]
; Line 2519
	mov	rbx, QWORD PTR [rsp+48]
	add	rsp, 32					; 00000020H
	pop	rdi
	ret	0
??$_Copy_n_unchecked4@PEBD_JPEAE@std@@YAPEAEPEBD_JPEAEU_Trivially_copyable_ptr_iterator_tag@0@@Z ENDP ; std::_Copy_n_unchecked4<char const *,__int64,unsigned char *>
_TEXT	ENDS
; Function compile flags: /Ogtpy
;	COMDAT ??$forward@Unarrowing_error@gsl@@@std@@YA$$QEAUnarrowing_error@gsl@@AEAU12@@Z
_TEXT	SEGMENT
_Arg$ = 8
??$forward@Unarrowing_error@gsl@@@std@@YA$$QEAUnarrowing_error@gsl@@AEAU12@@Z PROC ; std::forward<gsl::narrowing_error>, COMDAT
; File c:\program files (x86)\microsoft visual studio\2017\community\vc\tools\msvc\14.16.27023\include\type_traits
; Line 1574
	mov	rax, rcx
; Line 1575
	ret	0
??$forward@Unarrowing_error@gsl@@@std@@YA$$QEAUnarrowing_error@gsl@@AEAU12@@Z ENDP ; std::forward<gsl::narrowing_error>
_TEXT	ENDS
; Function compile flags: /Ogtpy
;	COMDAT ??$_Copy_memmove@PEBDPEAE@std@@YAPEAEPEBD0PEAE@Z
_TEXT	SEGMENT
_First$ = 48
_Last$ = 56
_Dest$ = 64
??$_Copy_memmove@PEBDPEAE@std@@YAPEAEPEBD0PEAE@Z PROC	; std::_Copy_memmove<char const *,unsigned char *>, COMDAT
; File c:\program files (x86)\microsoft visual studio\2017\community\vc\tools\msvc\14.16.27023\include\xutility
; Line 2398
$LN4:
	mov	QWORD PTR [rsp+8], rbx
	push	rdi
	sub	rsp, 32					; 00000020H
	mov	rbx, rdx
	mov	rdi, r8
; Line 2402
	sub	rbx, rcx
; Line 2403
	mov	rdx, rcx
	mov	r8, rbx
	mov	rcx, rdi
	call	memmove
; Line 2404
	lea	rax, QWORD PTR [rbx+rdi]
; Line 2405
	mov	rbx, QWORD PTR [rsp+48]
	add	rsp, 32					; 00000020H
	pop	rdi
	ret	0
??$_Copy_memmove@PEBDPEAE@std@@YAPEAEPEBD0PEAE@Z ENDP	; std::_Copy_memmove<char const *,unsigned char *>
_TEXT	ENDS
; Function compile flags: /Ogtpy
;	COMDAT ??$_Copy_n_unchecked4@PEAH_JPEAH@std@@YAPEAHPEAH_J0U_Trivially_copyable_ptr_iterator_tag@0@@Z
_TEXT	SEGMENT
_First$ = 48
_Count$ = 56
_Dest$ = 64
__formal$ = 72
??$_Copy_n_unchecked4@PEAH_JPEAH@std@@YAPEAHPEAH_J0U_Trivially_copyable_ptr_iterator_tag@0@@Z PROC ; std::_Copy_n_unchecked4<int *,__int64,int *>, COMDAT
; File c:\program files (x86)\microsoft visual studio\2017\community\vc\tools\msvc\14.16.27023\include\xutility
; Line 2516
$LN6:
	mov	QWORD PTR [rsp+8], rbx
	push	rdi
	sub	rsp, 32					; 00000020H
	mov	rdi, r8
; Line 2518
	lea	rbx, QWORD PTR [rdx*4]
; Line 2403
	mov	rdx, rcx
	mov	r8, rbx
	mov	rcx, rdi
	call	memmove
; Line 2404
	lea	rax, QWORD PTR [rbx+rdi]
; Line 2519
	mov	rbx, QWORD PTR [rsp+48]
	add	rsp, 32					; 00000020H
	pop	rdi
	ret	0
??$_Copy_n_unchecked4@PEAH_JPEAH@std@@YAPEAHPEAH_J0U_Trivially_copyable_ptr_iterator_tag@0@@Z ENDP ; std::_Copy_n_unchecked4<int *,__int64,int *>
_TEXT	ENDS
; Function compile flags: /Ogtpy
;	COMDAT ??$_Copy_memmove@PEAHPEAH@std@@YAPEAHPEAH00@Z
_TEXT	SEGMENT
_First$ = 48
_Last$ = 56
_Dest$ = 64
??$_Copy_memmove@PEAHPEAH@std@@YAPEAHPEAH00@Z PROC	; std::_Copy_memmove<int *,int *>, COMDAT
; File c:\program files (x86)\microsoft visual studio\2017\community\vc\tools\msvc\14.16.27023\include\xutility
; Line 2398
$LN4:
	mov	QWORD PTR [rsp+8], rbx
	push	rdi
	sub	rsp, 32					; 00000020H
	mov	rbx, rdx
	mov	rdi, r8
; Line 2402
	sub	rbx, rcx
; Line 2403
	mov	rdx, rcx
	mov	r8, rbx
	mov	rcx, rdi
	call	memmove
; Line 2404
	lea	rax, QWORD PTR [rbx+rdi]
; Line 2405
	mov	rbx, QWORD PTR [rsp+48]
	add	rsp, 32					; 00000020H
	pop	rdi
	ret	0
??$_Copy_memmove@PEAHPEAH@std@@YAPEAHPEAH00@Z ENDP	; std::_Copy_memmove<int *,int *>
_TEXT	ENDS
; Function compile flags: /Ogtpy
;	COMDAT ??$?0V?$extent_type@$05@details@gsl@@@?$storage_type@V?$extent_type@$0?0@details@gsl@@@?$span@H$0?0@gsl@@QEAA@PEAHV?$extent_type@$05@details@2@@Z
_TEXT	SEGMENT
$T1 = 32
$T2 = 40
this$ = 80
data$ = 88
$T3 = 96
ext$ = 96
??$?0V?$extent_type@$05@details@gsl@@@?$storage_type@V?$extent_type@$0?0@details@gsl@@@?$span@H$0?0@gsl@@QEAA@PEAHV?$extent_type@$05@details@2@@Z PROC ; gsl::span<int,-1>::storage_type<gsl::details::extent_type<-1> >::storage_type<gsl::details::extent_type<-1> ><gsl::details::extent_type<6> >, COMDAT
; File c:\projects\gsl\include\gsl\span
; Line 597
$LN41:
	mov	BYTE PTR [rsp+24], r8b
	sub	rsp, 72					; 00000048H
	mov	QWORD PTR $T1[rsp], -2
	mov	DWORD PTR $T3[rsp], 0
; Line 333
	mov	QWORD PTR [rcx], 6
; Line 596
	mov	QWORD PTR [rcx+8], rdx
; Line 599
	test	rdx, rdx
	je	SHORT $LN39@extent_typ
; Line 600
	mov	rax, rcx
	add	rsp, 72					; 00000048H
	ret	0
$LN39@extent_typ:
; Line 599
	lea	rdx, OFFSET FLAT:??_C@_0ED@HPBMEGKB@GSL?3?5Precondition?5failure?5at?5c?3@
	lea	rcx, QWORD PTR $T2[rsp]
	call	??0fail_fast@gsl@@QEAA@QEBD@Z		; gsl::fail_fast::fail_fast
	npad	1
	mov	DWORD PTR $T3[rsp], 2
	mov	rcx, rax
	call	??$throw_exception@Ufail_fast@gsl@@@details@gsl@@YAX$$QEAUfail_fast@1@@Z ; gsl::details::throw_exception<gsl::fail_fast>
	int	3
$LN37@extent_typ:
??$?0V?$extent_type@$05@details@gsl@@@?$storage_type@V?$extent_type@$0?0@details@gsl@@@?$span@H$0?0@gsl@@QEAA@PEAHV?$extent_type@$05@details@2@@Z ENDP ; gsl::span<int,-1>::storage_type<gsl::details::extent_type<-1> >::storage_type<gsl::details::extent_type<-1> ><gsl::details::extent_type<6> >
_TEXT	ENDS
;	COMDAT text$x
text$x	SEGMENT
$T1 = 32
$T2 = 40
this$ = 80
data$ = 88
$T3 = 96
ext$ = 96
?dtor$1@?0???$?0V?$extent_type@$05@details@gsl@@@?$storage_type@V?$extent_type@$0?0@details@gsl@@@?$span@H$0?0@gsl@@QEAA@PEAHV?$extent_type@$05@details@2@@Z@4HA PROC ; `gsl::span<int,-1>::storage_type<gsl::details::extent_type<-1> >::storage_type<gsl::details::extent_type<-1> ><gsl::details::extent_type<6> >'::`1'::dtor$1
	push	rbp
	sub	rsp, 32					; 00000020H
	mov	rbp, rdx
	mov	eax, DWORD PTR $T3[rbp]
	and	eax, 2
	test	eax, eax
	je	SHORT $LN11@dtor$1
	and	DWORD PTR $T3[rbp], -3
	lea	rcx, QWORD PTR $T2[rbp]
	call	??1fail_fast@gsl@@UEAA@XZ
$LN11@dtor$1:
	add	rsp, 32					; 00000020H
	pop	rbp
	ret	0
?dtor$1@?0???$?0V?$extent_type@$05@details@gsl@@@?$storage_type@V?$extent_type@$0?0@details@gsl@@@?$span@H$0?0@gsl@@QEAA@PEAHV?$extent_type@$05@details@2@@Z@4HA ENDP ; `gsl::span<int,-1>::storage_type<gsl::details::extent_type<-1> >::storage_type<gsl::details::extent_type<-1> ><gsl::details::extent_type<6> >'::`1'::dtor$1
text$x	ENDS
; Function compile flags: /Ogtpy
;	COMDAT text$x
text$x	SEGMENT
$T1 = 32
$T2 = 40
this$ = 80
data$ = 88
$T3 = 96
ext$ = 96
?dtor$1@?0???$?0V?$extent_type@$05@details@gsl@@@?$storage_type@V?$extent_type@$0?0@details@gsl@@@?$span@H$0?0@gsl@@QEAA@PEAHV?$extent_type@$05@details@2@@Z@4HA PROC ; `gsl::span<int,-1>::storage_type<gsl::details::extent_type<-1> >::storage_type<gsl::details::extent_type<-1> ><gsl::details::extent_type<6> >'::`1'::dtor$1
	push	rbp
	sub	rsp, 32					; 00000020H
	mov	rbp, rdx
	mov	eax, DWORD PTR $T3[rbp]
	and	eax, 2
	test	eax, eax
	je	SHORT $LN11@dtor$1
	and	DWORD PTR $T3[rbp], -3
	lea	rcx, QWORD PTR $T2[rbp]
	call	??1fail_fast@gsl@@UEAA@XZ
$LN11@dtor$1:
	add	rsp, 32					; 00000020H
	pop	rbp
	ret	0
?dtor$1@?0???$?0V?$extent_type@$05@details@gsl@@@?$storage_type@V?$extent_type@$0?0@details@gsl@@@?$span@H$0?0@gsl@@QEAA@PEAHV?$extent_type@$05@details@2@@Z@4HA ENDP ; `gsl::span<int,-1>::storage_type<gsl::details::extent_type<-1> >::storage_type<gsl::details::extent_type<-1> ><gsl::details::extent_type<6> >'::`1'::dtor$1
text$x	ENDS
; Function compile flags: /Ogtpy
;	COMDAT ??$_Seek_wrapped@E@std@@YAXAEAPEAEQEAE@Z
_TEXT	SEGMENT
_It$ = 8
_UIt$ = 16
??$_Seek_wrapped@E@std@@YAXAEAPEAEQEAE@Z PROC		; std::_Seek_wrapped<unsigned char>, COMDAT
; File c:\program files (x86)\microsoft visual studio\2017\community\vc\tools\msvc\14.16.27023\include\xutility
; Line 872
	mov	QWORD PTR [rcx], rdx
; Line 873
	ret	0
??$_Seek_wrapped@E@std@@YAXAEAPEAEQEAE@Z ENDP		; std::_Seek_wrapped<unsigned char>
_TEXT	ENDS
; Function compile flags: /Ogtpy
;	COMDAT ??$_Copy_n_unchecked3@PEBD_JPEAE@std@@YAPEAEPEBD_JPEAE@Z
_TEXT	SEGMENT
_First$ = 48
_Count$ = 56
_Dest$ = 64
??$_Copy_n_unchecked3@PEBD_JPEAE@std@@YAPEAEPEBD_JPEAE@Z PROC ; std::_Copy_n_unchecked3<char const *,__int64,unsigned char *>, COMDAT
; File c:\program files (x86)\microsoft visual studio\2017\community\vc\tools\msvc\14.16.27023\include\xutility
; Line 2526
$LN10:
	mov	QWORD PTR [rsp+8], rbx
	push	rdi
	sub	rsp, 32					; 00000020H
	mov	rdi, r8
	mov	rbx, rdx
; Line 2403
	mov	r8, rdx
	mov	rdx, rcx
	mov	rcx, rdi
	call	memmove
; Line 2404
	lea	rax, QWORD PTR [rbx+rdi]
; Line 2530
	mov	rbx, QWORD PTR [rsp+48]
	add	rsp, 32					; 00000020H
	pop	rdi
	ret	0
??$_Copy_n_unchecked3@PEBD_JPEAE@std@@YAPEAEPEBD_JPEAE@Z ENDP ; std::_Copy_n_unchecked3<char const *,__int64,unsigned char *>
_TEXT	ENDS
; Function compile flags: /Ogtpy
;	COMDAT ??$_Get_unwrapped_n@E_J$0A@@std@@YAPEAEQEAE_J@Z
_TEXT	SEGMENT
_Src$ = 8
__formal$ = 16
??$_Get_unwrapped_n@E_J$0A@@std@@YAPEAEQEAE_J@Z PROC	; std::_Get_unwrapped_n<unsigned char,__int64,0>, COMDAT
; File c:\program files (x86)\microsoft visual studio\2017\community\vc\tools\msvc\14.16.27023\include\xutility
; Line 809
	mov	rax, rcx
; Line 810
	ret	0
??$_Get_unwrapped_n@E_J$0A@@std@@YAPEAEQEAE_J@Z ENDP	; std::_Get_unwrapped_n<unsigned char,__int64,0>
_TEXT	ENDS
; Function compile flags: /Ogtpy
;	COMDAT ??$_Get_unwrapped_n@$$CBD_J$0A@@std@@YAPEBDQEBD_J@Z
_TEXT	SEGMENT
_Src$ = 8
__formal$ = 16
??$_Get_unwrapped_n@$$CBD_J$0A@@std@@YAPEBDQEBD_J@Z PROC ; std::_Get_unwrapped_n<char const ,__int64,0>, COMDAT
; File c:\program files (x86)\microsoft visual studio\2017\community\vc\tools\msvc\14.16.27023\include\xutility
; Line 809
	mov	rax, rcx
; Line 810
	ret	0
??$_Get_unwrapped_n@$$CBD_J$0A@@std@@YAPEBDQEBD_J@Z ENDP ; std::_Get_unwrapped_n<char const ,__int64,0>
_TEXT	ENDS
; Function compile flags: /Ogtpy
;	COMDAT ??$throw_exception@Unarrowing_error@gsl@@@details@gsl@@YAX$$QEAUnarrowing_error@1@@Z
_TEXT	SEGMENT
$T1 = 32
exception$ = 80
??$throw_exception@Unarrowing_error@gsl@@@details@gsl@@YAX$$QEAUnarrowing_error@1@@Z PROC ; gsl::details::throw_exception<gsl::narrowing_error>, COMDAT
; File c:\projects\gsl\include\gsl\gsl_assert
; Line 143
$LN4:
	sub	rsp, 72					; 00000048H
; Line 144
	call	??$forward@Unarrowing_error@gsl@@@std@@YA$$QEAUnarrowing_error@gsl@@AEAU12@@Z ; std::forward<gsl::narrowing_error>
	mov	rdx, rax
	lea	rcx, QWORD PTR $T1[rsp]
	call	??0narrowing_error@gsl@@QEAA@$$QEAU01@@Z
	lea	rdx, OFFSET FLAT:_TI2?AUnarrowing_error@gsl@@
	lea	rcx, QWORD PTR $T1[rsp]
	call	_CxxThrowException
	int	3
$LN3@throw_exce:
??$throw_exception@Unarrowing_error@gsl@@@details@gsl@@YAX$$QEAUnarrowing_error@1@@Z ENDP ; gsl::details::throw_exception<gsl::narrowing_error>
_TEXT	ENDS
; Function compile flags: /Ogtpy
;	COMDAT ??$narrow_cast@_JAEA_J@gsl@@YA_JAEA_J@Z
_TEXT	SEGMENT
u$ = 8
??$narrow_cast@_JAEA_J@gsl@@YA_JAEA_J@Z PROC		; gsl::narrow_cast<__int64,__int64 &>, COMDAT
; File c:\projects\gsl\include\gsl\gsl_util
; Line 100
	mov	rax, QWORD PTR [rcx]
; Line 101
	ret	0
??$narrow_cast@_JAEA_J@gsl@@YA_JAEA_J@Z ENDP		; gsl::narrow_cast<__int64,__int64 &>
_TEXT	ENDS
; Function compile flags: /Ogtpy
;	COMDAT ??$_Copy_unchecked1@PEBDPEAE@std@@YAPEAEPEBD0PEAEU_Trivially_copyable_ptr_iterator_tag@0@@Z
_TEXT	SEGMENT
_First$ = 48
_Last$ = 56
_Dest$ = 64
__formal$ = 72
??$_Copy_unchecked1@PEBDPEAE@std@@YAPEAEPEBD0PEAEU_Trivially_copyable_ptr_iterator_tag@0@@Z PROC ; std::_Copy_unchecked1<char const *,unsigned char *>, COMDAT
; File c:\program files (x86)\microsoft visual studio\2017\community\vc\tools\msvc\14.16.27023\include\xutility
; Line 2424
$LN6:
	mov	QWORD PTR [rsp+8], rbx
	push	rdi
	sub	rsp, 32					; 00000020H
	mov	rbx, rdx
	mov	rdi, r8
; Line 2402
	sub	rbx, rcx
; Line 2403
	mov	rdx, rcx
	mov	r8, rbx
	mov	rcx, rdi
	call	memmove
; Line 2404
	lea	rax, QWORD PTR [rbx+rdi]
; Line 2426
	mov	rbx, QWORD PTR [rsp+48]
	add	rsp, 32					; 00000020H
	pop	rdi
	ret	0
??$_Copy_unchecked1@PEBDPEAE@std@@YAPEAEPEBD0PEAEU_Trivially_copyable_ptr_iterator_tag@0@@Z ENDP ; std::_Copy_unchecked1<char const *,unsigned char *>
_TEXT	ENDS
; Function compile flags: /Ogtpy
;	COMDAT ??$_Ptr_copy_cat@$$CBDE@std@@YA?AU_Really_trivial_ptr_iterator_tag@0@AEBQEBDAEBQEAE@Z
_TEXT	SEGMENT
__$ReturnUdt$ = 8
__formal$ = 16
__formal$ = 24
??$_Ptr_copy_cat@$$CBDE@std@@YA?AU_Really_trivial_ptr_iterator_tag@0@AEBQEBDAEBQEAE@Z PROC ; std::_Ptr_copy_cat<char const ,unsigned char>, COMDAT
; File c:\program files (x86)\microsoft visual studio\2017\community\vc\tools\msvc\14.16.27023\include\xutility
; Line 1070
	mov	rax, rcx
; Line 1071
	ret	0
??$_Ptr_copy_cat@$$CBDE@std@@YA?AU_Really_trivial_ptr_iterator_tag@0@AEBQEBDAEBQEAE@Z ENDP ; std::_Ptr_copy_cat<char const ,unsigned char>
_TEXT	ENDS
; Function compile flags: /Ogtpy
;	COMDAT ??$_Adl_verify_range1@V?$span_iterator@V?$span@$$CBD$0?0@gsl@@$0A@@details@gsl@@V123@@std@@YAXAEBV?$span_iterator@V?$span@$$CBD$0?0@gsl@@$0A@@details@gsl@@0U?$integral_constant@_N$00@0@@Z
_TEXT	SEGMENT
$T1 = 32
$T2 = 48
$T3 = 64
$T4 = 64
_First$ = 112
_Last$ = 120
__formal$ = 128
??$_Adl_verify_range1@V?$span_iterator@V?$span@$$CBD$0?0@gsl@@$0A@@details@gsl@@V123@@std@@YAXAEBV?$span_iterator@V?$span@$$CBD$0?0@gsl@@$0A@@details@gsl@@0U?$integral_constant@_N$00@0@@Z PROC ; std::_Adl_verify_range1<gsl::details::span_iterator<gsl::span<char const ,-1>,0>,gsl::details::span_iterator<gsl::span<char const ,-1>,0> >, COMDAT
; File c:\program files (x86)\microsoft visual studio\2017\community\vc\tools\msvc\14.16.27023\include\xutility
; Line 602
$LN21:
	sub	rsp, 104				; 00000068H
	mov	QWORD PTR $T1[rsp], -2
; Line 603
	movups	xmm1, XMMWORD PTR [rdx]
	movaps	XMMWORD PTR $T2[rsp], xmm1
	movups	xmm0, XMMWORD PTR [rcx]
	movaps	XMMWORD PTR $T4[rsp], xmm0
; File c:\projects\gsl\include\gsl\span
; Line 265
	movq	rcx, xmm0
	movq	rax, xmm1
	cmp	rcx, rax
	jne	SHORT $LN5@Adl_verify
	mov	rax, QWORD PTR $T2[rsp+8]
	cmp	QWORD PTR $T4[rsp+8], rax
	jg	SHORT $LN5@Adl_verify
; File c:\program files (x86)\microsoft visual studio\2017\community\vc\tools\msvc\14.16.27023\include\xutility
; Line 604
	add	rsp, 104				; 00000068H
	ret	0
$LN5@Adl_verify:
; File c:\projects\gsl\include\gsl\span
; Line 265
	lea	rdx, OFFSET FLAT:??_C@_0ED@GOAPCFOK@GSL?3?5Precondition?5failure?5at?5c?3@
	lea	rcx, QWORD PTR $T3[rsp]
	call	??0fail_fast@gsl@@QEAA@QEBD@Z		; gsl::fail_fast::fail_fast
	mov	rcx, rax
	call	??$throw_exception@Ufail_fast@gsl@@@details@gsl@@YAX$$QEAUfail_fast@1@@Z ; gsl::details::throw_exception<gsl::fail_fast>
	int	3
$LN18@Adl_verify:
??$_Adl_verify_range1@V?$span_iterator@V?$span@$$CBD$0?0@gsl@@$0A@@details@gsl@@V123@@std@@YAXAEBV?$span_iterator@V?$span@$$CBD$0?0@gsl@@$0A@@details@gsl@@0U?$integral_constant@_N$00@0@@Z ENDP ; std::_Adl_verify_range1<gsl::details::span_iterator<gsl::span<char const ,-1>,0>,gsl::details::span_iterator<gsl::span<char const ,-1>,0> >
_TEXT	ENDS
; Function compile flags: /Ogtpy
;	COMDAT ??$ensure_sentinel@$$CBD$0A@@gsl@@YA?AV?$span@$$CBD$0?0@0@PEBD_J@Z
_TEXT	SEGMENT
$T1 = 32
$T2 = 40
$T3 = 40
__$ReturnUdt$ = 80
$T4 = 88
seq$ = 88
max$ = 96
??$ensure_sentinel@$$CBD$0A@@gsl@@YA?AV?$span@$$CBD$0?0@0@PEBD_J@Z PROC ; gsl::ensure_sentinel<char const ,0>, COMDAT
; File c:\projects\gsl\include\gsl\string_span
; Line 113
$LN52:
	push	rbx
	sub	rsp, 64					; 00000040H
	mov	QWORD PTR $T1[rsp], -2
	mov	r9, r8
	mov	rbx, rcx
	mov	DWORD PTR $T4[rsp], 0
; Line 114
	test	rdx, rdx
	je	SHORT $LN5@ensure_sen
; Line 117
	mov	r8, rdx
; Line 121
	test	r9, r9
	jle	SHORT $LN3@ensure_sen
	npad	6
$LL2@ensure_sen:
	cmp	BYTE PTR [r8], 0
	je	SHORT $LN48@ensure_sen
	inc	r8
	mov	rax, r8
	sub	rax, rdx
	cmp	rax, r9
	jl	SHORT $LL2@ensure_sen
$LN3@ensure_sen:
; Line 122
	cmp	BYTE PTR [r8], 0
	jne	SHORT $LN9@ensure_sen
$LN48@ensure_sen:
; Line 123
	sub	r8, rdx
	call	??0?$span@$$CBD$0?0@gsl@@QEAA@PEBD_J@Z	; gsl::span<char const ,-1>::span<char const ,-1>
	mov	rax, rbx
; Line 124
	add	rsp, 64					; 00000040H
	pop	rbx
	ret	0
$LN9@ensure_sen:
; Line 122
	lea	rdx, OFFSET FLAT:??_C@_0EL@CANAMLLN@GSL?3?5Postcondition?5failure?5at?5c@
	lea	rcx, QWORD PTR $T2[rsp]
	call	??0fail_fast@gsl@@QEAA@QEBD@Z		; gsl::fail_fast::fail_fast
	npad	1
	mov	DWORD PTR $T4[rsp], 4
	mov	rcx, rax
	call	??$throw_exception@Ufail_fast@gsl@@@details@gsl@@YAX$$QEAUfail_fast@1@@Z ; gsl::details::throw_exception<gsl::fail_fast>
	npad	1
$LN5@ensure_sen:
; Line 114
	lea	rdx, OFFSET FLAT:??_C@_0EL@HEMMNCGC@GSL?3?5Postcondition?5failure?5at?5c@
	lea	rcx, QWORD PTR $T3[rsp]
	call	??0fail_fast@gsl@@QEAA@QEBD@Z		; gsl::fail_fast::fail_fast
	npad	1
	mov	DWORD PTR $T4[rsp], 1
	mov	rcx, rax
	call	??$throw_exception@Ufail_fast@gsl@@@details@gsl@@YAX$$QEAUfail_fast@1@@Z ; gsl::details::throw_exception<gsl::fail_fast>
	int	3
$LN49@ensure_sen:
??$ensure_sentinel@$$CBD$0A@@gsl@@YA?AV?$span@$$CBD$0?0@0@PEBD_J@Z ENDP ; gsl::ensure_sentinel<char const ,0>
_TEXT	ENDS
;	COMDAT text$x
text$x	SEGMENT
$T1 = 32
$T2 = 40
$T3 = 40
__$ReturnUdt$ = 80
$T4 = 88
seq$ = 88
max$ = 96
?dtor$0@?0???$ensure_sentinel@$$CBD$0A@@gsl@@YA?AV?$span@$$CBD$0?0@0@PEBD_J@Z@4HA PROC ; `gsl::ensure_sentinel<char const ,0>'::`1'::dtor$0
	push	rbp
	sub	rsp, 32					; 00000020H
	mov	rbp, rdx
	mov	eax, DWORD PTR $T4[rbp]
	and	eax, 1
	test	eax, eax
	je	SHORT $LN12@dtor$0
	and	DWORD PTR $T4[rbp], -2
	lea	rcx, QWORD PTR $T3[rbp]
	call	??1fail_fast@gsl@@UEAA@XZ
$LN12@dtor$0:
	add	rsp, 32					; 00000020H
	pop	rbp
	ret	0
?dtor$0@?0???$ensure_sentinel@$$CBD$0A@@gsl@@YA?AV?$span@$$CBD$0?0@0@PEBD_J@Z@4HA ENDP ; `gsl::ensure_sentinel<char const ,0>'::`1'::dtor$0
text$x	ENDS
;	COMDAT text$x
text$x	SEGMENT
$T1 = 32
$T2 = 40
$T3 = 40
__$ReturnUdt$ = 80
$T4 = 88
seq$ = 88
max$ = 96
?dtor$2@?0???$ensure_sentinel@$$CBD$0A@@gsl@@YA?AV?$span@$$CBD$0?0@0@PEBD_J@Z@4HA PROC ; `gsl::ensure_sentinel<char const ,0>'::`1'::dtor$2
	push	rbp
	sub	rsp, 32					; 00000020H
	mov	rbp, rdx
	mov	eax, DWORD PTR $T4[rbp]
	and	eax, 4
	test	eax, eax
	je	SHORT $LN18@dtor$2
	and	DWORD PTR $T4[rbp], -5
	lea	rcx, QWORD PTR $T2[rbp]
	call	??1fail_fast@gsl@@UEAA@XZ
$LN18@dtor$2:
	add	rsp, 32					; 00000020H
	pop	rbp
	ret	0
?dtor$2@?0???$ensure_sentinel@$$CBD$0A@@gsl@@YA?AV?$span@$$CBD$0?0@0@PEBD_J@Z@4HA ENDP ; `gsl::ensure_sentinel<char const ,0>'::`1'::dtor$2
text$x	ENDS
; Function compile flags: /Ogtpy
;	COMDAT text$x
text$x	SEGMENT
$T1 = 32
$T2 = 40
$T3 = 40
__$ReturnUdt$ = 80
$T4 = 88
seq$ = 88
max$ = 96
?dtor$0@?0???$ensure_sentinel@$$CBD$0A@@gsl@@YA?AV?$span@$$CBD$0?0@0@PEBD_J@Z@4HA PROC ; `gsl::ensure_sentinel<char const ,0>'::`1'::dtor$0
	push	rbp
	sub	rsp, 32					; 00000020H
	mov	rbp, rdx
	mov	eax, DWORD PTR $T4[rbp]
	and	eax, 1
	test	eax, eax
	je	SHORT $LN12@dtor$0
	and	DWORD PTR $T4[rbp], -2
	lea	rcx, QWORD PTR $T3[rbp]
	call	??1fail_fast@gsl@@UEAA@XZ
$LN12@dtor$0:
	add	rsp, 32					; 00000020H
	pop	rbp
	ret	0
?dtor$0@?0???$ensure_sentinel@$$CBD$0A@@gsl@@YA?AV?$span@$$CBD$0?0@0@PEBD_J@Z@4HA ENDP ; `gsl::ensure_sentinel<char const ,0>'::`1'::dtor$0
text$x	ENDS
; Function compile flags: /Ogtpy
;	COMDAT text$x
text$x	SEGMENT
$T1 = 32
$T2 = 40
$T3 = 40
__$ReturnUdt$ = 80
$T4 = 88
seq$ = 88
max$ = 96
?dtor$2@?0???$ensure_sentinel@$$CBD$0A@@gsl@@YA?AV?$span@$$CBD$0?0@0@PEBD_J@Z@4HA PROC ; `gsl::ensure_sentinel<char const ,0>'::`1'::dtor$2
	push	rbp
	sub	rsp, 32					; 00000020H
	mov	rbp, rdx
	mov	eax, DWORD PTR $T4[rbp]
	and	eax, 4
	test	eax, eax
	je	SHORT $LN18@dtor$2
	and	DWORD PTR $T4[rbp], -5
	lea	rcx, QWORD PTR $T2[rbp]
	call	??1fail_fast@gsl@@UEAA@XZ
$LN18@dtor$2:
	add	rsp, 32					; 00000020H
	pop	rbp
	ret	0
?dtor$2@?0???$ensure_sentinel@$$CBD$0A@@gsl@@YA?AV?$span@$$CBD$0?0@0@PEBD_J@Z@4HA ENDP ; `gsl::ensure_sentinel<char const ,0>'::`1'::dtor$2
text$x	ENDS
; Function compile flags: /Ogtpy
;	COMDAT ??$forward@_K@std@@YA$$QEA_KAEA_K@Z
_TEXT	SEGMENT
_Arg$ = 8
??$forward@_K@std@@YA$$QEA_KAEA_K@Z PROC		; std::forward<unsigned __int64>, COMDAT
; File c:\program files (x86)\microsoft visual studio\2017\community\vc\tools\msvc\14.16.27023\include\type_traits
; Line 1574
	mov	rax, rcx
; Line 1575
	ret	0
??$forward@_K@std@@YA$$QEA_KAEA_K@Z ENDP		; std::forward<unsigned __int64>
_TEXT	ENDS
; Function compile flags: /Ogtpy
;	COMDAT ??$?0$09@?$extent_type@$0?0@details@gsl@@QEAA@V?$extent_type@$09@12@@Z
_TEXT	SEGMENT
this$ = 8
ext$ = 16
??$?0$09@?$extent_type@$0?0@details@gsl@@QEAA@V?$extent_type@$09@12@@Z PROC ; gsl::details::extent_type<-1>::extent_type<-1><10>, COMDAT
; File c:\projects\gsl\include\gsl\span
; Line 333
	mov	QWORD PTR [rcx], 10
; Line 334
	mov	rax, rcx
	ret	0
??$?0$09@?$extent_type@$0?0@details@gsl@@QEAA@V?$extent_type@$09@12@@Z ENDP ; gsl::details::extent_type<-1>::extent_type<-1><10>
_TEXT	ENDS
; Function compile flags: /Ogtpy
;	COMDAT ??$_Seek_wrapped@H@std@@YAXAEAPEAHQEAH@Z
_TEXT	SEGMENT
_It$ = 8
_UIt$ = 16
??$_Seek_wrapped@H@std@@YAXAEAPEAHQEAH@Z PROC		; std::_Seek_wrapped<int>, COMDAT
; File c:\program files (x86)\microsoft visual studio\2017\community\vc\tools\msvc\14.16.27023\include\xutility
; Line 872
	mov	QWORD PTR [rcx], rdx
; Line 873
	ret	0
??$_Seek_wrapped@H@std@@YAXAEAPEAHQEAH@Z ENDP		; std::_Seek_wrapped<int>
_TEXT	ENDS
; Function compile flags: /Ogtpy
;	COMDAT ??$_Copy_n_unchecked3@PEAH_JPEAH@std@@YAPEAHPEAH_J0@Z
_TEXT	SEGMENT
_First$ = 48
_Count$ = 56
_Dest$ = 64
??$_Copy_n_unchecked3@PEAH_JPEAH@std@@YAPEAHPEAH_J0@Z PROC ; std::_Copy_n_unchecked3<int *,__int64,int *>, COMDAT
; File c:\program files (x86)\microsoft visual studio\2017\community\vc\tools\msvc\14.16.27023\include\xutility
; Line 2526
$LN10:
	mov	QWORD PTR [rsp+8], rbx
	push	rdi
	sub	rsp, 32					; 00000020H
	mov	rdi, r8
; Line 2518
	lea	rbx, QWORD PTR [rdx*4]
; Line 2403
	mov	rdx, rcx
	mov	r8, rbx
	mov	rcx, rdi
	call	memmove
; Line 2404
	lea	rax, QWORD PTR [rbx+rdi]
; Line 2530
	mov	rbx, QWORD PTR [rsp+48]
	add	rsp, 32					; 00000020H
	pop	rdi
	ret	0
??$_Copy_n_unchecked3@PEAH_JPEAH@std@@YAPEAHPEAH_J0@Z ENDP ; std::_Copy_n_unchecked3<int *,__int64,int *>
_TEXT	ENDS
; Function compile flags: /Ogtpy
;	COMDAT ??$_Get_unwrapped_n@H_J$0A@@std@@YAPEAHQEAH_J@Z
_TEXT	SEGMENT
_Src$ = 8
__formal$ = 16
??$_Get_unwrapped_n@H_J$0A@@std@@YAPEAHQEAH_J@Z PROC	; std::_Get_unwrapped_n<int,__int64,0>, COMDAT
; File c:\program files (x86)\microsoft visual studio\2017\community\vc\tools\msvc\14.16.27023\include\xutility
; Line 809
	mov	rax, rcx
; Line 810
	ret	0
??$_Get_unwrapped_n@H_J$0A@@std@@YAPEAHQEAH_J@Z ENDP	; std::_Get_unwrapped_n<int,__int64,0>
_TEXT	ENDS
; Function compile flags: /Ogtpy
;	COMDAT ??$_Copy_unchecked1@PEAHPEAH@std@@YAPEAHPEAH00U_Trivially_copyable_ptr_iterator_tag@0@@Z
_TEXT	SEGMENT
_First$ = 48
_Last$ = 56
_Dest$ = 64
__formal$ = 72
??$_Copy_unchecked1@PEAHPEAH@std@@YAPEAHPEAH00U_Trivially_copyable_ptr_iterator_tag@0@@Z PROC ; std::_Copy_unchecked1<int *,int *>, COMDAT
; File c:\program files (x86)\microsoft visual studio\2017\community\vc\tools\msvc\14.16.27023\include\xutility
; Line 2424
$LN6:
	mov	QWORD PTR [rsp+8], rbx
	push	rdi
	sub	rsp, 32					; 00000020H
	mov	rbx, rdx
	mov	rdi, r8
; Line 2402
	sub	rbx, rcx
; Line 2403
	mov	rdx, rcx
	mov	r8, rbx
	mov	rcx, rdi
	call	memmove
; Line 2404
	lea	rax, QWORD PTR [rbx+rdi]
; Line 2426
	mov	rbx, QWORD PTR [rsp+48]
	add	rsp, 32					; 00000020H
	pop	rdi
	ret	0
??$_Copy_unchecked1@PEAHPEAH@std@@YAPEAHPEAH00U_Trivially_copyable_ptr_iterator_tag@0@@Z ENDP ; std::_Copy_unchecked1<int *,int *>
_TEXT	ENDS
; Function compile flags: /Ogtpy
;	COMDAT ??$_Ptr_copy_cat@HH@std@@YA?AU_Really_trivial_ptr_iterator_tag@0@AEBQEAH0@Z
_TEXT	SEGMENT
__$ReturnUdt$ = 8
__formal$ = 16
__formal$ = 24
??$_Ptr_copy_cat@HH@std@@YA?AU_Really_trivial_ptr_iterator_tag@0@AEBQEAH0@Z PROC ; std::_Ptr_copy_cat<int,int>, COMDAT
; File c:\program files (x86)\microsoft visual studio\2017\community\vc\tools\msvc\14.16.27023\include\xutility
; Line 1070
	mov	rax, rcx
; Line 1071
	ret	0
??$_Ptr_copy_cat@HH@std@@YA?AU_Really_trivial_ptr_iterator_tag@0@AEBQEAH0@Z ENDP ; std::_Ptr_copy_cat<int,int>
_TEXT	ENDS
; Function compile flags: /Ogtpy
;	COMDAT ??$_Adl_verify_range1@V?$span_iterator@V?$span@H$0?0@gsl@@$0A@@details@gsl@@V123@@std@@YAXAEBV?$span_iterator@V?$span@H$0?0@gsl@@$0A@@details@gsl@@0U?$integral_constant@_N$00@0@@Z
_TEXT	SEGMENT
$T1 = 32
$T2 = 48
$T3 = 64
$T4 = 64
_First$ = 112
_Last$ = 120
__formal$ = 128
??$_Adl_verify_range1@V?$span_iterator@V?$span@H$0?0@gsl@@$0A@@details@gsl@@V123@@std@@YAXAEBV?$span_iterator@V?$span@H$0?0@gsl@@$0A@@details@gsl@@0U?$integral_constant@_N$00@0@@Z PROC ; std::_Adl_verify_range1<gsl::details::span_iterator<gsl::span<int,-1>,0>,gsl::details::span_iterator<gsl::span<int,-1>,0> >, COMDAT
; File c:\program files (x86)\microsoft visual studio\2017\community\vc\tools\msvc\14.16.27023\include\xutility
; Line 602
$LN21:
	sub	rsp, 104				; 00000068H
	mov	QWORD PTR $T1[rsp], -2
; Line 603
	movups	xmm1, XMMWORD PTR [rdx]
	movaps	XMMWORD PTR $T2[rsp], xmm1
	movups	xmm0, XMMWORD PTR [rcx]
	movaps	XMMWORD PTR $T4[rsp], xmm0
; File c:\projects\gsl\include\gsl\span
; Line 265
	movq	rcx, xmm0
	movq	rax, xmm1
	cmp	rcx, rax
	jne	SHORT $LN5@Adl_verify
	mov	rax, QWORD PTR $T2[rsp+8]
	cmp	QWORD PTR $T4[rsp+8], rax
	jg	SHORT $LN5@Adl_verify
; File c:\program files (x86)\microsoft visual studio\2017\community\vc\tools\msvc\14.16.27023\include\xutility
; Line 604
	add	rsp, 104				; 00000068H
	ret	0
$LN5@Adl_verify:
; File c:\projects\gsl\include\gsl\span
; Line 265
	lea	rdx, OFFSET FLAT:??_C@_0ED@GOAPCFOK@GSL?3?5Precondition?5failure?5at?5c?3@
	lea	rcx, QWORD PTR $T3[rsp]
	call	??0fail_fast@gsl@@QEAA@QEBD@Z		; gsl::fail_fast::fail_fast
	mov	rcx, rax
	call	??$throw_exception@Ufail_fast@gsl@@@details@gsl@@YAX$$QEAUfail_fast@1@@Z ; gsl::details::throw_exception<gsl::fail_fast>
	int	3
$LN18@Adl_verify:
??$_Adl_verify_range1@V?$span_iterator@V?$span@H$0?0@gsl@@$0A@@details@gsl@@V123@@std@@YAXAEBV?$span_iterator@V?$span@H$0?0@gsl@@$0A@@details@gsl@@0U?$integral_constant@_N$00@0@@Z ENDP ; std::_Adl_verify_range1<gsl::details::span_iterator<gsl::span<int,-1>,0>,gsl::details::span_iterator<gsl::span<int,-1>,0> >
_TEXT	ENDS
; Function compile flags: /Ogtpy
;	COMDAT ??$?0$0A@@?$extent_type@$0?0@details@gsl@@QEAA@V?$extent_type@$0A@@12@@Z
_TEXT	SEGMENT
this$ = 8
ext$ = 16
??$?0$0A@@?$extent_type@$0?0@details@gsl@@QEAA@V?$extent_type@$0A@@12@@Z PROC ; gsl::details::extent_type<-1>::extent_type<-1><0>, COMDAT
; File c:\projects\gsl\include\gsl\span
; Line 333
	mov	QWORD PTR [rcx], 0
; Line 334
	mov	rax, rcx
	ret	0
??$?0$0A@@?$extent_type@$0?0@details@gsl@@QEAA@V?$extent_type@$0A@@12@@Z ENDP ; gsl::details::extent_type<-1>::extent_type<-1><0>
_TEXT	ENDS
; Function compile flags: /Ogtpy
;	COMDAT ??$?0$05@?$extent_type@$0?0@details@gsl@@QEAA@V?$extent_type@$05@12@@Z
_TEXT	SEGMENT
this$ = 8
ext$ = 16
??$?0$05@?$extent_type@$0?0@details@gsl@@QEAA@V?$extent_type@$05@12@@Z PROC ; gsl::details::extent_type<-1>::extent_type<-1><6>, COMDAT
; File c:\projects\gsl\include\gsl\span
; Line 333
	mov	QWORD PTR [rcx], 6
; Line 334
	mov	rax, rcx
	ret	0
??$?0$05@?$extent_type@$0?0@details@gsl@@QEAA@V?$extent_type@$05@12@@Z ENDP ; gsl::details::extent_type<-1>::extent_type<-1><6>
_TEXT	ENDS
; Function compile flags: /Ogtpy
;	COMDAT ??$?0_J@?$storage_type@V?$extent_type@$0?0@details@gsl@@@?$span@E$0?0@gsl@@QEAA@PEAE_J@Z
_TEXT	SEGMENT
$T1 = 32
$T2 = 40
$T3 = 40
$T4 = 80
this$ = 80
data$ = 88
ext$ = 96
??$?0_J@?$storage_type@V?$extent_type@$0?0@details@gsl@@@?$span@E$0?0@gsl@@QEAA@PEAE_J@Z PROC ; gsl::span<unsigned char,-1>::storage_type<gsl::details::extent_type<-1> >::storage_type<gsl::details::extent_type<-1> ><__int64>, COMDAT
; File c:\projects\gsl\include\gsl\span
; Line 597
$LN53:
	sub	rsp, 72					; 00000048H
	mov	QWORD PTR $T1[rsp], -2
	mov	DWORD PTR $T4[rsp], 0
; Line 336
	mov	QWORD PTR [rcx], r8
	test	r8, r8
	js	SHORT $LN15@extent_typ
; Line 596
	mov	QWORD PTR [rcx+8], rdx
; Line 599
	test	rdx, rdx
	jne	SHORT $LN5@extent_typ
	test	r8, r8
	jne	SHORT $LN51@extent_typ
$LN5@extent_typ:
; Line 600
	mov	rax, rcx
	add	rsp, 72					; 00000048H
	ret	0
$LN51@extent_typ:
; Line 599
	lea	rdx, OFFSET FLAT:??_C@_0ED@HPBMEGKB@GSL?3?5Precondition?5failure?5at?5c?3@
	lea	rcx, QWORD PTR $T3[rsp]
	call	??0fail_fast@gsl@@QEAA@QEBD@Z		; gsl::fail_fast::fail_fast
	npad	1
	mov	DWORD PTR $T4[rsp], 2
	mov	rcx, rax
	call	??$throw_exception@Ufail_fast@gsl@@@details@gsl@@YAX$$QEAUfail_fast@1@@Z ; gsl::details::throw_exception<gsl::fail_fast>
	npad	1
$LN15@extent_typ:
; Line 336
	lea	rdx, OFFSET FLAT:??_C@_0ED@NAHIIAGE@GSL?3?5Precondition?5failure?5at?5c?3@
	lea	rcx, QWORD PTR $T2[rsp]
	call	??0fail_fast@gsl@@QEAA@QEBD@Z		; gsl::fail_fast::fail_fast
	npad	1
	mov	DWORD PTR $T4[rsp], 4
	mov	rcx, rax
	call	??$throw_exception@Ufail_fast@gsl@@@details@gsl@@YAX$$QEAUfail_fast@1@@Z ; gsl::details::throw_exception<gsl::fail_fast>
	int	3
$LN49@extent_typ:
??$?0_J@?$storage_type@V?$extent_type@$0?0@details@gsl@@@?$span@E$0?0@gsl@@QEAA@PEAE_J@Z ENDP ; gsl::span<unsigned char,-1>::storage_type<gsl::details::extent_type<-1> >::storage_type<gsl::details::extent_type<-1> ><__int64>
_TEXT	ENDS
;	COMDAT text$x
text$x	SEGMENT
$T1 = 32
$T2 = 40
$T3 = 40
$T4 = 80
this$ = 80
data$ = 88
ext$ = 96
?dtor$2@?0???$?0_J@?$storage_type@V?$extent_type@$0?0@details@gsl@@@?$span@E$0?0@gsl@@QEAA@PEAE_J@Z@4HA PROC ; `gsl::span<unsigned char,-1>::storage_type<gsl::details::extent_type<-1> >::storage_type<gsl::details::extent_type<-1> ><__int64>'::`1'::dtor$2
	push	rbp
	sub	rsp, 32					; 00000020H
	mov	rbp, rdx
	mov	eax, DWORD PTR $T4[rbp]
	and	eax, 4
	test	eax, eax
	je	SHORT $LN18@dtor$2
	and	DWORD PTR $T4[rbp], -5
	lea	rcx, QWORD PTR $T2[rbp]
	call	??1fail_fast@gsl@@UEAA@XZ
$LN18@dtor$2:
	add	rsp, 32					; 00000020H
	pop	rbp
	ret	0
?dtor$2@?0???$?0_J@?$storage_type@V?$extent_type@$0?0@details@gsl@@@?$span@E$0?0@gsl@@QEAA@PEAE_J@Z@4HA ENDP ; `gsl::span<unsigned char,-1>::storage_type<gsl::details::extent_type<-1> >::storage_type<gsl::details::extent_type<-1> ><__int64>'::`1'::dtor$2
text$x	ENDS
;	COMDAT text$x
text$x	SEGMENT
$T1 = 32
$T2 = 40
$T3 = 40
$T4 = 80
this$ = 80
data$ = 88
ext$ = 96
?dtor$1@?0???$?0_J@?$storage_type@V?$extent_type@$0?0@details@gsl@@@?$span@E$0?0@gsl@@QEAA@PEAE_J@Z@4HA PROC ; `gsl::span<unsigned char,-1>::storage_type<gsl::details::extent_type<-1> >::storage_type<gsl::details::extent_type<-1> ><__int64>'::`1'::dtor$1
	push	rbp
	sub	rsp, 32					; 00000020H
	mov	rbp, rdx
	mov	eax, DWORD PTR $T4[rbp]
	and	eax, 2
	test	eax, eax
	je	SHORT $LN11@dtor$1
	and	DWORD PTR $T4[rbp], -3
	lea	rcx, QWORD PTR $T3[rbp]
	call	??1fail_fast@gsl@@UEAA@XZ
$LN11@dtor$1:
	add	rsp, 32					; 00000020H
	pop	rbp
	ret	0
?dtor$1@?0???$?0_J@?$storage_type@V?$extent_type@$0?0@details@gsl@@@?$span@E$0?0@gsl@@QEAA@PEAE_J@Z@4HA ENDP ; `gsl::span<unsigned char,-1>::storage_type<gsl::details::extent_type<-1> >::storage_type<gsl::details::extent_type<-1> ><__int64>'::`1'::dtor$1
text$x	ENDS
; Function compile flags: /Ogtpy
;	COMDAT text$x
text$x	SEGMENT
$T1 = 32
$T2 = 40
$T3 = 40
$T4 = 80
this$ = 80
data$ = 88
ext$ = 96
?dtor$2@?0???$?0_J@?$storage_type@V?$extent_type@$0?0@details@gsl@@@?$span@E$0?0@gsl@@QEAA@PEAE_J@Z@4HA PROC ; `gsl::span<unsigned char,-1>::storage_type<gsl::details::extent_type<-1> >::storage_type<gsl::details::extent_type<-1> ><__int64>'::`1'::dtor$2
	push	rbp
	sub	rsp, 32					; 00000020H
	mov	rbp, rdx
	mov	eax, DWORD PTR $T4[rbp]
	and	eax, 4
	test	eax, eax
	je	SHORT $LN18@dtor$2
	and	DWORD PTR $T4[rbp], -5
	lea	rcx, QWORD PTR $T2[rbp]
	call	??1fail_fast@gsl@@UEAA@XZ
$LN18@dtor$2:
	add	rsp, 32					; 00000020H
	pop	rbp
	ret	0
?dtor$2@?0???$?0_J@?$storage_type@V?$extent_type@$0?0@details@gsl@@@?$span@E$0?0@gsl@@QEAA@PEAE_J@Z@4HA ENDP ; `gsl::span<unsigned char,-1>::storage_type<gsl::details::extent_type<-1> >::storage_type<gsl::details::extent_type<-1> ><__int64>'::`1'::dtor$2
text$x	ENDS
; Function compile flags: /Ogtpy
;	COMDAT text$x
text$x	SEGMENT
$T1 = 32
$T2 = 40
$T3 = 40
$T4 = 80
this$ = 80
data$ = 88
ext$ = 96
?dtor$1@?0???$?0_J@?$storage_type@V?$extent_type@$0?0@details@gsl@@@?$span@E$0?0@gsl@@QEAA@PEAE_J@Z@4HA PROC ; `gsl::span<unsigned char,-1>::storage_type<gsl::details::extent_type<-1> >::storage_type<gsl::details::extent_type<-1> ><__int64>'::`1'::dtor$1
	push	rbp
	sub	rsp, 32					; 00000020H
	mov	rbp, rdx
	mov	eax, DWORD PTR $T4[rbp]
	and	eax, 2
	test	eax, eax
	je	SHORT $LN11@dtor$1
	and	DWORD PTR $T4[rbp], -3
	lea	rcx, QWORD PTR $T3[rbp]
	call	??1fail_fast@gsl@@UEAA@XZ
$LN11@dtor$1:
	add	rsp, 32					; 00000020H
	pop	rbp
	ret	0
?dtor$1@?0???$?0_J@?$storage_type@V?$extent_type@$0?0@details@gsl@@@?$span@E$0?0@gsl@@QEAA@PEAE_J@Z@4HA ENDP ; `gsl::span<unsigned char,-1>::storage_type<gsl::details::extent_type<-1> >::storage_type<gsl::details::extent_type<-1> ><__int64>'::`1'::dtor$1
text$x	ENDS
; Function compile flags: /Ogtpy
;	COMDAT ??$?0_J@?$storage_type@V?$extent_type@$0?0@details@gsl@@@?$span@$$CBD$0?0@gsl@@QEAA@PEBD_J@Z
_TEXT	SEGMENT
$T1 = 32
$T2 = 40
$T3 = 40
$T4 = 80
this$ = 80
data$ = 88
ext$ = 96
??$?0_J@?$storage_type@V?$extent_type@$0?0@details@gsl@@@?$span@$$CBD$0?0@gsl@@QEAA@PEBD_J@Z PROC ; gsl::span<char const ,-1>::storage_type<gsl::details::extent_type<-1> >::storage_type<gsl::details::extent_type<-1> ><__int64>, COMDAT
; File c:\projects\gsl\include\gsl\span
; Line 597
$LN53:
	sub	rsp, 72					; 00000048H
	mov	QWORD PTR $T1[rsp], -2
	mov	DWORD PTR $T4[rsp], 0
; Line 336
	mov	QWORD PTR [rcx], r8
	test	r8, r8
	js	SHORT $LN15@extent_typ
; Line 596
	mov	QWORD PTR [rcx+8], rdx
; Line 599
	test	rdx, rdx
	jne	SHORT $LN5@extent_typ
	test	r8, r8
	jne	SHORT $LN51@extent_typ
$LN5@extent_typ:
; Line 600
	mov	rax, rcx
	add	rsp, 72					; 00000048H
	ret	0
$LN51@extent_typ:
; Line 599
	lea	rdx, OFFSET FLAT:??_C@_0ED@HPBMEGKB@GSL?3?5Precondition?5failure?5at?5c?3@
	lea	rcx, QWORD PTR $T3[rsp]
	call	??0fail_fast@gsl@@QEAA@QEBD@Z		; gsl::fail_fast::fail_fast
	npad	1
	mov	DWORD PTR $T4[rsp], 2
	mov	rcx, rax
	call	??$throw_exception@Ufail_fast@gsl@@@details@gsl@@YAX$$QEAUfail_fast@1@@Z ; gsl::details::throw_exception<gsl::fail_fast>
	npad	1
$LN15@extent_typ:
; Line 336
	lea	rdx, OFFSET FLAT:??_C@_0ED@NAHIIAGE@GSL?3?5Precondition?5failure?5at?5c?3@
	lea	rcx, QWORD PTR $T2[rsp]
	call	??0fail_fast@gsl@@QEAA@QEBD@Z		; gsl::fail_fast::fail_fast
	npad	1
	mov	DWORD PTR $T4[rsp], 4
	mov	rcx, rax
	call	??$throw_exception@Ufail_fast@gsl@@@details@gsl@@YAX$$QEAUfail_fast@1@@Z ; gsl::details::throw_exception<gsl::fail_fast>
	int	3
$LN49@extent_typ:
??$?0_J@?$storage_type@V?$extent_type@$0?0@details@gsl@@@?$span@$$CBD$0?0@gsl@@QEAA@PEBD_J@Z ENDP ; gsl::span<char const ,-1>::storage_type<gsl::details::extent_type<-1> >::storage_type<gsl::details::extent_type<-1> ><__int64>
_TEXT	ENDS
;	COMDAT text$x
text$x	SEGMENT
$T1 = 32
$T2 = 40
$T3 = 40
$T4 = 80
this$ = 80
data$ = 88
ext$ = 96
?dtor$2@?0???$?0_J@?$storage_type@V?$extent_type@$0?0@details@gsl@@@?$span@$$CBD$0?0@gsl@@QEAA@PEBD_J@Z@4HA PROC ; `gsl::span<char const ,-1>::storage_type<gsl::details::extent_type<-1> >::storage_type<gsl::details::extent_type<-1> ><__int64>'::`1'::dtor$2
	push	rbp
	sub	rsp, 32					; 00000020H
	mov	rbp, rdx
	mov	eax, DWORD PTR $T4[rbp]
	and	eax, 4
	test	eax, eax
	je	SHORT $LN18@dtor$2
	and	DWORD PTR $T4[rbp], -5
	lea	rcx, QWORD PTR $T2[rbp]
	call	??1fail_fast@gsl@@UEAA@XZ
$LN18@dtor$2:
	add	rsp, 32					; 00000020H
	pop	rbp
	ret	0
?dtor$2@?0???$?0_J@?$storage_type@V?$extent_type@$0?0@details@gsl@@@?$span@$$CBD$0?0@gsl@@QEAA@PEBD_J@Z@4HA ENDP ; `gsl::span<char const ,-1>::storage_type<gsl::details::extent_type<-1> >::storage_type<gsl::details::extent_type<-1> ><__int64>'::`1'::dtor$2
text$x	ENDS
;	COMDAT text$x
text$x	SEGMENT
$T1 = 32
$T2 = 40
$T3 = 40
$T4 = 80
this$ = 80
data$ = 88
ext$ = 96
?dtor$1@?0???$?0_J@?$storage_type@V?$extent_type@$0?0@details@gsl@@@?$span@$$CBD$0?0@gsl@@QEAA@PEBD_J@Z@4HA PROC ; `gsl::span<char const ,-1>::storage_type<gsl::details::extent_type<-1> >::storage_type<gsl::details::extent_type<-1> ><__int64>'::`1'::dtor$1
	push	rbp
	sub	rsp, 32					; 00000020H
	mov	rbp, rdx
	mov	eax, DWORD PTR $T4[rbp]
	and	eax, 2
	test	eax, eax
	je	SHORT $LN11@dtor$1
	and	DWORD PTR $T4[rbp], -3
	lea	rcx, QWORD PTR $T3[rbp]
	call	??1fail_fast@gsl@@UEAA@XZ
$LN11@dtor$1:
	add	rsp, 32					; 00000020H
	pop	rbp
	ret	0
?dtor$1@?0???$?0_J@?$storage_type@V?$extent_type@$0?0@details@gsl@@@?$span@$$CBD$0?0@gsl@@QEAA@PEBD_J@Z@4HA ENDP ; `gsl::span<char const ,-1>::storage_type<gsl::details::extent_type<-1> >::storage_type<gsl::details::extent_type<-1> ><__int64>'::`1'::dtor$1
text$x	ENDS
; Function compile flags: /Ogtpy
;	COMDAT text$x
text$x	SEGMENT
$T1 = 32
$T2 = 40
$T3 = 40
$T4 = 80
this$ = 80
data$ = 88
ext$ = 96
?dtor$2@?0???$?0_J@?$storage_type@V?$extent_type@$0?0@details@gsl@@@?$span@$$CBD$0?0@gsl@@QEAA@PEBD_J@Z@4HA PROC ; `gsl::span<char const ,-1>::storage_type<gsl::details::extent_type<-1> >::storage_type<gsl::details::extent_type<-1> ><__int64>'::`1'::dtor$2
	push	rbp
	sub	rsp, 32					; 00000020H
	mov	rbp, rdx
	mov	eax, DWORD PTR $T4[rbp]
	and	eax, 4
	test	eax, eax
	je	SHORT $LN18@dtor$2
	and	DWORD PTR $T4[rbp], -5
	lea	rcx, QWORD PTR $T2[rbp]
	call	??1fail_fast@gsl@@UEAA@XZ
$LN18@dtor$2:
	add	rsp, 32					; 00000020H
	pop	rbp
	ret	0
?dtor$2@?0???$?0_J@?$storage_type@V?$extent_type@$0?0@details@gsl@@@?$span@$$CBD$0?0@gsl@@QEAA@PEBD_J@Z@4HA ENDP ; `gsl::span<char const ,-1>::storage_type<gsl::details::extent_type<-1> >::storage_type<gsl::details::extent_type<-1> ><__int64>'::`1'::dtor$2
text$x	ENDS
; Function compile flags: /Ogtpy
;	COMDAT text$x
text$x	SEGMENT
$T1 = 32
$T2 = 40
$T3 = 40
$T4 = 80
this$ = 80
data$ = 88
ext$ = 96
?dtor$1@?0???$?0_J@?$storage_type@V?$extent_type@$0?0@details@gsl@@@?$span@$$CBD$0?0@gsl@@QEAA@PEBD_J@Z@4HA PROC ; `gsl::span<char const ,-1>::storage_type<gsl::details::extent_type<-1> >::storage_type<gsl::details::extent_type<-1> ><__int64>'::`1'::dtor$1
	push	rbp
	sub	rsp, 32					; 00000020H
	mov	rbp, rdx
	mov	eax, DWORD PTR $T4[rbp]
	and	eax, 2
	test	eax, eax
	je	SHORT $LN11@dtor$1
	and	DWORD PTR $T4[rbp], -3
	lea	rcx, QWORD PTR $T3[rbp]
	call	??1fail_fast@gsl@@UEAA@XZ
$LN11@dtor$1:
	add	rsp, 32					; 00000020H
	pop	rbp
	ret	0
?dtor$1@?0???$?0_J@?$storage_type@V?$extent_type@$0?0@details@gsl@@@?$span@$$CBD$0?0@gsl@@QEAA@PEBD_J@Z@4HA ENDP ; `gsl::span<char const ,-1>::storage_type<gsl::details::extent_type<-1> >::storage_type<gsl::details::extent_type<-1> ><__int64>'::`1'::dtor$1
text$x	ENDS
; Function compile flags: /Ogtpy
;	COMDAT ??$?0H$05X@?$span@H$0?0@gsl@@QEAA@AEBV?$span@H$05@1@@Z
_TEXT	SEGMENT
$T1 = 32
$T2 = 40
this$ = 80
other$ = 88
$T3 = 96
??$?0H$05X@?$span@H$0?0@gsl@@QEAA@AEBV?$span@H$05@1@@Z PROC ; gsl::span<int,-1>::span<int,-1><int,6,void>, COMDAT
; File c:\projects\gsl\include\gsl\span
; Line 448
$LN67:
	sub	rsp, 72					; 00000048H
	mov	QWORD PTR $T1[rsp], -2
	mov	DWORD PTR $T3[rsp], 0
; Line 515
	mov	rax, QWORD PTR [rdx]
; Line 333
	mov	QWORD PTR [rcx], 6
; Line 596
	mov	QWORD PTR [rcx+8], rax
; Line 599
	test	rax, rax
	je	SHORT $LN65@span
; Line 448
	mov	rax, rcx
	add	rsp, 72					; 00000048H
	ret	0
$LN65@span:
; Line 599
	lea	rdx, OFFSET FLAT:??_C@_0ED@HPBMEGKB@GSL?3?5Precondition?5failure?5at?5c?3@
	lea	rcx, QWORD PTR $T2[rsp]
	call	??0fail_fast@gsl@@QEAA@QEBD@Z		; gsl::fail_fast::fail_fast
	npad	1
	mov	DWORD PTR $T3[rsp], 4
	mov	rcx, rax
	call	??$throw_exception@Ufail_fast@gsl@@@details@gsl@@YAX$$QEAUfail_fast@1@@Z ; gsl::details::throw_exception<gsl::fail_fast>
	int	3
$LN63@span:
??$?0H$05X@?$span@H$0?0@gsl@@QEAA@AEBV?$span@H$05@1@@Z ENDP ; gsl::span<int,-1>::span<int,-1><int,6,void>
_TEXT	ENDS
;	COMDAT text$x
text$x	SEGMENT
$T1 = 32
$T2 = 40
this$ = 80
other$ = 88
$T3 = 96
?dtor$4@?0???$?0H$05X@?$span@H$0?0@gsl@@QEAA@AEBV?$span@H$05@1@@Z@4HA PROC ; `gsl::span<int,-1>::span<int,-1><int,6,void>'::`1'::dtor$4
	push	rbp
	sub	rsp, 32					; 00000020H
	mov	rbp, rdx
	mov	eax, DWORD PTR $T3[rbp]
	and	eax, 4
	test	eax, eax
	je	SHORT $LN37@dtor$4
	and	DWORD PTR $T3[rbp], -5
	lea	rcx, QWORD PTR $T2[rbp]
	call	??1fail_fast@gsl@@UEAA@XZ
$LN37@dtor$4:
	add	rsp, 32					; 00000020H
	pop	rbp
	ret	0
?dtor$4@?0???$?0H$05X@?$span@H$0?0@gsl@@QEAA@AEBV?$span@H$05@1@@Z@4HA ENDP ; `gsl::span<int,-1>::span<int,-1><int,6,void>'::`1'::dtor$4
text$x	ENDS
; Function compile flags: /Ogtpy
;	COMDAT text$x
text$x	SEGMENT
$T1 = 32
$T2 = 40
this$ = 80
other$ = 88
$T3 = 96
?dtor$4@?0???$?0H$05X@?$span@H$0?0@gsl@@QEAA@AEBV?$span@H$05@1@@Z@4HA PROC ; `gsl::span<int,-1>::span<int,-1><int,6,void>'::`1'::dtor$4
	push	rbp
	sub	rsp, 32					; 00000020H
	mov	rbp, rdx
	mov	eax, DWORD PTR $T3[rbp]
	and	eax, 4
	test	eax, eax
	je	SHORT $LN37@dtor$4
	and	DWORD PTR $T3[rbp], -5
	lea	rcx, QWORD PTR $T2[rbp]
	call	??1fail_fast@gsl@@UEAA@XZ
$LN37@dtor$4:
	add	rsp, 32					; 00000020H
	pop	rbp
	ret	0
?dtor$4@?0???$?0H$05X@?$span@H$0?0@gsl@@QEAA@AEBV?$span@H$05@1@@Z@4HA ENDP ; `gsl::span<int,-1>::span<int,-1><int,6,void>'::`1'::dtor$4
text$x	ENDS
; Function compile flags: /Ogtpy
;	COMDAT ??$copy_n@PEBD_JPEAE@std@@YAPEAEPEBD_JPEAE@Z
_TEXT	SEGMENT
_First$ = 48
_Count_raw$ = 56
_Dest$ = 64
??$copy_n@PEBD_JPEAE@std@@YAPEAEPEBD_JPEAE@Z PROC	; std::copy_n<char const *,__int64,unsigned char *>, COMDAT
; File c:\program files (x86)\microsoft visual studio\2017\community\vc\tools\msvc\14.16.27023\include\xutility
; Line 2536
$LN20:
	mov	QWORD PTR [rsp+8], rbx
	push	rdi
	sub	rsp, 32					; 00000020H
	mov	rbx, r8
	mov	rdi, rdx
; Line 2538
	test	rdx, rdx
	jle	SHORT $LN18@copy_n
; Line 2403
	mov	r8, rdx
	mov	rdx, rcx
	mov	rcx, rbx
	call	memmove
; Line 872
	lea	rax, QWORD PTR [rdi+rbx]
; Line 2545
	mov	rbx, QWORD PTR [rsp+48]
	add	rsp, 32					; 00000020H
	pop	rdi
	ret	0
$LN18@copy_n:
; Line 2544
	mov	rax, rbx
; Line 2545
	mov	rbx, QWORD PTR [rsp+48]
	add	rsp, 32					; 00000020H
	pop	rdi
	ret	0
??$copy_n@PEBD_JPEAE@std@@YAPEAEPEBD_JPEAE@Z ENDP	; std::copy_n<char const *,__int64,unsigned char *>
_TEXT	ENDS
; Function compile flags: /Ogtpy
;	COMDAT ??$narrow@_J_J@gsl@@YA_J_J@Z
_TEXT	SEGMENT
$T1 = 0
u$ = 32
??$narrow@_J_J@gsl@@YA_J_J@Z PROC			; gsl::narrow<__int64,__int64>, COMDAT
; File c:\projects\gsl\include\gsl\gsl_util
; Line 124
$LN23:
	sub	rsp, 24
	mov	QWORD PTR $T1[rsp], -2
; Line 129
	mov	rax, rcx
; Line 130
	add	rsp, 24
	ret	0
??$narrow@_J_J@gsl@@YA_J_J@Z ENDP			; gsl::narrow<__int64,__int64>
_TEXT	ENDS
; Function compile flags: /Ogtpy
;	COMDAT ??$_Seek_wrapped@V?$span_iterator@V?$span@E$0?0@gsl@@$0A@@details@gsl@@PEAE$0A@@std@@YAXAEAV?$span_iterator@V?$span@E$0?0@gsl@@$0A@@details@gsl@@AEBQEAE@Z
_TEXT	SEGMENT
_It$ = 8
_UIt$ = 16
??$_Seek_wrapped@V?$span_iterator@V?$span@E$0?0@gsl@@$0A@@details@gsl@@PEAE$0A@@std@@YAXAEAV?$span_iterator@V?$span@E$0?0@gsl@@$0A@@details@gsl@@AEBQEAE@Z PROC ; std::_Seek_wrapped<gsl::details::span_iterator<gsl::span<unsigned char,-1>,0>,unsigned char *,0>, COMDAT
; File c:\program files (x86)\microsoft visual studio\2017\community\vc\tools\msvc\14.16.27023\include\xutility
; File c:\projects\gsl\include\gsl\span
; Line 294
	mov	rdx, QWORD PTR [rdx]
	mov	rax, QWORD PTR [rcx]
	sub	rdx, QWORD PTR [rax+8]
	mov	QWORD PTR [rcx+8], rdx
; File c:\program files (x86)\microsoft visual studio\2017\community\vc\tools\msvc\14.16.27023\include\xutility
; Line 858
	ret	0
??$_Seek_wrapped@V?$span_iterator@V?$span@E$0?0@gsl@@$0A@@details@gsl@@PEAE$0A@@std@@YAXAEAV?$span_iterator@V?$span@E$0?0@gsl@@$0A@@details@gsl@@AEBQEAE@Z ENDP ; std::_Seek_wrapped<gsl::details::span_iterator<gsl::span<unsigned char,-1>,0>,unsigned char *,0>
_TEXT	ENDS
; Function compile flags: /Ogtpy
;	COMDAT ??$_Copy_unchecked@PEBDPEAE@std@@YAPEAEPEBD0PEAE@Z
_TEXT	SEGMENT
_First$ = 48
_Last$ = 56
_Dest$ = 64
??$_Copy_unchecked@PEBDPEAE@std@@YAPEAEPEBD0PEAE@Z PROC	; std::_Copy_unchecked<char const *,unsigned char *>, COMDAT
; File c:\program files (x86)\microsoft visual studio\2017\community\vc\tools\msvc\14.16.27023\include\xutility
; Line 2432
$LN10:
	mov	QWORD PTR [rsp+8], rbx
	push	rdi
	sub	rsp, 32					; 00000020H
	mov	rbx, rdx
	mov	rdi, r8
; Line 2402
	sub	rbx, rcx
; Line 2403
	mov	rdx, rcx
	mov	r8, rbx
	mov	rcx, rdi
	call	memmove
; Line 2404
	lea	rax, QWORD PTR [rbx+rdi]
; Line 2435
	mov	rbx, QWORD PTR [rsp+48]
	add	rsp, 32					; 00000020H
	pop	rdi
	ret	0
??$_Copy_unchecked@PEBDPEAE@std@@YAPEAEPEBD0PEAE@Z ENDP	; std::_Copy_unchecked<char const *,unsigned char *>
_TEXT	ENDS
; Function compile flags: /Ogtpy
;	COMDAT ??$_Get_unwrapped_n@V?$span_iterator@V?$span@E$0?0@gsl@@$0A@@details@gsl@@_J$0A@@std@@YAPEAEAEBV?$span_iterator@V?$span@E$0?0@gsl@@$0A@@details@gsl@@_J@Z
_TEXT	SEGMENT
$T1 = 32
$T2 = 40
_It$ = 80
_Off$ = 88
??$_Get_unwrapped_n@V?$span_iterator@V?$span@E$0?0@gsl@@$0A@@details@gsl@@_J$0A@@std@@YAPEAEAEBV?$span_iterator@V?$span@E$0?0@gsl@@$0A@@details@gsl@@_J@Z PROC ; std::_Get_unwrapped_n<gsl::details::span_iterator<gsl::span<unsigned char,-1>,0>,__int64,0>, COMDAT
; File c:\program files (x86)\microsoft visual studio\2017\community\vc\tools\msvc\14.16.27023\include\xutility
; Line 760
$LN31:
	sub	rsp, 72					; 00000048H
	mov	QWORD PTR $T1[rsp], -2
; File c:\projects\gsl\include\gsl\span
; Line 272
	mov	r9, QWORD PTR [rcx+8]
	lea	r8, QWORD PTR [r9+rdx]
	test	r8, r8
	js	SHORT $LN5@Get_unwrap
; Line 338
	mov	rax, QWORD PTR [rcx]
; Line 272
	cmp	r8, QWORD PTR [rax]
	jg	SHORT $LN5@Get_unwrap
; Line 280
	mov	rax, QWORD PTR [rax+8]
	add	rax, r9
; File c:\program files (x86)\microsoft visual studio\2017\community\vc\tools\msvc\14.16.27023\include\xutility
; Line 772
	add	rsp, 72					; 00000048H
	ret	0
$LN5@Get_unwrap:
; File c:\projects\gsl\include\gsl\span
; Line 272
	lea	rdx, OFFSET FLAT:??_C@_0ED@LKBIKNJ@GSL?3?5Precondition?5failure?5at?5c?3@
	lea	rcx, QWORD PTR $T2[rsp]
	call	??0fail_fast@gsl@@QEAA@QEBD@Z		; gsl::fail_fast::fail_fast
	mov	rcx, rax
	call	??$throw_exception@Ufail_fast@gsl@@@details@gsl@@YAX$$QEAUfail_fast@1@@Z ; gsl::details::throw_exception<gsl::fail_fast>
	int	3
$LN28@Get_unwrap:
??$_Get_unwrapped_n@V?$span_iterator@V?$span@E$0?0@gsl@@$0A@@details@gsl@@_J$0A@@std@@YAPEAEAEBV?$span_iterator@V?$span@E$0?0@gsl@@$0A@@details@gsl@@_J@Z ENDP ; std::_Get_unwrapped_n<gsl::details::span_iterator<gsl::span<unsigned char,-1>,0>,__int64,0>
_TEXT	ENDS
; Function compile flags: /Ogtpy
;	COMDAT ??$_Idl_distance1@V?$span_iterator@V?$span@$$CBD$0?0@gsl@@$0A@@details@gsl@@PEBD@std@@YA_JAEBQEBD0Urandom_access_iterator_tag@0@@Z
_TEXT	SEGMENT
_First$ = 8
_Last$ = 16
__formal$ = 24
??$_Idl_distance1@V?$span_iterator@V?$span@$$CBD$0?0@gsl@@$0A@@details@gsl@@PEBD@std@@YA_JAEBQEBD0Urandom_access_iterator_tag@0@@Z PROC ; std::_Idl_distance1<gsl::details::span_iterator<gsl::span<char const ,-1>,0>,char const *>, COMDAT
; File c:\program files (x86)\microsoft visual studio\2017\community\vc\tools\msvc\14.16.27023\include\xutility
; Line 968
	mov	rax, QWORD PTR [rdx]
	sub	rax, QWORD PTR [rcx]
; Line 969
	ret	0
??$_Idl_distance1@V?$span_iterator@V?$span@$$CBD$0?0@gsl@@$0A@@details@gsl@@PEBD@std@@YA_JAEBQEBD0Urandom_access_iterator_tag@0@@Z ENDP ; std::_Idl_distance1<gsl::details::span_iterator<gsl::span<char const ,-1>,0>,char const *>
_TEXT	ENDS
; Function compile flags: /Ogtpy
;	COMDAT ??$_Idl_distance@V?$span_iterator@V?$span@$$CBD$0?0@gsl@@$0A@@details@gsl@@PEBD@std@@YA_JAEBQEBD0@Z
_TEXT	SEGMENT
_First$ = 8
_Last$ = 16
??$_Idl_distance@V?$span_iterator@V?$span@$$CBD$0?0@gsl@@$0A@@details@gsl@@PEBD@std@@YA_JAEBQEBD0@Z PROC ; std::_Idl_distance<gsl::details::span_iterator<gsl::span<char const ,-1>,0>,char const *>, COMDAT
; File c:\program files (x86)\microsoft visual studio\2017\community\vc\tools\msvc\14.16.27023\include\xutility
; Line 968
	mov	rax, QWORD PTR [rdx]
	sub	rax, QWORD PTR [rcx]
; Line 976
	ret	0
??$_Idl_distance@V?$span_iterator@V?$span@$$CBD$0?0@gsl@@$0A@@details@gsl@@PEBD@std@@YA_JAEBQEBD0@Z ENDP ; std::_Idl_distance<gsl::details::span_iterator<gsl::span<char const ,-1>,0>,char const *>
_TEXT	ENDS
; Function compile flags: /Ogtpy
;	COMDAT ??$_Get_unwrapped@V?$span_iterator@V?$span@$$CBD$0?0@gsl@@$0A@@details@gsl@@$0A@@std@@YAPEBDAEBV?$span_iterator@V?$span@$$CBD$0?0@gsl@@$0A@@details@gsl@@@Z
_TEXT	SEGMENT
_It$ = 8
??$_Get_unwrapped@V?$span_iterator@V?$span@$$CBD$0?0@gsl@@$0A@@details@gsl@@$0A@@std@@YAPEBDAEBV?$span_iterator@V?$span@$$CBD$0?0@gsl@@$0A@@details@gsl@@@Z PROC ; std::_Get_unwrapped<gsl::details::span_iterator<gsl::span<char const ,-1>,0>,0>, COMDAT
; File c:\program files (x86)\microsoft visual studio\2017\community\vc\tools\msvc\14.16.27023\include\xutility
; File c:\projects\gsl\include\gsl\span
; Line 280
	mov	rax, QWORD PTR [rcx]
	mov	rax, QWORD PTR [rax+8]
	add	rax, QWORD PTR [rcx+8]
; File c:\program files (x86)\microsoft visual studio\2017\community\vc\tools\msvc\14.16.27023\include\xutility
; Line 644
	ret	0
??$_Get_unwrapped@V?$span_iterator@V?$span@$$CBD$0?0@gsl@@$0A@@details@gsl@@$0A@@std@@YAPEBDAEBV?$span_iterator@V?$span@$$CBD$0?0@gsl@@$0A@@details@gsl@@@Z ENDP ; std::_Get_unwrapped<gsl::details::span_iterator<gsl::span<char const ,-1>,0>,0>
_TEXT	ENDS
; Function compile flags: /Ogtpy
;	COMDAT ??$_Adl_verify_range@V?$span_iterator@V?$span@$$CBD$0?0@gsl@@$0A@@details@gsl@@V123@@std@@YAXAEBV?$span_iterator@V?$span@$$CBD$0?0@gsl@@$0A@@details@gsl@@0@Z
_TEXT	SEGMENT
$T1 = 32
$T2 = 48
$T3 = 64
$T4 = 64
_First$ = 112
_Last$ = 120
??$_Adl_verify_range@V?$span_iterator@V?$span@$$CBD$0?0@gsl@@$0A@@details@gsl@@V123@@std@@YAXAEBV?$span_iterator@V?$span@$$CBD$0?0@gsl@@$0A@@details@gsl@@0@Z PROC ; std::_Adl_verify_range<gsl::details::span_iterator<gsl::span<char const ,-1>,0>,gsl::details::span_iterator<gsl::span<char const ,-1>,0> >, COMDAT
; File c:\program files (x86)\microsoft visual studio\2017\community\vc\tools\msvc\14.16.27023\include\xutility
; Line 615
$LN24:
	sub	rsp, 104				; 00000068H
	mov	QWORD PTR $T1[rsp], -2
; Line 603
	movups	xmm1, XMMWORD PTR [rdx]
	movaps	XMMWORD PTR $T2[rsp], xmm1
	movups	xmm0, XMMWORD PTR [rcx]
	movaps	XMMWORD PTR $T4[rsp], xmm0
; File c:\projects\gsl\include\gsl\span
; Line 265
	movq	rcx, xmm0
	movq	rax, xmm1
	cmp	rcx, rax
	jne	SHORT $LN7@Adl_verify
	mov	rax, QWORD PTR $T2[rsp+8]
	cmp	QWORD PTR $T4[rsp+8], rax
	jg	SHORT $LN7@Adl_verify
; File c:\program files (x86)\microsoft visual studio\2017\community\vc\tools\msvc\14.16.27023\include\xutility
; Line 617
	add	rsp, 104				; 00000068H
	ret	0
$LN7@Adl_verify:
; File c:\projects\gsl\include\gsl\span
; Line 265
	lea	rdx, OFFSET FLAT:??_C@_0ED@GOAPCFOK@GSL?3?5Precondition?5failure?5at?5c?3@
	lea	rcx, QWORD PTR $T3[rsp]
	call	??0fail_fast@gsl@@QEAA@QEBD@Z		; gsl::fail_fast::fail_fast
	mov	rcx, rax
	call	??$throw_exception@Ufail_fast@gsl@@@details@gsl@@YAX$$QEAUfail_fast@1@@Z ; gsl::details::throw_exception<gsl::fail_fast>
	int	3
$LN21@Adl_verify:
??$_Adl_verify_range@V?$span_iterator@V?$span@$$CBD$0?0@gsl@@$0A@@details@gsl@@V123@@std@@YAXAEBV?$span_iterator@V?$span@$$CBD$0?0@gsl@@$0A@@details@gsl@@0@Z ENDP ; std::_Adl_verify_range<gsl::details::span_iterator<gsl::span<char const ,-1>,0>,gsl::details::span_iterator<gsl::span<char const ,-1>,0> >
_TEXT	ENDS
; Function compile flags: /Ogtpy
;	COMDAT ??$ensure_z@$$CBD@gsl@@YA?AV?$span@$$CBD$0?0@0@AEBQEBD_J@Z
_TEXT	SEGMENT
$T1 = 32
$T2 = 40
$T3 = 40
__$ReturnUdt$ = 80
$T4 = 88
sz$ = 88
max$ = 96
??$ensure_z@$$CBD@gsl@@YA?AV?$span@$$CBD$0?0@0@AEBQEBD_J@Z PROC ; gsl::ensure_z<char const >, COMDAT
; File c:\projects\gsl\include\gsl\string_span
; Line 133
$LN55:
	push	rbx
	sub	rsp, 64					; 00000040H
	mov	QWORD PTR $T1[rsp], -2
	mov	r9, r8
	mov	rbx, rcx
	mov	DWORD PTR $T4[rsp], 0
; Line 134
	mov	rdx, QWORD PTR [rdx]
; Line 114
	test	rdx, rdx
	je	SHORT $LN7@ensure_z
; Line 117
	mov	r8, rdx
; Line 121
	test	r9, r9
	jle	SHORT $LN5@ensure_z
	npad	3
$LL4@ensure_z:
	cmp	BYTE PTR [r8], 0
	je	SHORT $LN51@ensure_z
	inc	r8
	mov	rax, r8
	sub	rax, rdx
	cmp	rax, r9
	jl	SHORT $LL4@ensure_z
$LN5@ensure_z:
; Line 122
	cmp	BYTE PTR [r8], 0
	jne	SHORT $LN11@ensure_z
$LN51@ensure_z:
; Line 123
	sub	r8, rdx
	call	??0?$span@$$CBD$0?0@gsl@@QEAA@PEBD_J@Z	; gsl::span<char const ,-1>::span<char const ,-1>
; Line 134
	mov	rax, rbx
; Line 135
	add	rsp, 64					; 00000040H
	pop	rbx
	ret	0
$LN11@ensure_z:
; Line 122
	lea	rdx, OFFSET FLAT:??_C@_0EL@CANAMLLN@GSL?3?5Postcondition?5failure?5at?5c@
	lea	rcx, QWORD PTR $T2[rsp]
	call	??0fail_fast@gsl@@QEAA@QEBD@Z		; gsl::fail_fast::fail_fast
	npad	1
	mov	DWORD PTR $T4[rsp], 4
	mov	rcx, rax
	call	??$throw_exception@Ufail_fast@gsl@@@details@gsl@@YAX$$QEAUfail_fast@1@@Z ; gsl::details::throw_exception<gsl::fail_fast>
	npad	1
$LN7@ensure_z:
; Line 114
	lea	rdx, OFFSET FLAT:??_C@_0EL@HEMMNCGC@GSL?3?5Postcondition?5failure?5at?5c@
	lea	rcx, QWORD PTR $T3[rsp]
	call	??0fail_fast@gsl@@QEAA@QEBD@Z		; gsl::fail_fast::fail_fast
	npad	1
	mov	DWORD PTR $T4[rsp], 1
	mov	rcx, rax
	call	??$throw_exception@Ufail_fast@gsl@@@details@gsl@@YAX$$QEAUfail_fast@1@@Z ; gsl::details::throw_exception<gsl::fail_fast>
	int	3
$LN52@ensure_z:
??$ensure_z@$$CBD@gsl@@YA?AV?$span@$$CBD$0?0@0@AEBQEBD_J@Z ENDP ; gsl::ensure_z<char const >
_TEXT	ENDS
;	COMDAT text$x
text$x	SEGMENT
$T1 = 32
$T2 = 40
$T3 = 40
__$ReturnUdt$ = 80
$T4 = 88
sz$ = 88
max$ = 96
?dtor$0@?0???$ensure_z@$$CBD@gsl@@YA?AV?$span@$$CBD$0?0@0@AEBQEBD_J@Z@4HA PROC ; `gsl::ensure_z<char const >'::`1'::dtor$0
	push	rbp
	sub	rsp, 32					; 00000020H
	mov	rbp, rdx
	mov	eax, DWORD PTR $T4[rbp]
	and	eax, 1
	test	eax, eax
	je	SHORT $LN14@dtor$0
	and	DWORD PTR $T4[rbp], -2
	lea	rcx, QWORD PTR $T3[rbp]
	call	??1fail_fast@gsl@@UEAA@XZ
$LN14@dtor$0:
	add	rsp, 32					; 00000020H
	pop	rbp
	ret	0
?dtor$0@?0???$ensure_z@$$CBD@gsl@@YA?AV?$span@$$CBD$0?0@0@AEBQEBD_J@Z@4HA ENDP ; `gsl::ensure_z<char const >'::`1'::dtor$0
text$x	ENDS
;	COMDAT text$x
text$x	SEGMENT
$T1 = 32
$T2 = 40
$T3 = 40
__$ReturnUdt$ = 80
$T4 = 88
sz$ = 88
max$ = 96
?dtor$2@?0???$ensure_z@$$CBD@gsl@@YA?AV?$span@$$CBD$0?0@0@AEBQEBD_J@Z@4HA PROC ; `gsl::ensure_z<char const >'::`1'::dtor$2
	push	rbp
	sub	rsp, 32					; 00000020H
	mov	rbp, rdx
	mov	eax, DWORD PTR $T4[rbp]
	and	eax, 4
	test	eax, eax
	je	SHORT $LN20@dtor$2
	and	DWORD PTR $T4[rbp], -5
	lea	rcx, QWORD PTR $T2[rbp]
	call	??1fail_fast@gsl@@UEAA@XZ
$LN20@dtor$2:
	add	rsp, 32					; 00000020H
	pop	rbp
	ret	0
?dtor$2@?0???$ensure_z@$$CBD@gsl@@YA?AV?$span@$$CBD$0?0@0@AEBQEBD_J@Z@4HA ENDP ; `gsl::ensure_z<char const >'::`1'::dtor$2
text$x	ENDS
; Function compile flags: /Ogtpy
;	COMDAT text$x
text$x	SEGMENT
$T1 = 32
$T2 = 40
$T3 = 40
__$ReturnUdt$ = 80
$T4 = 88
sz$ = 88
max$ = 96
?dtor$0@?0???$ensure_z@$$CBD@gsl@@YA?AV?$span@$$CBD$0?0@0@AEBQEBD_J@Z@4HA PROC ; `gsl::ensure_z<char const >'::`1'::dtor$0
	push	rbp
	sub	rsp, 32					; 00000020H
	mov	rbp, rdx
	mov	eax, DWORD PTR $T4[rbp]
	and	eax, 1
	test	eax, eax
	je	SHORT $LN14@dtor$0
	and	DWORD PTR $T4[rbp], -2
	lea	rcx, QWORD PTR $T3[rbp]
	call	??1fail_fast@gsl@@UEAA@XZ
$LN14@dtor$0:
	add	rsp, 32					; 00000020H
	pop	rbp
	ret	0
?dtor$0@?0???$ensure_z@$$CBD@gsl@@YA?AV?$span@$$CBD$0?0@0@AEBQEBD_J@Z@4HA ENDP ; `gsl::ensure_z<char const >'::`1'::dtor$0
text$x	ENDS
; Function compile flags: /Ogtpy
;	COMDAT text$x
text$x	SEGMENT
$T1 = 32
$T2 = 40
$T3 = 40
__$ReturnUdt$ = 80
$T4 = 88
sz$ = 88
max$ = 96
?dtor$2@?0???$ensure_z@$$CBD@gsl@@YA?AV?$span@$$CBD$0?0@0@AEBQEBD_J@Z@4HA PROC ; `gsl::ensure_z<char const >'::`1'::dtor$2
	push	rbp
	sub	rsp, 32					; 00000020H
	mov	rbp, rdx
	mov	eax, DWORD PTR $T4[rbp]
	and	eax, 4
	test	eax, eax
	je	SHORT $LN20@dtor$2
	and	DWORD PTR $T4[rbp], -5
	lea	rcx, QWORD PTR $T2[rbp]
	call	??1fail_fast@gsl@@UEAA@XZ
$LN20@dtor$2:
	add	rsp, 32					; 00000020H
	pop	rbp
	ret	0
?dtor$2@?0???$ensure_z@$$CBD@gsl@@YA?AV?$span@$$CBD$0?0@0@AEBQEBD_J@Z@4HA ENDP ; `gsl::ensure_z<char const >'::`1'::dtor$2
text$x	ENDS
; Function compile flags: /Ogtpy
;	COMDAT ??$narrow_cast@_J_K@gsl@@YA_J$$QEA_K@Z
_TEXT	SEGMENT
u$ = 8
??$narrow_cast@_J_K@gsl@@YA_J$$QEA_K@Z PROC		; gsl::narrow_cast<__int64,unsigned __int64>, COMDAT
; File c:\projects\gsl\include\gsl\gsl_util
; Line 100
	mov	rax, QWORD PTR [rcx]
; Line 101
	ret	0
??$narrow_cast@_J_K@gsl@@YA_J$$QEA_K@Z ENDP		; gsl::narrow_cast<__int64,unsigned __int64>
_TEXT	ENDS
; Function compile flags: /Ogtpy
;	COMDAT ??$?0V?$extent_type@$09@details@gsl@@@?$storage_type@V?$extent_type@$0?0@details@gsl@@@?$span@E$0?0@gsl@@QEAA@UKnownNotNull@12@V?$extent_type@$09@details@2@@Z
_TEXT	SEGMENT
$T1 = 0
this$ = 32
data$ = 40
ext$ = 48
??$?0V?$extent_type@$09@details@gsl@@@?$storage_type@V?$extent_type@$0?0@details@gsl@@@?$span@E$0?0@gsl@@QEAA@UKnownNotNull@12@V?$extent_type@$09@details@2@@Z PROC ; gsl::span<unsigned char,-1>::storage_type<gsl::details::extent_type<-1> >::storage_type<gsl::details::extent_type<-1> ><gsl::details::extent_type<10> >, COMDAT
; File c:\projects\gsl\include\gsl\span
; Line 591
$LN24:
	sub	rsp, 24
	mov	QWORD PTR $T1[rsp], -2
; Line 333
	mov	QWORD PTR [rcx], 10
; Line 590
	mov	QWORD PTR [rcx+8], rdx
; Line 593
	mov	rax, rcx
	add	rsp, 24
	ret	0
??$?0V?$extent_type@$09@details@gsl@@@?$storage_type@V?$extent_type@$0?0@details@gsl@@@?$span@E$0?0@gsl@@QEAA@UKnownNotNull@12@V?$extent_type@$09@details@2@@Z ENDP ; gsl::span<unsigned char,-1>::storage_type<gsl::details::extent_type<-1> >::storage_type<gsl::details::extent_type<-1> ><gsl::details::extent_type<10> >
_TEXT	ENDS
; Function compile flags: /Ogtpy
;	COMDAT ?size@?$extent_type@$09@details@gsl@@QEBA_JXZ
_TEXT	SEGMENT
this$ = 8
?size@?$extent_type@$09@details@gsl@@QEBA_JXZ PROC	; gsl::details::extent_type<10>::size, COMDAT
; File c:\projects\gsl\include\gsl\span
; Line 323
	mov	eax, 10
	ret	0
?size@?$extent_type@$09@details@gsl@@QEBA_JXZ ENDP	; gsl::details::extent_type<10>::size
_TEXT	ENDS
; Function compile flags: /Ogtpy
;	COMDAT ??0?$extent_type@$09@details@gsl@@QEAA@XZ
_TEXT	SEGMENT
this$ = 8
??0?$extent_type@$09@details@gsl@@QEAA@XZ PROC		; gsl::details::extent_type<10>::extent_type<10>, COMDAT
; File c:\projects\gsl\include\gsl\span
; Line 311
	mov	rax, rcx
	ret	0
??0?$extent_type@$09@details@gsl@@QEAA@XZ ENDP		; gsl::details::extent_type<10>::extent_type<10>
_TEXT	ENDS
; Function compile flags: /Ogtpy
;	COMDAT ??$copy_n@PEAH_JPEAH@std@@YAPEAHPEAH_J0@Z
_TEXT	SEGMENT
_First$ = 48
_Count_raw$ = 56
_Dest$ = 64
??$copy_n@PEAH_JPEAH@std@@YAPEAHPEAH_J0@Z PROC		; std::copy_n<int *,__int64,int *>, COMDAT
; File c:\program files (x86)\microsoft visual studio\2017\community\vc\tools\msvc\14.16.27023\include\xutility
; Line 2536
$LN20:
	push	rdi
	sub	rsp, 32					; 00000020H
	mov	rdi, r8
; Line 2538
	test	rdx, rdx
	jle	SHORT $LN18@copy_n
; Line 2518
	mov	QWORD PTR [rsp+48], rbx
	lea	rbx, QWORD PTR [rdx*4]
; Line 2403
	mov	rdx, rcx
	mov	r8, rbx
	mov	rcx, rdi
	call	memmove
; Line 872
	lea	rax, QWORD PTR [rbx+rdi]
; Line 2544
	mov	rbx, QWORD PTR [rsp+48]
; Line 2545
	add	rsp, 32					; 00000020H
	pop	rdi
	ret	0
$LN18@copy_n:
; Line 2544
	mov	rax, rdi
; Line 2545
	add	rsp, 32					; 00000020H
	pop	rdi
	ret	0
??$copy_n@PEAH_JPEAH@std@@YAPEAHPEAH_J0@Z ENDP		; std::copy_n<int *,__int64,int *>
_TEXT	ENDS
; Function compile flags: /Ogtpy
;	COMDAT ??$_Seek_wrapped@V?$span_iterator@V?$span@H$0?0@gsl@@$0A@@details@gsl@@PEAH$0A@@std@@YAXAEAV?$span_iterator@V?$span@H$0?0@gsl@@$0A@@details@gsl@@AEBQEAH@Z
_TEXT	SEGMENT
_It$ = 8
_UIt$ = 16
??$_Seek_wrapped@V?$span_iterator@V?$span@H$0?0@gsl@@$0A@@details@gsl@@PEAH$0A@@std@@YAXAEAV?$span_iterator@V?$span@H$0?0@gsl@@$0A@@details@gsl@@AEBQEAH@Z PROC ; std::_Seek_wrapped<gsl::details::span_iterator<gsl::span<int,-1>,0>,int *,0>, COMDAT
; File c:\program files (x86)\microsoft visual studio\2017\community\vc\tools\msvc\14.16.27023\include\xutility
; File c:\projects\gsl\include\gsl\span
; Line 294
	mov	rdx, QWORD PTR [rdx]
	mov	rax, QWORD PTR [rcx]
	sub	rdx, QWORD PTR [rax+8]
	sar	rdx, 2
	mov	QWORD PTR [rcx+8], rdx
; File c:\program files (x86)\microsoft visual studio\2017\community\vc\tools\msvc\14.16.27023\include\xutility
; Line 858
	ret	0
??$_Seek_wrapped@V?$span_iterator@V?$span@H$0?0@gsl@@$0A@@details@gsl@@PEAH$0A@@std@@YAXAEAV?$span_iterator@V?$span@H$0?0@gsl@@$0A@@details@gsl@@AEBQEAH@Z ENDP ; std::_Seek_wrapped<gsl::details::span_iterator<gsl::span<int,-1>,0>,int *,0>
_TEXT	ENDS
; Function compile flags: /Ogtpy
;	COMDAT ??$_Copy_unchecked@PEAHPEAH@std@@YAPEAHPEAH00@Z
_TEXT	SEGMENT
_First$ = 48
_Last$ = 56
_Dest$ = 64
??$_Copy_unchecked@PEAHPEAH@std@@YAPEAHPEAH00@Z PROC	; std::_Copy_unchecked<int *,int *>, COMDAT
; File c:\program files (x86)\microsoft visual studio\2017\community\vc\tools\msvc\14.16.27023\include\xutility
; Line 2432
$LN10:
	mov	QWORD PTR [rsp+8], rbx
	push	rdi
	sub	rsp, 32					; 00000020H
	mov	rbx, rdx
	mov	rdi, r8
; Line 2402
	sub	rbx, rcx
; Line 2403
	mov	rdx, rcx
	mov	r8, rbx
	mov	rcx, rdi
	call	memmove
; Line 2404
	lea	rax, QWORD PTR [rbx+rdi]
; Line 2435
	mov	rbx, QWORD PTR [rsp+48]
	add	rsp, 32					; 00000020H
	pop	rdi
	ret	0
??$_Copy_unchecked@PEAHPEAH@std@@YAPEAHPEAH00@Z ENDP	; std::_Copy_unchecked<int *,int *>
_TEXT	ENDS
; Function compile flags: /Ogtpy
;	COMDAT ??$_Get_unwrapped_n@V?$span_iterator@V?$span@H$0?0@gsl@@$0A@@details@gsl@@_J$0A@@std@@YAPEAHAEBV?$span_iterator@V?$span@H$0?0@gsl@@$0A@@details@gsl@@_J@Z
_TEXT	SEGMENT
$T1 = 32
$T2 = 40
_It$ = 80
_Off$ = 88
??$_Get_unwrapped_n@V?$span_iterator@V?$span@H$0?0@gsl@@$0A@@details@gsl@@_J$0A@@std@@YAPEAHAEBV?$span_iterator@V?$span@H$0?0@gsl@@$0A@@details@gsl@@_J@Z PROC ; std::_Get_unwrapped_n<gsl::details::span_iterator<gsl::span<int,-1>,0>,__int64,0>, COMDAT
; File c:\program files (x86)\microsoft visual studio\2017\community\vc\tools\msvc\14.16.27023\include\xutility
; Line 760
$LN31:
	sub	rsp, 72					; 00000048H
	mov	QWORD PTR $T1[rsp], -2
; File c:\projects\gsl\include\gsl\span
; Line 272
	mov	r9, QWORD PTR [rcx+8]
	lea	r8, QWORD PTR [r9+rdx]
	test	r8, r8
	js	SHORT $LN5@Get_unwrap
; Line 338
	mov	rax, QWORD PTR [rcx]
; Line 272
	cmp	r8, QWORD PTR [rax]
	jg	SHORT $LN5@Get_unwrap
; Line 280
	mov	rax, QWORD PTR [rax+8]
	lea	rax, QWORD PTR [rax+r9*4]
; File c:\program files (x86)\microsoft visual studio\2017\community\vc\tools\msvc\14.16.27023\include\xutility
; Line 772
	add	rsp, 72					; 00000048H
	ret	0
$LN5@Get_unwrap:
; File c:\projects\gsl\include\gsl\span
; Line 272
	lea	rdx, OFFSET FLAT:??_C@_0ED@LKBIKNJ@GSL?3?5Precondition?5failure?5at?5c?3@
	lea	rcx, QWORD PTR $T2[rsp]
	call	??0fail_fast@gsl@@QEAA@QEBD@Z		; gsl::fail_fast::fail_fast
	mov	rcx, rax
	call	??$throw_exception@Ufail_fast@gsl@@@details@gsl@@YAX$$QEAUfail_fast@1@@Z ; gsl::details::throw_exception<gsl::fail_fast>
	int	3
$LN28@Get_unwrap:
??$_Get_unwrapped_n@V?$span_iterator@V?$span@H$0?0@gsl@@$0A@@details@gsl@@_J$0A@@std@@YAPEAHAEBV?$span_iterator@V?$span@H$0?0@gsl@@$0A@@details@gsl@@_J@Z ENDP ; std::_Get_unwrapped_n<gsl::details::span_iterator<gsl::span<int,-1>,0>,__int64,0>
_TEXT	ENDS
; Function compile flags: /Ogtpy
;	COMDAT ??$_Idl_distance1@V?$span_iterator@V?$span@H$0?0@gsl@@$0A@@details@gsl@@PEAH@std@@YA_JAEBQEAH0Urandom_access_iterator_tag@0@@Z
_TEXT	SEGMENT
_First$ = 8
_Last$ = 16
__formal$ = 24
??$_Idl_distance1@V?$span_iterator@V?$span@H$0?0@gsl@@$0A@@details@gsl@@PEAH@std@@YA_JAEBQEAH0Urandom_access_iterator_tag@0@@Z PROC ; std::_Idl_distance1<gsl::details::span_iterator<gsl::span<int,-1>,0>,int *>, COMDAT
; File c:\program files (x86)\microsoft visual studio\2017\community\vc\tools\msvc\14.16.27023\include\xutility
; Line 968
	mov	rax, QWORD PTR [rdx]
	sub	rax, QWORD PTR [rcx]
	sar	rax, 2
; Line 969
	ret	0
??$_Idl_distance1@V?$span_iterator@V?$span@H$0?0@gsl@@$0A@@details@gsl@@PEAH@std@@YA_JAEBQEAH0Urandom_access_iterator_tag@0@@Z ENDP ; std::_Idl_distance1<gsl::details::span_iterator<gsl::span<int,-1>,0>,int *>
_TEXT	ENDS
; Function compile flags: /Ogtpy
;	COMDAT ??$_Idl_distance@V?$span_iterator@V?$span@H$0?0@gsl@@$0A@@details@gsl@@PEAH@std@@YA_JAEBQEAH0@Z
_TEXT	SEGMENT
_First$ = 8
_Last$ = 16
??$_Idl_distance@V?$span_iterator@V?$span@H$0?0@gsl@@$0A@@details@gsl@@PEAH@std@@YA_JAEBQEAH0@Z PROC ; std::_Idl_distance<gsl::details::span_iterator<gsl::span<int,-1>,0>,int *>, COMDAT
; File c:\program files (x86)\microsoft visual studio\2017\community\vc\tools\msvc\14.16.27023\include\xutility
; Line 968
	mov	rax, QWORD PTR [rdx]
	sub	rax, QWORD PTR [rcx]
	sar	rax, 2
; Line 976
	ret	0
??$_Idl_distance@V?$span_iterator@V?$span@H$0?0@gsl@@$0A@@details@gsl@@PEAH@std@@YA_JAEBQEAH0@Z ENDP ; std::_Idl_distance<gsl::details::span_iterator<gsl::span<int,-1>,0>,int *>
_TEXT	ENDS
; Function compile flags: /Ogtpy
;	COMDAT ??$_Get_unwrapped@V?$span_iterator@V?$span@H$0?0@gsl@@$0A@@details@gsl@@$0A@@std@@YAPEAHAEBV?$span_iterator@V?$span@H$0?0@gsl@@$0A@@details@gsl@@@Z
_TEXT	SEGMENT
_It$ = 8
??$_Get_unwrapped@V?$span_iterator@V?$span@H$0?0@gsl@@$0A@@details@gsl@@$0A@@std@@YAPEAHAEBV?$span_iterator@V?$span@H$0?0@gsl@@$0A@@details@gsl@@@Z PROC ; std::_Get_unwrapped<gsl::details::span_iterator<gsl::span<int,-1>,0>,0>, COMDAT
; File c:\program files (x86)\microsoft visual studio\2017\community\vc\tools\msvc\14.16.27023\include\xutility
; File c:\projects\gsl\include\gsl\span
; Line 280
	mov	rax, QWORD PTR [rcx]
	mov	rdx, QWORD PTR [rcx+8]
	mov	rcx, QWORD PTR [rax+8]
	lea	rax, QWORD PTR [rcx+rdx*4]
; File c:\program files (x86)\microsoft visual studio\2017\community\vc\tools\msvc\14.16.27023\include\xutility
; Line 644
	ret	0
??$_Get_unwrapped@V?$span_iterator@V?$span@H$0?0@gsl@@$0A@@details@gsl@@$0A@@std@@YAPEAHAEBV?$span_iterator@V?$span@H$0?0@gsl@@$0A@@details@gsl@@@Z ENDP ; std::_Get_unwrapped<gsl::details::span_iterator<gsl::span<int,-1>,0>,0>
_TEXT	ENDS
; Function compile flags: /Ogtpy
;	COMDAT ??$_Adl_verify_range@V?$span_iterator@V?$span@H$0?0@gsl@@$0A@@details@gsl@@V123@@std@@YAXAEBV?$span_iterator@V?$span@H$0?0@gsl@@$0A@@details@gsl@@0@Z
_TEXT	SEGMENT
$T1 = 32
$T2 = 48
$T3 = 64
$T4 = 64
_First$ = 112
_Last$ = 120
??$_Adl_verify_range@V?$span_iterator@V?$span@H$0?0@gsl@@$0A@@details@gsl@@V123@@std@@YAXAEBV?$span_iterator@V?$span@H$0?0@gsl@@$0A@@details@gsl@@0@Z PROC ; std::_Adl_verify_range<gsl::details::span_iterator<gsl::span<int,-1>,0>,gsl::details::span_iterator<gsl::span<int,-1>,0> >, COMDAT
; File c:\program files (x86)\microsoft visual studio\2017\community\vc\tools\msvc\14.16.27023\include\xutility
; Line 615
$LN24:
	sub	rsp, 104				; 00000068H
	mov	QWORD PTR $T1[rsp], -2
; Line 603
	movups	xmm1, XMMWORD PTR [rdx]
	movaps	XMMWORD PTR $T2[rsp], xmm1
	movups	xmm0, XMMWORD PTR [rcx]
	movaps	XMMWORD PTR $T4[rsp], xmm0
; File c:\projects\gsl\include\gsl\span
; Line 265
	movq	rcx, xmm0
	movq	rax, xmm1
	cmp	rcx, rax
	jne	SHORT $LN7@Adl_verify
	mov	rax, QWORD PTR $T2[rsp+8]
	cmp	QWORD PTR $T4[rsp+8], rax
	jg	SHORT $LN7@Adl_verify
; File c:\program files (x86)\microsoft visual studio\2017\community\vc\tools\msvc\14.16.27023\include\xutility
; Line 617
	add	rsp, 104				; 00000068H
	ret	0
$LN7@Adl_verify:
; File c:\projects\gsl\include\gsl\span
; Line 265
	lea	rdx, OFFSET FLAT:??_C@_0ED@GOAPCFOK@GSL?3?5Precondition?5failure?5at?5c?3@
	lea	rcx, QWORD PTR $T3[rsp]
	call	??0fail_fast@gsl@@QEAA@QEBD@Z		; gsl::fail_fast::fail_fast
	mov	rcx, rax
	call	??$throw_exception@Ufail_fast@gsl@@@details@gsl@@YAX$$QEAUfail_fast@1@@Z ; gsl::details::throw_exception<gsl::fail_fast>
	int	3
$LN21@Adl_verify:
??$_Adl_verify_range@V?$span_iterator@V?$span@H$0?0@gsl@@$0A@@details@gsl@@V123@@std@@YAXAEBV?$span_iterator@V?$span@H$0?0@gsl@@$0A@@details@gsl@@0@Z ENDP ; std::_Adl_verify_range<gsl::details::span_iterator<gsl::span<int,-1>,0>,gsl::details::span_iterator<gsl::span<int,-1>,0> >
_TEXT	ENDS
; Function compile flags: /Ogtpy
;	COMDAT ??$?0V?$extent_type@$0A@@details@gsl@@@?$storage_type@V?$extent_type@$0?0@details@gsl@@@?$span@H$0?0@gsl@@QEAA@PEAHV?$extent_type@$0A@@details@2@@Z
_TEXT	SEGMENT
$T1 = 0
this$ = 32
data$ = 40
ext$ = 48
??$?0V?$extent_type@$0A@@details@gsl@@@?$storage_type@V?$extent_type@$0?0@details@gsl@@@?$span@H$0?0@gsl@@QEAA@PEAHV?$extent_type@$0A@@details@2@@Z PROC ; gsl::span<int,-1>::storage_type<gsl::details::extent_type<-1> >::storage_type<gsl::details::extent_type<-1> ><gsl::details::extent_type<0> >, COMDAT
; File c:\projects\gsl\include\gsl\span
; Line 597
$LN39:
	sub	rsp, 24
	mov	QWORD PTR $T1[rsp], -2
; Line 333
	mov	QWORD PTR [rcx], 0
; Line 596
	mov	QWORD PTR [rcx+8], rdx
; Line 600
	mov	rax, rcx
	add	rsp, 24
	ret	0
??$?0V?$extent_type@$0A@@details@gsl@@@?$storage_type@V?$extent_type@$0?0@details@gsl@@@?$span@H$0?0@gsl@@QEAA@PEAHV?$extent_type@$0A@@details@2@@Z ENDP ; gsl::span<int,-1>::storage_type<gsl::details::extent_type<-1> >::storage_type<gsl::details::extent_type<-1> ><gsl::details::extent_type<0> >
_TEXT	ENDS
; Function compile flags: /Ogtpy
;	COMDAT ?size@?$extent_type@$0A@@details@gsl@@QEBA_JXZ
_TEXT	SEGMENT
this$ = 8
?size@?$extent_type@$0A@@details@gsl@@QEBA_JXZ PROC	; gsl::details::extent_type<0>::size, COMDAT
; File c:\projects\gsl\include\gsl\span
; Line 323
	xor	eax, eax
	ret	0
?size@?$extent_type@$0A@@details@gsl@@QEBA_JXZ ENDP	; gsl::details::extent_type<0>::size
_TEXT	ENDS
; Function compile flags: /Ogtpy
;	COMDAT ??0?$extent_type@$0A@@details@gsl@@QEAA@XZ
_TEXT	SEGMENT
this$ = 8
??0?$extent_type@$0A@@details@gsl@@QEAA@XZ PROC		; gsl::details::extent_type<0>::extent_type<0>, COMDAT
; File c:\projects\gsl\include\gsl\span
; Line 311
	mov	rax, rcx
	ret	0
??0?$extent_type@$0A@@details@gsl@@QEAA@XZ ENDP		; gsl::details::extent_type<0>::extent_type<0>
_TEXT	ENDS
; Function compile flags: /Ogtpy
;	COMDAT ??$?0V?$extent_type@$05@details@gsl@@@?$storage_type@V?$extent_type@$05@details@gsl@@@?$span@H$05@gsl@@QEAA@UKnownNotNull@12@V?$extent_type@$05@details@2@@Z
_TEXT	SEGMENT
$T1 = 0
this$ = 32
data$ = 40
ext$ = 48
??$?0V?$extent_type@$05@details@gsl@@@?$storage_type@V?$extent_type@$05@details@gsl@@@?$span@H$05@gsl@@QEAA@UKnownNotNull@12@V?$extent_type@$05@details@2@@Z PROC ; gsl::span<int,6>::storage_type<gsl::details::extent_type<6> >::storage_type<gsl::details::extent_type<6> ><gsl::details::extent_type<6> >, COMDAT
; File c:\projects\gsl\include\gsl\span
; Line 591
$LN20:
	sub	rsp, 24
	mov	QWORD PTR $T1[rsp], -2
; Line 590
	mov	QWORD PTR [rcx], rdx
; Line 593
	mov	rax, rcx
	add	rsp, 24
	ret	0
??$?0V?$extent_type@$05@details@gsl@@@?$storage_type@V?$extent_type@$05@details@gsl@@@?$span@H$05@gsl@@QEAA@UKnownNotNull@12@V?$extent_type@$05@details@2@@Z ENDP ; gsl::span<int,6>::storage_type<gsl::details::extent_type<6> >::storage_type<gsl::details::extent_type<6> ><gsl::details::extent_type<6> >
_TEXT	ENDS
; Function compile flags: /Ogtpy
;	COMDAT ??$addressof@H@std@@YAPEAHAEAH@Z
_TEXT	SEGMENT
_Val$ = 8
??$addressof@H@std@@YAPEAHAEAH@Z PROC			; std::addressof<int>, COMDAT
; File c:\program files (x86)\microsoft visual studio\2017\community\vc\tools\msvc\14.16.27023\include\xstddef
; Line 330
	mov	rax, rcx
; Line 331
	ret	0
??$addressof@H@std@@YAPEAHAEAH@Z ENDP			; std::addressof<int>
_TEXT	ENDS
; Function compile flags: /Ogtpy
;	COMDAT ??$?0V?$extent_type@$05@details@gsl@@@?$storage_type@V?$extent_type@$0?0@details@gsl@@@?$span@E$0?0@gsl@@QEAA@UKnownNotNull@12@V?$extent_type@$05@details@2@@Z
_TEXT	SEGMENT
$T1 = 0
this$ = 32
data$ = 40
ext$ = 48
??$?0V?$extent_type@$05@details@gsl@@@?$storage_type@V?$extent_type@$0?0@details@gsl@@@?$span@E$0?0@gsl@@QEAA@UKnownNotNull@12@V?$extent_type@$05@details@2@@Z PROC ; gsl::span<unsigned char,-1>::storage_type<gsl::details::extent_type<-1> >::storage_type<gsl::details::extent_type<-1> ><gsl::details::extent_type<6> >, COMDAT
; File c:\projects\gsl\include\gsl\span
; Line 591
$LN24:
	sub	rsp, 24
	mov	QWORD PTR $T1[rsp], -2
; Line 333
	mov	QWORD PTR [rcx], 6
; Line 590
	mov	QWORD PTR [rcx+8], rdx
; Line 593
	mov	rax, rcx
	add	rsp, 24
	ret	0
??$?0V?$extent_type@$05@details@gsl@@@?$storage_type@V?$extent_type@$0?0@details@gsl@@@?$span@E$0?0@gsl@@QEAA@UKnownNotNull@12@V?$extent_type@$05@details@2@@Z ENDP ; gsl::span<unsigned char,-1>::storage_type<gsl::details::extent_type<-1> >::storage_type<gsl::details::extent_type<-1> ><gsl::details::extent_type<6> >
_TEXT	ENDS
; Function compile flags: /Ogtpy
;	COMDAT ??$addressof@E@std@@YAPEAEAEAE@Z
_TEXT	SEGMENT
_Val$ = 8
??$addressof@E@std@@YAPEAEAEAE@Z PROC			; std::addressof<unsigned char>, COMDAT
; File c:\program files (x86)\microsoft visual studio\2017\community\vc\tools\msvc\14.16.27023\include\xstddef
; Line 330
	mov	rax, rcx
; Line 331
	ret	0
??$addressof@E@std@@YAPEAEAEAE@Z ENDP			; std::addressof<unsigned char>
_TEXT	ENDS
; Function compile flags: /Ogtpy
;	COMDAT ??$forward@AEA_J@std@@YAAEA_JAEA_J@Z
_TEXT	SEGMENT
_Arg$ = 8
??$forward@AEA_J@std@@YAAEA_JAEA_J@Z PROC		; std::forward<__int64 &>, COMDAT
; File c:\program files (x86)\microsoft visual studio\2017\community\vc\tools\msvc\14.16.27023\include\type_traits
; Line 1574
	mov	rax, rcx
; Line 1575
	ret	0
??$forward@AEA_J@std@@YAAEA_JAEA_J@Z ENDP		; std::forward<__int64 &>
_TEXT	ENDS
; Function compile flags: /Ogtpy
;	COMDAT ??$forward@Ufail_fast@gsl@@@std@@YA$$QEAUfail_fast@gsl@@AEAU12@@Z
_TEXT	SEGMENT
_Arg$ = 8
??$forward@Ufail_fast@gsl@@@std@@YA$$QEAUfail_fast@gsl@@AEAU12@@Z PROC ; std::forward<gsl::fail_fast>, COMDAT
; File c:\program files (x86)\microsoft visual studio\2017\community\vc\tools\msvc\14.16.27023\include\type_traits
; Line 1574
	mov	rax, rcx
; Line 1575
	ret	0
??$forward@Ufail_fast@gsl@@@std@@YA$$QEAUfail_fast@gsl@@AEAU12@@Z ENDP ; std::forward<gsl::fail_fast>
_TEXT	ENDS
; Function compile flags: /Ogtpy
;	COMDAT ??$?0_J@?$storage_type@V?$extent_type@$0?0@details@gsl@@@?$span@H$0?0@gsl@@QEAA@UKnownNotNull@12@_J@Z
_TEXT	SEGMENT
$T1 = 32
$T2 = 40
$T3 = 80
this$ = 80
data$ = 88
ext$ = 96
??$?0_J@?$storage_type@V?$extent_type@$0?0@details@gsl@@@?$span@H$0?0@gsl@@QEAA@UKnownNotNull@12@_J@Z PROC ; gsl::span<int,-1>::storage_type<gsl::details::extent_type<-1> >::storage_type<gsl::details::extent_type<-1> ><__int64>, COMDAT
; File c:\projects\gsl\include\gsl\span
; Line 591
$LN37:
	sub	rsp, 72					; 00000048H
	mov	QWORD PTR $T1[rsp], -2
	mov	DWORD PTR $T3[rsp], 0
; Line 336
	mov	QWORD PTR [rcx], r8
	test	r8, r8
	js	SHORT $LN10@extent_typ
; Line 590
	mov	QWORD PTR [rcx+8], rdx
; Line 593
	mov	rax, rcx
	add	rsp, 72					; 00000048H
	ret	0
$LN10@extent_typ:
; Line 336
	lea	rdx, OFFSET FLAT:??_C@_0ED@NAHIIAGE@GSL?3?5Precondition?5failure?5at?5c?3@
	lea	rcx, QWORD PTR $T2[rsp]
	call	??0fail_fast@gsl@@QEAA@QEBD@Z		; gsl::fail_fast::fail_fast
	npad	1
	mov	DWORD PTR $T3[rsp], 2
	mov	rcx, rax
	call	??$throw_exception@Ufail_fast@gsl@@@details@gsl@@YAX$$QEAUfail_fast@1@@Z ; gsl::details::throw_exception<gsl::fail_fast>
	int	3
$LN34@extent_typ:
??$?0_J@?$storage_type@V?$extent_type@$0?0@details@gsl@@@?$span@H$0?0@gsl@@QEAA@UKnownNotNull@12@_J@Z ENDP ; gsl::span<int,-1>::storage_type<gsl::details::extent_type<-1> >::storage_type<gsl::details::extent_type<-1> ><__int64>
_TEXT	ENDS
;	COMDAT text$x
text$x	SEGMENT
$T1 = 32
$T2 = 40
$T3 = 80
this$ = 80
data$ = 88
ext$ = 96
?dtor$1@?0???$?0_J@?$storage_type@V?$extent_type@$0?0@details@gsl@@@?$span@H$0?0@gsl@@QEAA@UKnownNotNull@12@_J@Z@4HA PROC ; `gsl::span<int,-1>::storage_type<gsl::details::extent_type<-1> >::storage_type<gsl::details::extent_type<-1> ><__int64>'::`1'::dtor$1
	push	rbp
	sub	rsp, 32					; 00000020H
	mov	rbp, rdx
	mov	eax, DWORD PTR $T3[rbp]
	and	eax, 2
	test	eax, eax
	je	SHORT $LN13@dtor$1
	and	DWORD PTR $T3[rbp], -3
	lea	rcx, QWORD PTR $T2[rbp]
	call	??1fail_fast@gsl@@UEAA@XZ
$LN13@dtor$1:
	add	rsp, 32					; 00000020H
	pop	rbp
	ret	0
?dtor$1@?0???$?0_J@?$storage_type@V?$extent_type@$0?0@details@gsl@@@?$span@H$0?0@gsl@@QEAA@UKnownNotNull@12@_J@Z@4HA ENDP ; `gsl::span<int,-1>::storage_type<gsl::details::extent_type<-1> >::storage_type<gsl::details::extent_type<-1> ><__int64>'::`1'::dtor$1
text$x	ENDS
; Function compile flags: /Ogtpy
;	COMDAT text$x
text$x	SEGMENT
$T1 = 32
$T2 = 40
$T3 = 80
this$ = 80
data$ = 88
ext$ = 96
?dtor$1@?0???$?0_J@?$storage_type@V?$extent_type@$0?0@details@gsl@@@?$span@H$0?0@gsl@@QEAA@UKnownNotNull@12@_J@Z@4HA PROC ; `gsl::span<int,-1>::storage_type<gsl::details::extent_type<-1> >::storage_type<gsl::details::extent_type<-1> ><__int64>'::`1'::dtor$1
	push	rbp
	sub	rsp, 32					; 00000020H
	mov	rbp, rdx
	mov	eax, DWORD PTR $T3[rbp]
	and	eax, 2
	test	eax, eax
	je	SHORT $LN13@dtor$1
	and	DWORD PTR $T3[rbp], -3
	lea	rcx, QWORD PTR $T2[rbp]
	call	??1fail_fast@gsl@@UEAA@XZ
$LN13@dtor$1:
	add	rsp, 32					; 00000020H
	pop	rbp
	ret	0
?dtor$1@?0???$?0_J@?$storage_type@V?$extent_type@$0?0@details@gsl@@@?$span@H$0?0@gsl@@QEAA@UKnownNotNull@12@_J@Z@4HA ENDP ; `gsl::span<int,-1>::storage_type<gsl::details::extent_type<-1> >::storage_type<gsl::details::extent_type<-1> ><__int64>'::`1'::dtor$1
text$x	ENDS
; Function compile flags: /Ogtpy
;	COMDAT ??$?0_J@?$storage_type@V?$extent_type@$0?0@details@gsl@@@?$span@H$0?0@gsl@@QEAA@PEAH_J@Z
_TEXT	SEGMENT
$T1 = 32
$T2 = 40
$T3 = 40
$T4 = 80
this$ = 80
data$ = 88
ext$ = 96
??$?0_J@?$storage_type@V?$extent_type@$0?0@details@gsl@@@?$span@H$0?0@gsl@@QEAA@PEAH_J@Z PROC ; gsl::span<int,-1>::storage_type<gsl::details::extent_type<-1> >::storage_type<gsl::details::extent_type<-1> ><__int64>, COMDAT
; File c:\projects\gsl\include\gsl\span
; Line 597
$LN53:
	sub	rsp, 72					; 00000048H
	mov	QWORD PTR $T1[rsp], -2
	mov	DWORD PTR $T4[rsp], 0
; Line 336
	mov	QWORD PTR [rcx], r8
	test	r8, r8
	js	SHORT $LN15@extent_typ
; Line 596
	mov	QWORD PTR [rcx+8], rdx
; Line 599
	test	rdx, rdx
	jne	SHORT $LN5@extent_typ
	test	r8, r8
	jne	SHORT $LN51@extent_typ
$LN5@extent_typ:
; Line 600
	mov	rax, rcx
	add	rsp, 72					; 00000048H
	ret	0
$LN51@extent_typ:
; Line 599
	lea	rdx, OFFSET FLAT:??_C@_0ED@HPBMEGKB@GSL?3?5Precondition?5failure?5at?5c?3@
	lea	rcx, QWORD PTR $T3[rsp]
	call	??0fail_fast@gsl@@QEAA@QEBD@Z		; gsl::fail_fast::fail_fast
	npad	1
	mov	DWORD PTR $T4[rsp], 2
	mov	rcx, rax
	call	??$throw_exception@Ufail_fast@gsl@@@details@gsl@@YAX$$QEAUfail_fast@1@@Z ; gsl::details::throw_exception<gsl::fail_fast>
	npad	1
$LN15@extent_typ:
; Line 336
	lea	rdx, OFFSET FLAT:??_C@_0ED@NAHIIAGE@GSL?3?5Precondition?5failure?5at?5c?3@
	lea	rcx, QWORD PTR $T2[rsp]
	call	??0fail_fast@gsl@@QEAA@QEBD@Z		; gsl::fail_fast::fail_fast
	npad	1
	mov	DWORD PTR $T4[rsp], 4
	mov	rcx, rax
	call	??$throw_exception@Ufail_fast@gsl@@@details@gsl@@YAX$$QEAUfail_fast@1@@Z ; gsl::details::throw_exception<gsl::fail_fast>
	int	3
$LN49@extent_typ:
??$?0_J@?$storage_type@V?$extent_type@$0?0@details@gsl@@@?$span@H$0?0@gsl@@QEAA@PEAH_J@Z ENDP ; gsl::span<int,-1>::storage_type<gsl::details::extent_type<-1> >::storage_type<gsl::details::extent_type<-1> ><__int64>
_TEXT	ENDS
;	COMDAT text$x
text$x	SEGMENT
$T1 = 32
$T2 = 40
$T3 = 40
$T4 = 80
this$ = 80
data$ = 88
ext$ = 96
?dtor$2@?0???$?0_J@?$storage_type@V?$extent_type@$0?0@details@gsl@@@?$span@H$0?0@gsl@@QEAA@PEAH_J@Z@4HA PROC ; `gsl::span<int,-1>::storage_type<gsl::details::extent_type<-1> >::storage_type<gsl::details::extent_type<-1> ><__int64>'::`1'::dtor$2
	push	rbp
	sub	rsp, 32					; 00000020H
	mov	rbp, rdx
	mov	eax, DWORD PTR $T4[rbp]
	and	eax, 4
	test	eax, eax
	je	SHORT $LN18@dtor$2
	and	DWORD PTR $T4[rbp], -5
	lea	rcx, QWORD PTR $T2[rbp]
	call	??1fail_fast@gsl@@UEAA@XZ
$LN18@dtor$2:
	add	rsp, 32					; 00000020H
	pop	rbp
	ret	0
?dtor$2@?0???$?0_J@?$storage_type@V?$extent_type@$0?0@details@gsl@@@?$span@H$0?0@gsl@@QEAA@PEAH_J@Z@4HA ENDP ; `gsl::span<int,-1>::storage_type<gsl::details::extent_type<-1> >::storage_type<gsl::details::extent_type<-1> ><__int64>'::`1'::dtor$2
text$x	ENDS
;	COMDAT text$x
text$x	SEGMENT
$T1 = 32
$T2 = 40
$T3 = 40
$T4 = 80
this$ = 80
data$ = 88
ext$ = 96
?dtor$1@?0???$?0_J@?$storage_type@V?$extent_type@$0?0@details@gsl@@@?$span@H$0?0@gsl@@QEAA@PEAH_J@Z@4HA PROC ; `gsl::span<int,-1>::storage_type<gsl::details::extent_type<-1> >::storage_type<gsl::details::extent_type<-1> ><__int64>'::`1'::dtor$1
	push	rbp
	sub	rsp, 32					; 00000020H
	mov	rbp, rdx
	mov	eax, DWORD PTR $T4[rbp]
	and	eax, 2
	test	eax, eax
	je	SHORT $LN11@dtor$1
	and	DWORD PTR $T4[rbp], -3
	lea	rcx, QWORD PTR $T3[rbp]
	call	??1fail_fast@gsl@@UEAA@XZ
$LN11@dtor$1:
	add	rsp, 32					; 00000020H
	pop	rbp
	ret	0
?dtor$1@?0???$?0_J@?$storage_type@V?$extent_type@$0?0@details@gsl@@@?$span@H$0?0@gsl@@QEAA@PEAH_J@Z@4HA ENDP ; `gsl::span<int,-1>::storage_type<gsl::details::extent_type<-1> >::storage_type<gsl::details::extent_type<-1> ><__int64>'::`1'::dtor$1
text$x	ENDS
; Function compile flags: /Ogtpy
;	COMDAT text$x
text$x	SEGMENT
$T1 = 32
$T2 = 40
$T3 = 40
$T4 = 80
this$ = 80
data$ = 88
ext$ = 96
?dtor$2@?0???$?0_J@?$storage_type@V?$extent_type@$0?0@details@gsl@@@?$span@H$0?0@gsl@@QEAA@PEAH_J@Z@4HA PROC ; `gsl::span<int,-1>::storage_type<gsl::details::extent_type<-1> >::storage_type<gsl::details::extent_type<-1> ><__int64>'::`1'::dtor$2
	push	rbp
	sub	rsp, 32					; 00000020H
	mov	rbp, rdx
	mov	eax, DWORD PTR $T4[rbp]
	and	eax, 4
	test	eax, eax
	je	SHORT $LN18@dtor$2
	and	DWORD PTR $T4[rbp], -5
	lea	rcx, QWORD PTR $T2[rbp]
	call	??1fail_fast@gsl@@UEAA@XZ
$LN18@dtor$2:
	add	rsp, 32					; 00000020H
	pop	rbp
	ret	0
?dtor$2@?0???$?0_J@?$storage_type@V?$extent_type@$0?0@details@gsl@@@?$span@H$0?0@gsl@@QEAA@PEAH_J@Z@4HA ENDP ; `gsl::span<int,-1>::storage_type<gsl::details::extent_type<-1> >::storage_type<gsl::details::extent_type<-1> ><__int64>'::`1'::dtor$2
text$x	ENDS
; Function compile flags: /Ogtpy
;	COMDAT text$x
text$x	SEGMENT
$T1 = 32
$T2 = 40
$T3 = 40
$T4 = 80
this$ = 80
data$ = 88
ext$ = 96
?dtor$1@?0???$?0_J@?$storage_type@V?$extent_type@$0?0@details@gsl@@@?$span@H$0?0@gsl@@QEAA@PEAH_J@Z@4HA PROC ; `gsl::span<int,-1>::storage_type<gsl::details::extent_type<-1> >::storage_type<gsl::details::extent_type<-1> ><__int64>'::`1'::dtor$1
	push	rbp
	sub	rsp, 32					; 00000020H
	mov	rbp, rdx
	mov	eax, DWORD PTR $T4[rbp]
	and	eax, 2
	test	eax, eax
	je	SHORT $LN11@dtor$1
	and	DWORD PTR $T4[rbp], -3
	lea	rcx, QWORD PTR $T3[rbp]
	call	??1fail_fast@gsl@@UEAA@XZ
$LN11@dtor$1:
	add	rsp, 32					; 00000020H
	pop	rbp
	ret	0
?dtor$1@?0???$?0_J@?$storage_type@V?$extent_type@$0?0@details@gsl@@@?$span@H$0?0@gsl@@QEAA@PEAH_J@Z@4HA ENDP ; `gsl::span<int,-1>::storage_type<gsl::details::extent_type<-1> >::storage_type<gsl::details::extent_type<-1> ><__int64>'::`1'::dtor$1
text$x	ENDS
; Function compile flags: /Ogtpy
;	COMDAT ??$make_subspan@$05@?$span@H$05@gsl@@AEBA?AV?$span@H$0?0@1@_J0V?$subspan_selector@$05@01@@Z
_TEXT	SEGMENT
$T1 = 48
$T2 = 56
$T3 = 64
tmp$ = 64
this$ = 112
__$ReturnUdt$ = 120
offset$ = 128
count$ = 136
__formal$ = 144
??$make_subspan@$05@?$span@H$05@gsl@@AEBA?AV?$span@H$0?0@1@_J0V?$subspan_selector@$05@01@@Z PROC ; gsl::span<int,6>::make_subspan<6>, COMDAT
; File c:\projects\gsl\include\gsl\span
; Line 622
$LN72:
	push	rbx
	sub	rsp, 96					; 00000060H
	mov	QWORD PTR $T2[rsp], -2
	mov	rbx, rdx
	mov	DWORD PTR $T1[rsp], 0
; Line 515
	mov	rax, QWORD PTR [rcx]
; Line 333
	mov	QWORD PTR tmp$[rsp], 6
; Line 596
	mov	QWORD PTR tmp$[rsp+8], rax
; Line 599
	test	rax, rax
	je	SHORT $LN70@make_subsp
; Line 494
	mov	BYTE PTR [rsp+32], 0
	lea	rcx, QWORD PTR tmp$[rsp]
	call	?make_subspan@?$span@H$0?0@gsl@@AEBA?AV12@_J0V?$subspan_selector@$0?0@12@@Z ; gsl::span<int,-1>::make_subspan
; Line 624
	mov	rax, rbx
; Line 625
	add	rsp, 96					; 00000060H
	pop	rbx
	ret	0
$LN70@make_subsp:
; Line 599
	lea	rdx, OFFSET FLAT:??_C@_0ED@HPBMEGKB@GSL?3?5Precondition?5failure?5at?5c?3@
	lea	rcx, QWORD PTR $T3[rsp]
	call	??0fail_fast@gsl@@QEAA@QEBD@Z		; gsl::fail_fast::fail_fast
	npad	1
	mov	DWORD PTR $T1[rsp], 4
	mov	rcx, rax
	call	??$throw_exception@Ufail_fast@gsl@@@details@gsl@@YAX$$QEAUfail_fast@1@@Z ; gsl::details::throw_exception<gsl::fail_fast>
	int	3
$LN68@make_subsp:
??$make_subspan@$05@?$span@H$05@gsl@@AEBA?AV?$span@H$0?0@1@_J0V?$subspan_selector@$05@01@@Z ENDP ; gsl::span<int,6>::make_subspan<6>
_TEXT	ENDS
;	COMDAT text$x
text$x	SEGMENT
$T1 = 48
$T2 = 56
$T3 = 64
tmp$ = 64
this$ = 112
__$ReturnUdt$ = 120
offset$ = 128
count$ = 136
__formal$ = 144
?dtor$4@?0???$make_subspan@$05@?$span@H$05@gsl@@AEBA?AV?$span@H$0?0@1@_J0V?$subspan_selector@$05@01@@Z@4HA PROC ; `gsl::span<int,6>::make_subspan<6>'::`1'::dtor$4
	push	rbp
	sub	rsp, 32					; 00000020H
	mov	rbp, rdx
	mov	eax, DWORD PTR $T1[rbp]
	and	eax, 4
	test	eax, eax
	je	SHORT $LN39@dtor$4
	and	DWORD PTR $T1[rbp], -5
	lea	rcx, QWORD PTR $T3[rbp]
	call	??1fail_fast@gsl@@UEAA@XZ
$LN39@dtor$4:
	add	rsp, 32					; 00000020H
	pop	rbp
	ret	0
?dtor$4@?0???$make_subspan@$05@?$span@H$05@gsl@@AEBA?AV?$span@H$0?0@1@_J0V?$subspan_selector@$05@01@@Z@4HA ENDP ; `gsl::span<int,6>::make_subspan<6>'::`1'::dtor$4
text$x	ENDS
; Function compile flags: /Ogtpy
;	COMDAT text$x
text$x	SEGMENT
$T1 = 48
$T2 = 56
$T3 = 64
tmp$ = 64
this$ = 112
__$ReturnUdt$ = 120
offset$ = 128
count$ = 136
__formal$ = 144
?dtor$4@?0???$make_subspan@$05@?$span@H$05@gsl@@AEBA?AV?$span@H$0?0@1@_J0V?$subspan_selector@$05@01@@Z@4HA PROC ; `gsl::span<int,6>::make_subspan<6>'::`1'::dtor$4
	push	rbp
	sub	rsp, 32					; 00000020H
	mov	rbp, rdx
	mov	eax, DWORD PTR $T1[rbp]
	and	eax, 4
	test	eax, eax
	je	SHORT $LN39@dtor$4
	and	DWORD PTR $T1[rbp], -5
	lea	rcx, QWORD PTR $T3[rbp]
	call	??1fail_fast@gsl@@UEAA@XZ
$LN39@dtor$4:
	add	rsp, 32					; 00000020H
	pop	rbp
	ret	0
?dtor$4@?0???$make_subspan@$05@?$span@H$05@gsl@@AEBA?AV?$span@H$0?0@1@_J0V?$subspan_selector@$05@01@@Z@4HA ENDP ; `gsl::span<int,6>::make_subspan<6>'::`1'::dtor$4
text$x	ENDS
; Function compile flags: /Ogtpy
;	COMDAT ??$copy@$$CBD$0?0E$0?0@gsl@@YAXV?$span@$$CBD$0?0@0@V?$span@E$0?0@0@@Z
_TEXT	SEGMENT
$T1 = 32
$T2 = 40
$T3 = 80
src$ = 80
dest$ = 88
??$copy@$$CBD$0?0E$0?0@gsl@@YAXV?$span@$$CBD$0?0@0@V?$span@E$0?0@0@@Z PROC ; gsl::copy<char const ,-1,unsigned char,-1>, COMDAT
; File c:\projects\gsl\include\gsl\gsl_algorithm
; Line 43
$LN56:
	sub	rsp, 72					; 00000048H
	mov	QWORD PTR $T1[rsp], -2
	mov	rax, rdx
	mov	DWORD PTR $T3[rsp], 0
; File c:\projects\gsl\include\gsl\span
; Line 498
	mov	r8, QWORD PTR [rcx]
; File c:\projects\gsl\include\gsl\gsl_algorithm
; Line 50
	cmp	QWORD PTR [rdx], r8
	jl	SHORT $LN3@copy
; File c:\program files (x86)\microsoft visual studio\2017\community\vc\tools\msvc\14.16.27023\include\xutility
; Line 2538
	test	r8, r8
	jle	SHORT $LN37@copy
; Line 2403
	mov	rdx, QWORD PTR [rcx+8]
	mov	rcx, QWORD PTR [rax+8]
; File c:\projects\gsl\include\gsl\gsl_algorithm
; Line 53
	add	rsp, 72					; 00000048H
; File c:\program files (x86)\microsoft visual studio\2017\community\vc\tools\msvc\14.16.27023\include\xutility
; Line 2403
	jmp	memmove
$LN37@copy:
; File c:\projects\gsl\include\gsl\gsl_algorithm
; Line 53
	add	rsp, 72					; 00000048H
	ret	0
$LN3@copy:
; Line 50
	lea	rdx, OFFSET FLAT:??_C@_0EL@EPJEKFNE@GSL?3?5Precondition?5failure?5at?5c?3@
	lea	rcx, QWORD PTR $T2[rsp]
	call	??0fail_fast@gsl@@QEAA@QEBD@Z		; gsl::fail_fast::fail_fast
	npad	1
	mov	DWORD PTR $T3[rsp], 1
	mov	rcx, rax
	call	??$throw_exception@Ufail_fast@gsl@@@details@gsl@@YAX$$QEAUfail_fast@1@@Z ; gsl::details::throw_exception<gsl::fail_fast>
	int	3
$LN53@copy:
??$copy@$$CBD$0?0E$0?0@gsl@@YAXV?$span@$$CBD$0?0@0@V?$span@E$0?0@0@@Z ENDP ; gsl::copy<char const ,-1,unsigned char,-1>
_TEXT	ENDS
;	COMDAT text$x
text$x	SEGMENT
$T1 = 32
$T2 = 40
$T3 = 80
src$ = 80
dest$ = 88
?dtor$0@?0???$copy@$$CBD$0?0E$0?0@gsl@@YAXV?$span@$$CBD$0?0@0@V?$span@E$0?0@0@@Z@4HA PROC ; `gsl::copy<char const ,-1,unsigned char,-1>'::`1'::dtor$0
	push	rbp
	sub	rsp, 32					; 00000020H
	mov	rbp, rdx
	mov	eax, DWORD PTR $T3[rbp]
	and	eax, 1
	test	eax, eax
	je	SHORT $LN6@dtor$0
	and	DWORD PTR $T3[rbp], -2
	lea	rcx, QWORD PTR $T2[rbp]
	call	??1fail_fast@gsl@@UEAA@XZ
$LN6@dtor$0:
	add	rsp, 32					; 00000020H
	pop	rbp
	ret	0
?dtor$0@?0???$copy@$$CBD$0?0E$0?0@gsl@@YAXV?$span@$$CBD$0?0@0@V?$span@E$0?0@0@@Z@4HA ENDP ; `gsl::copy<char const ,-1,unsigned char,-1>'::`1'::dtor$0
text$x	ENDS
; Function compile flags: /Ogtpy
;	COMDAT text$x
text$x	SEGMENT
$T1 = 32
$T2 = 40
$T3 = 80
src$ = 80
dest$ = 88
?dtor$0@?0???$copy@$$CBD$0?0E$0?0@gsl@@YAXV?$span@$$CBD$0?0@0@V?$span@E$0?0@0@@Z@4HA PROC ; `gsl::copy<char const ,-1,unsigned char,-1>'::`1'::dtor$0
	push	rbp
	sub	rsp, 32					; 00000020H
	mov	rbp, rdx
	mov	eax, DWORD PTR $T3[rbp]
	and	eax, 1
	test	eax, eax
	je	SHORT $LN6@dtor$0
	and	DWORD PTR $T3[rbp], -2
	lea	rcx, QWORD PTR $T2[rbp]
