; Listing generated by Microsoft (R) Optimizing Compiler Version 19.00.24241.7 

	TITLE	C:\projects\gsl\tests\span_compile_only.cpp
	.686P
	.XMM
	include listing.inc
	.model	flat

INCLUDELIB MSVCRT
INCLUDELIB OLDNAMES

PUBLIC	??_C@_0CH@JINBLNPO@?$CIs?4size?$CI?$CJ?5?$DN?$DN?50?5?$CG?$CG?5s?4data?$CI?$CJ?5?$DN?$DN?5nu@ ; `string'
PUBLIC	??_C@_05GCOJDIEO@CHECK?$AA@			; `string'
PUBLIC	??_C@_0CJ@IEJGAEAC@?$CIcs?4size?$CI?$CJ?5?$DN?$DN?50?5?$CG?$CG?5cs?4data?$CI?$CJ?5?$DN?$DN?5@ ; `string'
PUBLIC	??_C@_00CNPNBAHC@?$AA@				; `string'
PUBLIC	??0exception@std@@QAE@ABV01@@Z			; std::exception::exception
PUBLIC	?what@exception@std@@UBEPBDXZ			; std::exception::what
PUBLIC	??_7exception@std@@6B@				; std::exception::`vftable'
PUBLIC	??_Gexception@std@@UAEPAXI@Z			; std::exception::`scalar deleting destructor'
PUBLIC	??_C@_0BC@EOODALEL@Unknown?5exception?$AA@	; `string'
PUBLIC	??_7ITransientExpression@Catch@@6B@		; Catch::ITransientExpression::`vftable'
PUBLIC	??_GITransientExpression@Catch@@UAEPAXI@Z	; Catch::ITransientExpression::`scalar deleting destructor'
PUBLIC	__TI3?AUfail_fast@gsl@@
PUBLIC	__CTA3?AUfail_fast@gsl@@
PUBLIC	??1fail_fast@gsl@@UAE@XZ			; gsl::fail_fast::~fail_fast
PUBLIC	??_R0?AUfail_fast@gsl@@@8			; gsl::fail_fast `RTTI Type Descriptor'
PUBLIC	__CT??_R0?AUfail_fast@gsl@@@8??0fail_fast@gsl@@QAE@ABU01@@Z12
PUBLIC	??0fail_fast@gsl@@QAE@ABU01@@Z			; gsl::fail_fast::fail_fast
PUBLIC	??_R0?AVlogic_error@std@@@8			; std::logic_error `RTTI Type Descriptor'
PUBLIC	__CT??_R0?AVlogic_error@std@@@8??0logic_error@std@@QAE@ABV01@@Z12
PUBLIC	??_7fail_fast@gsl@@6B@				; gsl::fail_fast::`vftable'
PUBLIC	??_Gfail_fast@gsl@@UAEPAXI@Z			; gsl::fail_fast::`scalar deleting destructor'
PUBLIC	?isBinaryExpression@?$UnaryExpr@_N@Catch@@EBE_NXZ ; Catch::UnaryExpr<bool>::isBinaryExpression
PUBLIC	?getResult@?$UnaryExpr@_N@Catch@@EBE_NXZ	; Catch::UnaryExpr<bool>::getResult
PUBLIC	?streamReconstructedExpression@?$UnaryExpr@_N@Catch@@EBEXAAV?$basic_ostream@DU?$char_traits@D@std@@@std@@@Z ; Catch::UnaryExpr<bool>::streamReconstructedExpression
PUBLIC	??_R4exception@std@@6B@				; std::exception::`RTTI Complete Object Locator'
PUBLIC	??_R3exception@std@@8				; std::exception::`RTTI Class Hierarchy Descriptor'
PUBLIC	??_R2exception@std@@8				; std::exception::`RTTI Base Class Array'
PUBLIC	??_R1A@?0A@EA@exception@std@@8			; std::exception::`RTTI Base Class Descriptor at (0,-1,0,64)'
PUBLIC	??_7?$UnaryExpr@_N@Catch@@6B@			; Catch::UnaryExpr<bool>::`vftable'
PUBLIC	??_C@_0BE@FAFDKEMK@default_constructor?$AA@	; `string'
PUBLIC	??_G?$UnaryExpr@_N@Catch@@UAEPAXI@Z		; Catch::UnaryExpr<bool>::`scalar deleting destructor'
PUBLIC	??_C@_0CM@OKFFKAMG@C?3?2projects?2gsl?2tests?2span_compi@ ; `string'
PUBLIC	??_R4logic_error@std@@6B@			; std::logic_error::`RTTI Complete Object Locator'
PUBLIC	??_R3logic_error@std@@8				; std::logic_error::`RTTI Class Hierarchy Descriptor'
PUBLIC	??_R2logic_error@std@@8				; std::logic_error::`RTTI Base Class Array'
PUBLIC	??_R1A@?0A@EA@logic_error@std@@8		; std::logic_error::`RTTI Base Class Descriptor at (0,-1,0,64)'
PUBLIC	??_C@_0ED@LBNDKDIJ@GSL?3?5Precondition?5failure?5at?5C?3?2@ ; `string'
PUBLIC	??_C@_0ED@KIMIJCMI@GSL?3?5Precondition?5failure?5at?5C?3?2@ ; `string'
PUBLIC	??_R0?AVexception@std@@@8			; std::exception `RTTI Type Descriptor'
PUBLIC	__CT??_R0?AVexception@std@@@8??0exception@std@@QAE@ABV01@@Z12
PUBLIC	??_R4ITransientExpression@Catch@@6B@		; Catch::ITransientExpression::`RTTI Complete Object Locator'
PUBLIC	??_R0?AUITransientExpression@Catch@@@8		; Catch::ITransientExpression `RTTI Type Descriptor'
PUBLIC	??_R3ITransientExpression@Catch@@8		; Catch::ITransientExpression::`RTTI Class Hierarchy Descriptor'
PUBLIC	??_R2ITransientExpression@Catch@@8		; Catch::ITransientExpression::`RTTI Base Class Array'
PUBLIC	??_R1A@?0A@EA@ITransientExpression@Catch@@8	; Catch::ITransientExpression::`RTTI Base Class Descriptor at (0,-1,0,64)'
PUBLIC	??_R4?$UnaryExpr@_N@Catch@@6B@			; Catch::UnaryExpr<bool>::`RTTI Complete Object Locator'
PUBLIC	??_R0?AV?$UnaryExpr@_N@Catch@@@8		; Catch::UnaryExpr<bool> `RTTI Type Descriptor'
PUBLIC	??_R3?$UnaryExpr@_N@Catch@@8			; Catch::UnaryExpr<bool>::`RTTI Class Hierarchy Descriptor'
PUBLIC	??_R2?$UnaryExpr@_N@Catch@@8			; Catch::UnaryExpr<bool>::`RTTI Base Class Array'
PUBLIC	??_R1A@?0A@EA@?$UnaryExpr@_N@Catch@@8		; Catch::UnaryExpr<bool>::`RTTI Base Class Descriptor at (0,-1,0,64)'
PUBLIC	??_R4fail_fast@gsl@@6B@				; gsl::fail_fast::`RTTI Complete Object Locator'
PUBLIC	??_R3fail_fast@gsl@@8				; gsl::fail_fast::`RTTI Class Hierarchy Descriptor'
PUBLIC	??_R2fail_fast@gsl@@8				; gsl::fail_fast::`RTTI Base Class Array'
PUBLIC	??_R1A@?0A@EA@fail_fast@gsl@@8			; gsl::fail_fast::`RTTI Base Class Descriptor at (0,-1,0,64)'
PUBLIC	??0logic_error@std@@QAE@ABV01@@Z		; std::logic_error::logic_error
PUBLIC	??_7logic_error@std@@6B@			; std::logic_error::`vftable'
PUBLIC	??_Glogic_error@std@@UAEPAXI@Z			; std::logic_error::`scalar deleting destructor'
EXTRN	__purecall:PROC
EXTRN	??_7type_info@@6B@:QWORD			; type_info::`vftable'
EXTRN	??_Eexception@std@@UAEPAXI@Z:PROC		; std::exception::`vector deleting destructor'
EXTRN	??_EITransientExpression@Catch@@UAEPAXI@Z:PROC	; Catch::ITransientExpression::`vector deleting destructor'
EXTRN	??_Efail_fast@gsl@@UAEPAXI@Z:PROC		; gsl::fail_fast::`vector deleting destructor'
EXTRN	??_E?$UnaryExpr@_N@Catch@@UAEPAXI@Z:PROC	; Catch::UnaryExpr<bool>::`vector deleting destructor'
EXTRN	??_Elogic_error@std@@UAEPAXI@Z:PROC		; std::logic_error::`vector deleting destructor'
;	COMDAT ??_7logic_error@std@@6B@
CONST	SEGMENT
??_7logic_error@std@@6B@ DD FLAT:??_R4logic_error@std@@6B@ ; std::logic_error::`vftable'
	DD	FLAT:??_Elogic_error@std@@UAEPAXI@Z
	DD	FLAT:?what@exception@std@@UBEPBDXZ
CONST	ENDS
;	COMDAT ??_R1A@?0A@EA@fail_fast@gsl@@8
rdata$r	SEGMENT
??_R1A@?0A@EA@fail_fast@gsl@@8 DD FLAT:??_R0?AUfail_fast@gsl@@@8 ; gsl::fail_fast::`RTTI Base Class Descriptor at (0,-1,0,64)'
	DD	02H
	DD	00H
	DD	0ffffffffH
	DD	00H
	DD	040H
	DD	FLAT:??_R3fail_fast@gsl@@8
rdata$r	ENDS
;	COMDAT ??_R2fail_fast@gsl@@8
rdata$r	SEGMENT
??_R2fail_fast@gsl@@8 DD FLAT:??_R1A@?0A@EA@fail_fast@gsl@@8 ; gsl::fail_fast::`RTTI Base Class Array'
	DD	FLAT:??_R1A@?0A@EA@logic_error@std@@8
	DD	FLAT:??_R1A@?0A@EA@exception@std@@8
rdata$r	ENDS
;	COMDAT ??_R3fail_fast@gsl@@8
rdata$r	SEGMENT
??_R3fail_fast@gsl@@8 DD 00H				; gsl::fail_fast::`RTTI Class Hierarchy Descriptor'
	DD	00H
	DD	03H
	DD	FLAT:??_R2fail_fast@gsl@@8
rdata$r	ENDS
;	COMDAT ??_R4fail_fast@gsl@@6B@
rdata$r	SEGMENT
??_R4fail_fast@gsl@@6B@ DD 00H				; gsl::fail_fast::`RTTI Complete Object Locator'
	DD	00H
	DD	00H
	DD	FLAT:??_R0?AUfail_fast@gsl@@@8
	DD	FLAT:??_R3fail_fast@gsl@@8
rdata$r	ENDS
;	COMDAT ??_R1A@?0A@EA@?$UnaryExpr@_N@Catch@@8
rdata$r	SEGMENT
??_R1A@?0A@EA@?$UnaryExpr@_N@Catch@@8 DD FLAT:??_R0?AV?$UnaryExpr@_N@Catch@@@8 ; Catch::UnaryExpr<bool>::`RTTI Base Class Descriptor at (0,-1,0,64)'
	DD	01H
	DD	00H
	DD	0ffffffffH
	DD	00H
	DD	040H
	DD	FLAT:??_R3?$UnaryExpr@_N@Catch@@8
rdata$r	ENDS
;	COMDAT ??_R2?$UnaryExpr@_N@Catch@@8
rdata$r	SEGMENT
??_R2?$UnaryExpr@_N@Catch@@8 DD FLAT:??_R1A@?0A@EA@?$UnaryExpr@_N@Catch@@8 ; Catch::UnaryExpr<bool>::`RTTI Base Class Array'
	DD	FLAT:??_R1A@?0A@EA@ITransientExpression@Catch@@8
rdata$r	ENDS
;	COMDAT ??_R3?$UnaryExpr@_N@Catch@@8
rdata$r	SEGMENT
??_R3?$UnaryExpr@_N@Catch@@8 DD 00H			; Catch::UnaryExpr<bool>::`RTTI Class Hierarchy Descriptor'
	DD	00H
	DD	02H
	DD	FLAT:??_R2?$UnaryExpr@_N@Catch@@8
rdata$r	ENDS
;	COMDAT ??_R0?AV?$UnaryExpr@_N@Catch@@@8
data$r	SEGMENT
??_R0?AV?$UnaryExpr@_N@Catch@@@8 DD FLAT:??_7type_info@@6B@ ; Catch::UnaryExpr<bool> `RTTI Type Descriptor'
	DD	00H
	DB	'.?AV?$UnaryExpr@_N@Catch@@', 00H
data$r	ENDS
;	COMDAT ??_R4?$UnaryExpr@_N@Catch@@6B@
rdata$r	SEGMENT
??_R4?$UnaryExpr@_N@Catch@@6B@ DD 00H			; Catch::UnaryExpr<bool>::`RTTI Complete Object Locator'
	DD	00H
	DD	00H
	DD	FLAT:??_R0?AV?$UnaryExpr@_N@Catch@@@8
	DD	FLAT:??_R3?$UnaryExpr@_N@Catch@@8
rdata$r	ENDS
;	COMDAT ??_R1A@?0A@EA@ITransientExpression@Catch@@8
rdata$r	SEGMENT
??_R1A@?0A@EA@ITransientExpression@Catch@@8 DD FLAT:??_R0?AUITransientExpression@Catch@@@8 ; Catch::ITransientExpression::`RTTI Base Class Descriptor at (0,-1,0,64)'
	DD	00H
	DD	00H
	DD	0ffffffffH
	DD	00H
	DD	040H
	DD	FLAT:??_R3ITransientExpression@Catch@@8
rdata$r	ENDS
;	COMDAT ??_R2ITransientExpression@Catch@@8
rdata$r	SEGMENT
??_R2ITransientExpression@Catch@@8 DD FLAT:??_R1A@?0A@EA@ITransientExpression@Catch@@8 ; Catch::ITransientExpression::`RTTI Base Class Array'
rdata$r	ENDS
;	COMDAT ??_R3ITransientExpression@Catch@@8
rdata$r	SEGMENT
??_R3ITransientExpression@Catch@@8 DD 00H		; Catch::ITransientExpression::`RTTI Class Hierarchy Descriptor'
	DD	00H
	DD	01H
	DD	FLAT:??_R2ITransientExpression@Catch@@8
rdata$r	ENDS
;	COMDAT ??_R0?AUITransientExpression@Catch@@@8
data$r	SEGMENT
??_R0?AUITransientExpression@Catch@@@8 DD FLAT:??_7type_info@@6B@ ; Catch::ITransientExpression `RTTI Type Descriptor'
	DD	00H
	DB	'.?AUITransientExpression@Catch@@', 00H
data$r	ENDS
;	COMDAT ??_R4ITransientExpression@Catch@@6B@
rdata$r	SEGMENT
??_R4ITransientExpression@Catch@@6B@ DD 00H		; Catch::ITransientExpression::`RTTI Complete Object Locator'
	DD	00H
	DD	00H
	DD	FLAT:??_R0?AUITransientExpression@Catch@@@8
	DD	FLAT:??_R3ITransientExpression@Catch@@8
rdata$r	ENDS
;	COMDAT __CT??_R0?AVexception@std@@@8??0exception@std@@QAE@ABV01@@Z12
xdata$x	SEGMENT
__CT??_R0?AVexception@std@@@8??0exception@std@@QAE@ABV01@@Z12 DD 00H
	DD	FLAT:??_R0?AVexception@std@@@8
	DD	00H
	DD	0ffffffffH
	ORG $+4
	DD	0cH
	DD	FLAT:??0exception@std@@QAE@ABV01@@Z
xdata$x	ENDS
;	COMDAT ??_R0?AVexception@std@@@8
data$r	SEGMENT
??_R0?AVexception@std@@@8 DD FLAT:??_7type_info@@6B@	; std::exception `RTTI Type Descriptor'
	DD	00H
	DB	'.?AVexception@std@@', 00H
data$r	ENDS
;	COMDAT ??_C@_0ED@KIMIJCMI@GSL?3?5Precondition?5failure?5at?5C?3?2@
CONST	SEGMENT
??_C@_0ED@KIMIJCMI@GSL?3?5Precondition?5failure?5at?5C?3?2@ DB 'GSL: Prec'
	DB	'ondition failure at C:\projects\gsl\include\gsl/span: 599', 00H ; `string'
CONST	ENDS
;	COMDAT ??_C@_0ED@LBNDKDIJ@GSL?3?5Precondition?5failure?5at?5C?3?2@
CONST	SEGMENT
??_C@_0ED@LBNDKDIJ@GSL?3?5Precondition?5failure?5at?5C?3?2@ DB 'GSL: Prec'
	DB	'ondition failure at C:\projects\gsl\include\gsl/span: 598', 00H ; `string'
CONST	ENDS
;	COMDAT ??_R1A@?0A@EA@logic_error@std@@8
rdata$r	SEGMENT
??_R1A@?0A@EA@logic_error@std@@8 DD FLAT:??_R0?AVlogic_error@std@@@8 ; std::logic_error::`RTTI Base Class Descriptor at (0,-1,0,64)'
	DD	01H
	DD	00H
	DD	0ffffffffH
	DD	00H
	DD	040H
	DD	FLAT:??_R3logic_error@std@@8
rdata$r	ENDS
;	COMDAT ??_R2logic_error@std@@8
rdata$r	SEGMENT
??_R2logic_error@std@@8 DD FLAT:??_R1A@?0A@EA@logic_error@std@@8 ; std::logic_error::`RTTI Base Class Array'
	DD	FLAT:??_R1A@?0A@EA@exception@std@@8
rdata$r	ENDS
;	COMDAT ??_R3logic_error@std@@8
rdata$r	SEGMENT
??_R3logic_error@std@@8 DD 00H				; std::logic_error::`RTTI Class Hierarchy Descriptor'
	DD	00H
	DD	02H
	DD	FLAT:??_R2logic_error@std@@8
rdata$r	ENDS
;	COMDAT ??_R4logic_error@std@@6B@
rdata$r	SEGMENT
??_R4logic_error@std@@6B@ DD 00H			; std::logic_error::`RTTI Complete Object Locator'
	DD	00H
	DD	00H
	DD	FLAT:??_R0?AVlogic_error@std@@@8
	DD	FLAT:??_R3logic_error@std@@8
rdata$r	ENDS
;	COMDAT ??_C@_0CM@OKFFKAMG@C?3?2projects?2gsl?2tests?2span_compi@
CONST	SEGMENT
??_C@_0CM@OKFFKAMG@C?3?2projects?2gsl?2tests?2span_compi@ DB 'C:\projects'
	DB	'\gsl\tests\span_compile_only.cpp', 00H	; `string'
CONST	ENDS
;	COMDAT ??_C@_0BE@FAFDKEMK@default_constructor?$AA@
CONST	SEGMENT
??_C@_0BE@FAFDKEMK@default_constructor?$AA@ DB 'default_constructor', 00H ; `string'
CONST	ENDS
;	COMDAT ??_7?$UnaryExpr@_N@Catch@@6B@
CONST	SEGMENT
??_7?$UnaryExpr@_N@Catch@@6B@ DD FLAT:??_R4?$UnaryExpr@_N@Catch@@6B@ ; Catch::UnaryExpr<bool>::`vftable'
	DD	FLAT:?isBinaryExpression@?$UnaryExpr@_N@Catch@@EBE_NXZ
	DD	FLAT:?getResult@?$UnaryExpr@_N@Catch@@EBE_NXZ
	DD	FLAT:?streamReconstructedExpression@?$UnaryExpr@_N@Catch@@EBEXAAV?$basic_ostream@DU?$char_traits@D@std@@@std@@@Z
	DD	FLAT:??_E?$UnaryExpr@_N@Catch@@UAEPAXI@Z
CONST	ENDS
;	COMDAT ??_R1A@?0A@EA@exception@std@@8
rdata$r	SEGMENT
??_R1A@?0A@EA@exception@std@@8 DD FLAT:??_R0?AVexception@std@@@8 ; std::exception::`RTTI Base Class Descriptor at (0,-1,0,64)'
	DD	00H
	DD	00H
	DD	0ffffffffH
	DD	00H
	DD	040H
	DD	FLAT:??_R3exception@std@@8
rdata$r	ENDS
;	COMDAT ??_R2exception@std@@8
rdata$r	SEGMENT
??_R2exception@std@@8 DD FLAT:??_R1A@?0A@EA@exception@std@@8 ; std::exception::`RTTI Base Class Array'
rdata$r	ENDS
;	COMDAT ??_R3exception@std@@8
rdata$r	SEGMENT
??_R3exception@std@@8 DD 00H				; std::exception::`RTTI Class Hierarchy Descriptor'
	DD	00H
	DD	01H
	DD	FLAT:??_R2exception@std@@8
rdata$r	ENDS
;	COMDAT ??_R4exception@std@@6B@
rdata$r	SEGMENT
??_R4exception@std@@6B@ DD 00H				; std::exception::`RTTI Complete Object Locator'
	DD	00H
	DD	00H
	DD	FLAT:??_R0?AVexception@std@@@8
	DD	FLAT:??_R3exception@std@@8
rdata$r	ENDS
;	COMDAT ??_7fail_fast@gsl@@6B@
CONST	SEGMENT
??_7fail_fast@gsl@@6B@ DD FLAT:??_R4fail_fast@gsl@@6B@	; gsl::fail_fast::`vftable'
	DD	FLAT:??_Efail_fast@gsl@@UAEPAXI@Z
	DD	FLAT:?what@exception@std@@UBEPBDXZ
CONST	ENDS
;	COMDAT __CT??_R0?AVlogic_error@std@@@8??0logic_error@std@@QAE@ABV01@@Z12
xdata$x	SEGMENT
__CT??_R0?AVlogic_error@std@@@8??0logic_error@std@@QAE@ABV01@@Z12 DD 00H
	DD	FLAT:??_R0?AVlogic_error@std@@@8
	DD	00H
	DD	0ffffffffH
	ORG $+4
	DD	0cH
	DD	FLAT:??0logic_error@std@@QAE@ABV01@@Z
xdata$x	ENDS
;	COMDAT ??_R0?AVlogic_error@std@@@8
data$r	SEGMENT
??_R0?AVlogic_error@std@@@8 DD FLAT:??_7type_info@@6B@	; std::logic_error `RTTI Type Descriptor'
	DD	00H
	DB	'.?AVlogic_error@std@@', 00H
data$r	ENDS
;	COMDAT __CT??_R0?AUfail_fast@gsl@@@8??0fail_fast@gsl@@QAE@ABU01@@Z12
xdata$x	SEGMENT
__CT??_R0?AUfail_fast@gsl@@@8??0fail_fast@gsl@@QAE@ABU01@@Z12 DD 00H
	DD	FLAT:??_R0?AUfail_fast@gsl@@@8
	DD	00H
	DD	0ffffffffH
	ORG $+4
	DD	0cH
	DD	FLAT:??0fail_fast@gsl@@QAE@ABU01@@Z
xdata$x	ENDS
;	COMDAT ??_R0?AUfail_fast@gsl@@@8
data$r	SEGMENT
??_R0?AUfail_fast@gsl@@@8 DD FLAT:??_7type_info@@6B@	; gsl::fail_fast `RTTI Type Descriptor'
	DD	00H
	DB	'.?AUfail_fast@gsl@@', 00H
data$r	ENDS
;	COMDAT __CTA3?AUfail_fast@gsl@@
xdata$x	SEGMENT
__CTA3?AUfail_fast@gsl@@ DD 03H
	DD	FLAT:__CT??_R0?AUfail_fast@gsl@@@8??0fail_fast@gsl@@QAE@ABU01@@Z12
	DD	FLAT:__CT??_R0?AVlogic_error@std@@@8??0logic_error@std@@QAE@ABV01@@Z12
	DD	FLAT:__CT??_R0?AVexception@std@@@8??0exception@std@@QAE@ABV01@@Z12
xdata$x	ENDS
;	COMDAT __TI3?AUfail_fast@gsl@@
xdata$x	SEGMENT
__TI3?AUfail_fast@gsl@@ DD 00H
	DD	FLAT:??1fail_fast@gsl@@UAE@XZ
	DD	00H
	DD	FLAT:__CTA3?AUfail_fast@gsl@@
xdata$x	ENDS
;	COMDAT ??_7ITransientExpression@Catch@@6B@
CONST	SEGMENT
??_7ITransientExpression@Catch@@6B@ DD FLAT:??_R4ITransientExpression@Catch@@6B@ ; Catch::ITransientExpression::`vftable'
	DD	FLAT:__purecall
	DD	FLAT:__purecall
	DD	FLAT:__purecall
	DD	FLAT:??_EITransientExpression@Catch@@UAEPAXI@Z
CONST	ENDS
;	COMDAT ??_C@_0BC@EOODALEL@Unknown?5exception?$AA@
CONST	SEGMENT
??_C@_0BC@EOODALEL@Unknown?5exception?$AA@ DB 'Unknown exception', 00H ; `string'
CONST	ENDS
;	COMDAT ??_7exception@std@@6B@
CONST	SEGMENT
??_7exception@std@@6B@ DD FLAT:??_R4exception@std@@6B@	; std::exception::`vftable'
	DD	FLAT:??_Eexception@std@@UAEPAXI@Z
	DD	FLAT:?what@exception@std@@UBEPBDXZ
CONST	ENDS
;	COMDAT ??_C@_00CNPNBAHC@?$AA@
CONST	SEGMENT
??_C@_00CNPNBAHC@?$AA@ DB 00H				; `string'
CONST	ENDS
;	COMDAT ??_C@_0CJ@IEJGAEAC@?$CIcs?4size?$CI?$CJ?5?$DN?$DN?50?5?$CG?$CG?5cs?4data?$CI?$CJ?5?$DN?$DN?5@
CONST	SEGMENT
??_C@_0CJ@IEJGAEAC@?$CIcs?4size?$CI?$CJ?5?$DN?$DN?50?5?$CG?$CG?5cs?4data?$CI?$CJ?5?$DN?$DN?5@ DB '('
	DB	'cs.size() == 0 && cs.data() == nullptr)', 00H ; `string'
CONST	ENDS
;	COMDAT ??_C@_05GCOJDIEO@CHECK?$AA@
CONST	SEGMENT
??_C@_05GCOJDIEO@CHECK?$AA@ DB 'CHECK', 00H		; `string'
CONST	ENDS
;	COMDAT ??_C@_0CH@JINBLNPO@?$CIs?4size?$CI?$CJ?5?$DN?$DN?50?5?$CG?$CG?5s?4data?$CI?$CJ?5?$DN?$DN?5nu@
CONST	SEGMENT
??_C@_0CH@JINBLNPO@?$CIs?4size?$CI?$CJ?5?$DN?$DN?50?5?$CG?$CG?5s?4data?$CI?$CJ?5?$DN?$DN?5nu@ DB '('
	DB	's.size() == 0 && s.data() == nullptr)', 00H	; `string'
CONST	ENDS
PUBLIC	??1exception@std@@UAE@XZ			; std::exception::~exception
PUBLIC	?_Deallocate@std@@YAXPAXII@Z			; std::_Deallocate
PUBLIC	??1?$basic_string@DU?$char_traits@D@std@@V?$allocator@D@2@@std@@QAE@XZ ; std::basic_string<char,std::char_traits<char>,std::allocator<char> >::~basic_string<char,std::char_traits<char>,std::allocator<char> >
PUBLIC	?makeUnaryExpr@?$ExprLhs@_N@Catch@@QBE?AV?$UnaryExpr@_N@2@XZ ; Catch::ExprLhs<bool>::makeUnaryExpr
PUBLIC	??$throw_exception@Ufail_fast@gsl@@@details@gsl@@YAX$$QAUfail_fast@1@@Z ; gsl::details::throw_exception<gsl::fail_fast>
PUBLIC	??1?$UnaryExpr@_N@Catch@@UAE@XZ			; Catch::UnaryExpr<bool>::~UnaryExpr<bool>
PUBLIC	??$stringify@_N@Detail@Catch@@YA?AV?$basic_string@DU?$char_traits@D@std@@V?$allocator@D@2@@std@@AB_N@Z ; Catch::Detail::stringify<bool>
PUBLIC	??$?6DU?$char_traits@D@std@@V?$allocator@D@1@@std@@YAAAV?$basic_ostream@DU?$char_traits@D@std@@@0@AAV10@ABV?$basic_string@DU?$char_traits@D@std@@V?$allocator@D@2@@0@@Z ; std::operator<<<char,std::char_traits<char>,std::allocator<char> >
PUBLIC	??1_Sentry_base@?$basic_ostream@DU?$char_traits@D@std@@@std@@QAE@XZ ; std::basic_ostream<char,std::char_traits<char> >::_Sentry_base::~_Sentry_base
PUBLIC	??1sentry@?$basic_ostream@DU?$char_traits@D@std@@@std@@QAE@XZ ; std::basic_ostream<char,std::char_traits<char> >::sentry::~sentry
PUBLIC	?autoRegistrar1@?A0xea02b608@@3UAutoReg@Catch@@A ; `anonymous namespace'::autoRegistrar1
EXTRN	??3@YAXPAX@Z:PROC				; operator delete
EXTRN	??3@YAXPAXI@Z:PROC				; operator delete
EXTRN	_atexit:PROC
EXTRN	___std_terminate:PROC
EXTRN	__imp___invalid_parameter_noinfo_noreturn:PROC
EXTRN	__imp_?uncaught_exception@std@@YA_NXZ:PROC
EXTRN	__imp____std_exception_copy:PROC
EXTRN	__imp____std_exception_destroy:PROC
EXTRN	__imp_?sputc@?$basic_streambuf@DU?$char_traits@D@std@@@std@@QAEHD@Z:PROC
EXTRN	__imp_?sputn@?$basic_streambuf@DU?$char_traits@D@std@@@std@@QAE_JPBD_J@Z:PROC
EXTRN	__imp_?setstate@?$basic_ios@DU?$char_traits@D@std@@@std@@QAEXH_N@Z:PROC
EXTRN	__imp_?_Osfx@?$basic_ostream@DU?$char_traits@D@std@@@std@@QAEXXZ:PROC
EXTRN	__imp_?flush@?$basic_ostream@DU?$char_traits@D@std@@@std@@QAEAAV12@XZ:PROC
EXTRN	??0SourceLineInfo@Catch@@QAE@PBDI@Z:PROC	; Catch::SourceLineInfo::SourceLineInfo
EXTRN	?isTrue@Catch@@YA_N_N@Z:PROC			; Catch::isTrue
EXTRN	??0StringRef@Catch@@QAE@PBD@Z:PROC		; Catch::StringRef::StringRef
EXTRN	??1StringRef@Catch@@QAE@XZ:PROC			; Catch::StringRef::~StringRef
EXTRN	?makeTestInvoker@Catch@@YAPAUITestInvoker@1@P6AXXZ@Z:PROC ; Catch::makeTestInvoker
EXTRN	??0NameAndTags@Catch@@QAE@VStringRef@1@0@Z:PROC	; Catch::NameAndTags::NameAndTags
EXTRN	??0AutoReg@Catch@@QAE@PAUITestInvoker@1@ABUSourceLineInfo@1@VStringRef@1@ABUNameAndTags@1@@Z:PROC ; Catch::AutoReg::AutoReg
EXTRN	??1AutoReg@Catch@@UAE@XZ:PROC			; Catch::AutoReg::~AutoReg
EXTRN	?convert@?$StringMaker@_N@Catch@@SA?AV?$basic_string@DU?$char_traits@D@std@@V?$allocator@D@2@@std@@_N@Z:PROC ; Catch::StringMaker<bool>::convert
EXTRN	??1ITransientExpression@Catch@@UAE@XZ:PROC	; Catch::ITransientExpression::~ITransientExpression
EXTRN	??0AssertionHandler@Catch@@QAE@VStringRef@1@ABUSourceLineInfo@1@0W4Flags@ResultDisposition@1@@Z:PROC ; Catch::AssertionHandler::AssertionHandler
EXTRN	??1AssertionHandler@Catch@@QAE@XZ:PROC		; Catch::AssertionHandler::~AssertionHandler
EXTRN	?handle@AssertionHandler@Catch@@QAEXABUITransientExpression@2@@Z:PROC ; Catch::AssertionHandler::handle
EXTRN	?shouldDebugBreak@AssertionHandler@Catch@@QBE_NXZ:PROC ; Catch::AssertionHandler::shouldDebugBreak
EXTRN	?reactWithoutDebugBreak@AssertionHandler@Catch@@QBEXXZ:PROC ; Catch::AssertionHandler::reactWithoutDebugBreak
EXTRN	?useActiveException@AssertionHandler@Catch@@QAEXXZ:PROC ; Catch::AssertionHandler::useActiveException
EXTRN	?isDebuggerActive@Catch@@YA_NXZ:PROC		; Catch::isDebuggerActive
EXTRN	@__security_check_cookie@4:PROC
EXTRN	__CxxThrowException@8:PROC
EXTRN	___CxxFrameHandler3:PROC
EXTRN	_memcpy:PROC
EXTRN	___security_cookie:DWORD
_BSS	SEGMENT
?autoRegistrar1@?A0xea02b608@@3UAutoReg@Catch@@A DD 01H DUP (?) ; `anonymous namespace'::autoRegistrar1
_BSS	ENDS
CRT$XCU	SEGMENT
?autoRegistrar1$initializer$@?A0xea02b608@@3P6AXXZA DD FLAT:??__EautoRegistrar1@?A0xea02b608@@YAXXZ ; `anonymous namespace'::autoRegistrar1$initializer$
CRT$XCU	ENDS
;	COMDAT xdata$x
xdata$x	SEGMENT
__unwindtable$??1sentry@?$basic_ostream@DU?$char_traits@D@std@@@std@@QAE@XZ DD 0ffffffffH
	DD	FLAT:__unwindfunclet$??1sentry@?$basic_ostream@DU?$char_traits@D@std@@@std@@QAE@XZ$0
__ehfuncinfo$??1sentry@?$basic_ostream@DU?$char_traits@D@std@@@std@@QAE@XZ DD 019930522H
	DD	01H
	DD	FLAT:__unwindtable$??1sentry@?$basic_ostream@DU?$char_traits@D@std@@@std@@QAE@XZ
	DD	2 DUP(00H)
	DD	2 DUP(00H)
	DD	00H
	DD	05H
xdata$x	ENDS
;	COMDAT xdata$x
xdata$x	SEGMENT
__unwindtable$??0sentry@?$basic_ostream@DU?$char_traits@D@std@@@std@@QAE@AAV12@@Z DD 0ffffffffH
	DD	FLAT:__unwindfunclet$??0sentry@?$basic_ostream@DU?$char_traits@D@std@@@std@@QAE@AAV12@@Z$0
__ehfuncinfo$??0sentry@?$basic_ostream@DU?$char_traits@D@std@@@std@@QAE@AAV12@@Z DD 019930522H
	DD	01H
	DD	FLAT:__unwindtable$??0sentry@?$basic_ostream@DU?$char_traits@D@std@@@std@@QAE@AAV12@@Z
	DD	2 DUP(00H)
	DD	2 DUP(00H)
	DD	00H
	DD	01H
xdata$x	ENDS
;	COMDAT xdata$x
xdata$x	SEGMENT
__ehfuncinfo$??1_Sentry_base@?$basic_ostream@DU?$char_traits@D@std@@@std@@QAE@XZ DD 019930522H
	DD	00H
	DD	00H
	DD	2 DUP(00H)
	DD	2 DUP(00H)
	DD	00H
	DD	05H
xdata$x	ENDS
;	COMDAT xdata$x
xdata$x	SEGMENT
__catchsym$??$?6DU?$char_traits@D@std@@V?$allocator@D@1@@std@@YAAAV?$basic_ostream@DU?$char_traits@D@std@@@0@AAV10@ABV?$basic_string@DU?$char_traits@D@std@@V?$allocator@D@2@@0@@Z$17 DD 040H
	DD	00H
	DD	00H
	DD	FLAT:__catch$??$?6DU?$char_traits@D@std@@V?$allocator@D@1@@std@@YAAAV?$basic_ostream@DU?$char_traits@D@std@@@0@AAV10@ABV?$basic_string@DU?$char_traits@D@std@@V?$allocator@D@2@@0@@Z$0
__tryblocktable$??$?6DU?$char_traits@D@std@@V?$allocator@D@1@@std@@YAAAV?$basic_ostream@DU?$char_traits@D@std@@@0@AAV10@ABV?$basic_string@DU?$char_traits@D@std@@V?$allocator@D@2@@0@@Z DD 02H
	DD	02H
	DD	03H
	DD	01H
	DD	FLAT:__catchsym$??$?6DU?$char_traits@D@std@@V?$allocator@D@1@@std@@YAAAV?$basic_ostream@DU?$char_traits@D@std@@@0@AAV10@ABV?$basic_string@DU?$char_traits@D@std@@V?$allocator@D@2@@0@@Z$17
__ehfuncinfo$??$?6DU?$char_traits@D@std@@V?$allocator@D@1@@std@@YAAAV?$basic_ostream@DU?$char_traits@D@std@@@0@AAV10@ABV?$basic_string@DU?$char_traits@D@std@@V?$allocator@D@2@@0@@Z DD 019930522H
	DD	06H
	DD	FLAT:__unwindtable$??$?6DU?$char_traits@D@std@@V?$allocator@D@1@@std@@YAAAV?$basic_ostream@DU?$char_traits@D@std@@@0@AAV10@ABV?$basic_string@DU?$char_traits@D@std@@V?$allocator@D@2@@0@@Z
	DD	01H
	DD	FLAT:__tryblocktable$??$?6DU?$char_traits@D@std@@V?$allocator@D@1@@std@@YAAAV?$basic_ostream@DU?$char_traits@D@std@@@0@AAV10@ABV?$basic_string@DU?$char_traits@D@std@@V?$allocator@D@2@@0@@Z
	DD	2 DUP(00H)
	DD	00H
	DD	01H
__unwindtable$??$?6DU?$char_traits@D@std@@V?$allocator@D@1@@std@@YAAAV?$basic_ostream@DU?$char_traits@D@std@@@0@AAV10@ABV?$basic_string@DU?$char_traits@D@std@@V?$allocator@D@2@@0@@Z DD 0ffffffffH
	DD	FLAT:__unwindfunclet$??$?6DU?$char_traits@D@std@@V?$allocator@D@1@@std@@YAAAV?$basic_ostream@DU?$char_traits@D@std@@@0@AAV10@ABV?$basic_string@DU?$char_traits@D@std@@V?$allocator@D@2@@0@@Z$7
	DD	0ffffffffH
	DD	FLAT:__unwindfunclet$??$?6DU?$char_traits@D@std@@V?$allocator@D@1@@std@@YAAAV?$basic_ostream@DU?$char_traits@D@std@@@0@AAV10@ABV?$basic_string@DU?$char_traits@D@std@@V?$allocator@D@2@@0@@Z$2
	DD	01H
	DD	00H
	DD	01H
	DD	00H
	DD	0ffffffffH
	DD	FLAT:__unwindfunclet$??$?6DU?$char_traits@D@std@@V?$allocator@D@1@@std@@YAAAV?$basic_ostream@DU?$char_traits@D@std@@@0@AAV10@ABV?$basic_string@DU?$char_traits@D@std@@V?$allocator@D@2@@0@@Z$15
	DD	04H
	DD	FLAT:__unwindfunclet$??$?6DU?$char_traits@D@std@@V?$allocator@D@1@@std@@YAAAV?$basic_ostream@DU?$char_traits@D@std@@@0@AAV10@ABV?$basic_string@DU?$char_traits@D@std@@V?$allocator@D@2@@0@@Z$16
xdata$x	ENDS
;	COMDAT xdata$x
xdata$x	SEGMENT
__unwindtable$??$?0V?$extent_type@$0A@@details@gsl@@@?$storage_type@V?$extent_type@$0?0@details@gsl@@@?$span@$$CBH$0?0@gsl@@QAE@PBHV?$extent_type@$0A@@details@2@@Z DD 0ffffffffH
	DD	00H
	DD	0ffffffffH
	DD	00H
__ehfuncinfo$??$?0V?$extent_type@$0A@@details@gsl@@@?$storage_type@V?$extent_type@$0?0@details@gsl@@@?$span@$$CBH$0?0@gsl@@QAE@PBHV?$extent_type@$0A@@details@2@@Z DD 019930522H
	DD	02H
	DD	FLAT:__unwindtable$??$?0V?$extent_type@$0A@@details@gsl@@@?$storage_type@V?$extent_type@$0?0@details@gsl@@@?$span@$$CBH$0?0@gsl@@QAE@PBHV?$extent_type@$0A@@details@2@@Z
	DD	2 DUP(00H)
	DD	2 DUP(00H)
	DD	00H
	DD	01H
xdata$x	ENDS
;	COMDAT xdata$x
xdata$x	SEGMENT
__unwindtable$?streamReconstructedExpression@?$UnaryExpr@_N@Catch@@EBEXAAV?$basic_ostream@DU?$char_traits@D@std@@@std@@@Z DD 0ffffffffH
	DD	FLAT:__unwindfunclet$?streamReconstructedExpression@?$UnaryExpr@_N@Catch@@EBEXAAV?$basic_ostream@DU?$char_traits@D@std@@@std@@@Z$0
__ehfuncinfo$?streamReconstructedExpression@?$UnaryExpr@_N@Catch@@EBEXAAV?$basic_ostream@DU?$char_traits@D@std@@@std@@@Z DD 019930522H
	DD	01H
	DD	FLAT:__unwindtable$?streamReconstructedExpression@?$UnaryExpr@_N@Catch@@EBEXAAV?$basic_ostream@DU?$char_traits@D@std@@@std@@@Z
	DD	2 DUP(00H)
	DD	2 DUP(00H)
	DD	00H
	DD	01H
xdata$x	ENDS
;	COMDAT xdata$x
xdata$x	SEGMENT
__unwindtable$??$?0V?$extent_type@$0A@@details@gsl@@@?$storage_type@V?$extent_type@$0?0@details@gsl@@@?$span@H$0?0@gsl@@QAE@PAHV?$extent_type@$0A@@details@2@@Z DD 0ffffffffH
	DD	00H
	DD	0ffffffffH
	DD	00H
__ehfuncinfo$??$?0V?$extent_type@$0A@@details@gsl@@@?$storage_type@V?$extent_type@$0?0@details@gsl@@@?$span@H$0?0@gsl@@QAE@PAHV?$extent_type@$0A@@details@2@@Z DD 019930522H
	DD	02H
	DD	FLAT:__unwindtable$??$?0V?$extent_type@$0A@@details@gsl@@@?$storage_type@V?$extent_type@$0?0@details@gsl@@@?$span@H$0?0@gsl@@QAE@PAHV?$extent_type@$0A@@details@2@@Z
	DD	2 DUP(00H)
	DD	2 DUP(00H)
	DD	00H
	DD	01H
xdata$x	ENDS
;	COMDAT xdata$x
xdata$x	SEGMENT
__ehfuncinfo$??$?0$0A@X@?$span@$$CBH$0?0@gsl@@QAE@XZ DD 019930522H
	DD	00H
	DD	00H
	DD	2 DUP(00H)
	DD	2 DUP(00H)
	DD	00H
	DD	05H
xdata$x	ENDS
;	COMDAT xdata$x
xdata$x	SEGMENT
__unwindtable$??$handle@_N@AssertionHandler@Catch@@QAEXABV?$ExprLhs@_N@1@@Z DD 0ffffffffH
	DD	FLAT:__unwindfunclet$??$handle@_N@AssertionHandler@Catch@@QAEXABV?$ExprLhs@_N@1@@Z$0
__ehfuncinfo$??$handle@_N@AssertionHandler@Catch@@QAEXABV?$ExprLhs@_N@1@@Z DD 019930522H
	DD	01H
	DD	FLAT:__unwindtable$??$handle@_N@AssertionHandler@Catch@@QAEXABV?$ExprLhs@_N@1@@Z
	DD	2 DUP(00H)
	DD	2 DUP(00H)
	DD	00H
	DD	01H
xdata$x	ENDS
;	COMDAT xdata$x
xdata$x	SEGMENT
__ehfuncinfo$??$?0$0A@X@?$span@H$0?0@gsl@@QAE@XZ DD 019930522H
	DD	00H
	DD	00H
	DD	2 DUP(00H)
	DD	2 DUP(00H)
	DD	00H
	DD	05H
xdata$x	ENDS
;	COMDAT xdata$x
xdata$x	SEGMENT
__catchsym$?____C_A_T_C_H____T_E_S_T____0@@YAXXZ$45 DD 040H
	DD	00H
	DD	00H
	DD	FLAT:__catch$?____C_A_T_C_H____T_E_S_T____0@@YAXXZ$2
__catchsym$?____C_A_T_C_H____T_E_S_T____0@@YAXXZ$44 DD 040H
	DD	00H
	DD	00H
	DD	FLAT:__catch$?____C_A_T_C_H____T_E_S_T____0@@YAXXZ$0
__ehfuncinfo$?____C_A_T_C_H____T_E_S_T____0@@YAXXZ DD 019930522H
	DD	0aH
	DD	FLAT:__unwindtable$?____C_A_T_C_H____T_E_S_T____0@@YAXXZ
	DD	02H
	DD	FLAT:__tryblocktable$?____C_A_T_C_H____T_E_S_T____0@@YAXXZ
	DD	2 DUP(00H)
	DD	00H
	DD	01H
__tryblocktable$?____C_A_T_C_H____T_E_S_T____0@@YAXXZ DD 02H
	DD	03H
	DD	04H
	DD	01H
	DD	FLAT:__catchsym$?____C_A_T_C_H____T_E_S_T____0@@YAXXZ$44
	DD	07H
	DD	08H
	DD	09H
	DD	01H
	DD	FLAT:__catchsym$?____C_A_T_C_H____T_E_S_T____0@@YAXXZ$45
__unwindtable$?____C_A_T_C_H____T_E_S_T____0@@YAXXZ DD 0ffffffffH
	DD	FLAT:__unwindfunclet$?____C_A_T_C_H____T_E_S_T____0@@YAXXZ$10
	DD	0ffffffffH
	DD	FLAT:__unwindfunclet$?____C_A_T_C_H____T_E_S_T____0@@YAXXZ$6
	DD	01H
	DD	00H
	DD	02H
	DD	FLAT:__unwindfunclet$?____C_A_T_C_H____T_E_S_T____0@@YAXXZ$25
	DD	01H
	DD	00H
	DD	0ffffffffH
	DD	FLAT:__unwindfunclet$?____C_A_T_C_H____T_E_S_T____0@@YAXXZ$27
	DD	0ffffffffH
	DD	FLAT:__unwindfunclet$?____C_A_T_C_H____T_E_S_T____0@@YAXXZ$9
	DD	06H
	DD	00H
	DD	07H
	DD	FLAT:__unwindfunclet$?____C_A_T_C_H____T_E_S_T____0@@YAXXZ$42
	DD	06H
	DD	00H
xdata$x	ENDS
; Function compile flags: /Ogtp
;	COMDAT ??Bsentry@?$basic_ostream@DU?$char_traits@D@std@@@std@@QBE_NXZ
_TEXT	SEGMENT
??Bsentry@?$basic_ostream@DU?$char_traits@D@std@@@std@@QBE_NXZ PROC ; std::basic_ostream<char,std::char_traits<char> >::sentry::operator bool, COMDAT
; _this$ = ecx
; File c:\program files (x86)\microsoft visual studio 14.0\vc\include\ostream
; Line 142
	mov	al, BYTE PTR [ecx+4]
; Line 143
	ret	0
??Bsentry@?$basic_ostream@DU?$char_traits@D@std@@@std@@QBE_NXZ ENDP ; std::basic_ostream<char,std::char_traits<char> >::sentry::operator bool
_TEXT	ENDS
; Function compile flags: /Ogtp
;	COMDAT ??1sentry@?$basic_ostream@DU?$char_traits@D@std@@@std@@QAE@XZ
_TEXT	SEGMENT
__$EHRec$ = -12						; size = 12
??1sentry@?$basic_ostream@DU?$char_traits@D@std@@@std@@QAE@XZ PROC ; std::basic_ostream<char,std::char_traits<char> >::sentry::~sentry, COMDAT
; _this$ = ecx
; File c:\program files (x86)\microsoft visual studio 14.0\vc\include\ostream
; Line 130
	push	ebp
	mov	ebp, esp
	push	-1
	push	__ehhandler$??1sentry@?$basic_ostream@DU?$char_traits@D@std@@@std@@QAE@XZ
	mov	eax, DWORD PTR fs:0
	push	eax
	push	esi
	mov	eax, DWORD PTR ___security_cookie
	xor	eax, ebp
	push	eax
	lea	eax, DWORD PTR __$EHRec$[ebp]
	mov	DWORD PTR fs:0, eax
	mov	esi, ecx
; Line 132
	call	DWORD PTR __imp_?uncaught_exception@std@@YA_NXZ
	test	al, al
	jne	SHORT $LN2@sentry
; Line 133
	mov	ecx, DWORD PTR [esi]
	call	DWORD PTR __imp_?_Osfx@?$basic_ostream@DU?$char_traits@D@std@@@std@@QAEXXZ
$LN2@sentry:
; Line 107
	mov	ecx, DWORD PTR [esi]
	mov	DWORD PTR __$EHRec$[ebp+8], 0
	mov	eax, DWORD PTR [ecx]
	mov	eax, DWORD PTR [eax+4]
	mov	ecx, DWORD PTR [eax+ecx+56]
	test	ecx, ecx
	je	SHORT $LN5@sentry
; Line 108
	mov	eax, DWORD PTR [ecx]
	call	DWORD PTR [eax+8]
$LN5@sentry:
; Line 138
	mov	ecx, DWORD PTR __$EHRec$[ebp]
	mov	DWORD PTR fs:0, ecx
	pop	ecx
	pop	esi
	mov	esp, ebp
	pop	ebp
	ret	0
_TEXT	ENDS
;	COMDAT text$x
text$x	SEGMENT
__unwindfunclet$??1sentry@?$basic_ostream@DU?$char_traits@D@std@@@std@@QAE@XZ$0:
	call	___std_terminate
	ret	0
__ehhandler$??1sentry@?$basic_ostream@DU?$char_traits@D@std@@@std@@QAE@XZ:
	mov	edx, DWORD PTR [esp+8]
	lea	eax, DWORD PTR [edx+12]
	mov	ecx, DWORD PTR [edx-8]
	xor	ecx, eax
	call	@__security_check_cookie@4
	mov	eax, OFFSET __ehfuncinfo$??1sentry@?$basic_ostream@DU?$char_traits@D@std@@@std@@QAE@XZ
	jmp	___CxxFrameHandler3
text$x	ENDS
??1sentry@?$basic_ostream@DU?$char_traits@D@std@@@std@@QAE@XZ ENDP ; std::basic_ostream<char,std::char_traits<char> >::sentry::~sentry
; Function compile flags: /Ogtp
;	COMDAT ??0sentry@?$basic_ostream@DU?$char_traits@D@std@@@std@@QAE@AAV12@@Z
_TEXT	SEGMENT
_this$ = -16						; size = 4
__$EHRec$ = -12						; size = 12
__Ostr$ = 8						; size = 4
??0sentry@?$basic_ostream@DU?$char_traits@D@std@@@std@@QAE@AAV12@@Z PROC ; std::basic_ostream<char,std::char_traits<char> >::sentry::sentry, COMDAT
; _this$ = ecx
; File c:\program files (x86)\microsoft visual studio 14.0\vc\include\ostream
; Line 123
	push	ebp
	mov	ebp, esp
	push	-1
	push	__ehhandler$??0sentry@?$basic_ostream@DU?$char_traits@D@std@@@std@@QAE@AAV12@@Z
	mov	eax, DWORD PTR fs:0
	push	eax
	push	ecx
	push	esi
	push	edi
	mov	eax, DWORD PTR ___security_cookie
	xor	eax, ebp
	push	eax
	lea	eax, DWORD PTR __$EHRec$[ebp]
	mov	DWORD PTR fs:0, eax
	mov	edi, ecx
	mov	DWORD PTR _this$[ebp], edi
; Line 99
	mov	esi, DWORD PTR __Ostr$[ebp]
	mov	DWORD PTR [edi], esi
; File c:\program files (x86)\microsoft visual studio 14.0\vc\include\ios
; Line 92
	mov	eax, DWORD PTR [esi]
	mov	eax, DWORD PTR [eax+4]
	mov	ecx, DWORD PTR [eax+esi+56]
; File c:\program files (x86)\microsoft visual studio 14.0\vc\include\ostream
; Line 101
	test	ecx, ecx
	je	SHORT $LN6@sentry
; Line 102
	mov	eax, DWORD PTR [ecx]
	call	DWORD PTR [eax+4]
$LN6@sentry:
; File c:\program files (x86)\microsoft visual studio 14.0\vc\include\xiosbase
; Line 315
	mov	eax, DWORD PTR [esi]
; File c:\program files (x86)\microsoft visual studio 14.0\vc\include\ostream
; Line 122
	mov	DWORD PTR __$EHRec$[ebp+8], 0
; File c:\program files (x86)\microsoft visual studio 14.0\vc\include\xiosbase
; Line 315
	mov	eax, DWORD PTR [eax+4]
; Line 339
	cmp	DWORD PTR [eax+esi+12], 0
; File c:\program files (x86)\microsoft visual studio 14.0\vc\include\ostream
; Line 124
	jne	SHORT $LN2@sentry
	mov	ecx, DWORD PTR [eax+esi+60]
	test	ecx, ecx
	je	SHORT $LN2@sentry
	cmp	ecx, esi
	je	SHORT $LN2@sentry
; Line 125
	call	DWORD PTR __imp_?flush@?$basic_ostream@DU?$char_traits@D@std@@@std@@QAEAAV12@XZ
$LN2@sentry:
; File c:\program files (x86)\microsoft visual studio 14.0\vc\include\xiosbase
; Line 339
	mov	eax, DWORD PTR [esi]
	mov	eax, DWORD PTR [eax+4]
	cmp	DWORD PTR [eax+esi+12], 0
	sete	al
; File c:\program files (x86)\microsoft visual studio 14.0\vc\include\ostream
; Line 126
	mov	BYTE PTR [edi+4], al
; Line 127
	mov	eax, edi
	mov	ecx, DWORD PTR __$EHRec$[ebp]
	mov	DWORD PTR fs:0, ecx
	pop	ecx
	pop	edi
	pop	esi
	mov	esp, ebp
	pop	ebp
	ret	4
_TEXT	ENDS
;	COMDAT text$x
text$x	SEGMENT
__unwindfunclet$??0sentry@?$basic_ostream@DU?$char_traits@D@std@@@std@@QAE@AAV12@@Z$0:
	mov	ecx, DWORD PTR _this$[ebp]
	jmp	??1_Sentry_base@?$basic_ostream@DU?$char_traits@D@std@@@std@@QAE@XZ ; std::basic_ostream<char,std::char_traits<char> >::_Sentry_base::~_Sentry_base
__ehhandler$??0sentry@?$basic_ostream@DU?$char_traits@D@std@@@std@@QAE@AAV12@@Z:
	mov	edx, DWORD PTR [esp+8]
	lea	eax, DWORD PTR [edx+12]
	mov	ecx, DWORD PTR [edx-16]
	xor	ecx, eax
	call	@__security_check_cookie@4
	mov	eax, OFFSET __ehfuncinfo$??0sentry@?$basic_ostream@DU?$char_traits@D@std@@@std@@QAE@AAV12@@Z
	jmp	___CxxFrameHandler3
text$x	ENDS
??0sentry@?$basic_ostream@DU?$char_traits@D@std@@@std@@QAE@AAV12@@Z ENDP ; std::basic_ostream<char,std::char_traits<char> >::sentry::sentry
; Function compile flags: /Ogtp
;	COMDAT ??1_Sentry_base@?$basic_ostream@DU?$char_traits@D@std@@@std@@QAE@XZ
_TEXT	SEGMENT
__$EHRec$ = -12						; size = 12
??1_Sentry_base@?$basic_ostream@DU?$char_traits@D@std@@@std@@QAE@XZ PROC ; std::basic_ostream<char,std::char_traits<char> >::_Sentry_base::~_Sentry_base, COMDAT
; _this$ = ecx
; File c:\program files (x86)\microsoft visual studio 14.0\vc\include\ostream
; Line 106
	push	ebp
	mov	ebp, esp
	push	-1
	push	__ehhandler$??1_Sentry_base@?$basic_ostream@DU?$char_traits@D@std@@@std@@QAE@XZ
	mov	eax, DWORD PTR fs:0
	push	eax
	mov	eax, DWORD PTR ___security_cookie
	xor	eax, ebp
	push	eax
	lea	eax, DWORD PTR __$EHRec$[ebp]
	mov	DWORD PTR fs:0, eax
; Line 107
	mov	ecx, DWORD PTR [ecx]
	mov	eax, DWORD PTR [ecx]
	mov	eax, DWORD PTR [eax+4]
	mov	ecx, DWORD PTR [eax+ecx+56]
	test	ecx, ecx
	je	SHORT $LN2@Sentry_bas
; Line 108
	mov	eax, DWORD PTR [ecx]
	call	DWORD PTR [eax+8]
$LN2@Sentry_bas:
; Line 109
	mov	ecx, DWORD PTR __$EHRec$[ebp]
	mov	DWORD PTR fs:0, ecx
	pop	ecx
	mov	esp, ebp
	pop	ebp
	ret	0
_TEXT	ENDS
;	COMDAT text$x
text$x	SEGMENT
__ehhandler$??1_Sentry_base@?$basic_ostream@DU?$char_traits@D@std@@@std@@QAE@XZ:
	mov	edx, DWORD PTR [esp+8]
	lea	eax, DWORD PTR [edx+12]
	mov	ecx, DWORD PTR [edx-4]
	xor	ecx, eax
	call	@__security_check_cookie@4
	mov	eax, OFFSET __ehfuncinfo$??1_Sentry_base@?$basic_ostream@DU?$char_traits@D@std@@@std@@QAE@XZ
	jmp	___CxxFrameHandler3
text$x	ENDS
??1_Sentry_base@?$basic_ostream@DU?$char_traits@D@std@@@std@@QAE@XZ ENDP ; std::basic_ostream<char,std::char_traits<char> >::_Sentry_base::~_Sentry_base
; Function compile flags: /Ogtp
;	COMDAT ??0_Sentry_base@?$basic_ostream@DU?$char_traits@D@std@@@std@@QAE@AAV12@@Z
_TEXT	SEGMENT
__Ostr$ = 8						; size = 4
??0_Sentry_base@?$basic_ostream@DU?$char_traits@D@std@@@std@@QAE@AAV12@@Z PROC ; std::basic_ostream<char,std::char_traits<char> >::_Sentry_base::_Sentry_base, COMDAT
; _this$ = ecx
; File c:\program files (x86)\microsoft visual studio 14.0\vc\include\ostream
; Line 100
	push	ebp
	mov	ebp, esp
; Line 99
	mov	edx, DWORD PTR __Ostr$[ebp]
	push	esi
; Line 100
	mov	esi, ecx
	mov	DWORD PTR [esi], edx
; Line 101
	mov	eax, DWORD PTR [edx]
	mov	eax, DWORD PTR [eax+4]
	mov	ecx, DWORD PTR [eax+edx+56]
	test	ecx, ecx
	je	SHORT $LN8@Sentry_bas
; Line 102
	mov	eax, DWORD PTR [ecx]
	call	DWORD PTR [eax+4]
$LN8@Sentry_bas:
; Line 103
	mov	eax, esi
	pop	esi
	pop	ebp
	ret	4
??0_Sentry_base@?$basic_ostream@DU?$char_traits@D@std@@@std@@QAE@AAV12@@Z ENDP ; std::basic_ostream<char,std::char_traits<char> >::_Sentry_base::_Sentry_base
_TEXT	ENDS
; Function compile flags: /Ogtp
;	COMDAT ??$destroy@PAD@?$allocator@D@std@@QAEXPAPAD@Z
_TEXT	SEGMENT
__Ptr$ = 8						; size = 4
??$destroy@PAD@?$allocator@D@std@@QAEXPAPAD@Z PROC	; std::allocator<char>::destroy<char *>, COMDAT
; _this$ = ecx
; File c:\program files (x86)\microsoft visual studio 14.0\vc\include\xmemory0
; Line 745
	ret	4
??$destroy@PAD@?$allocator@D@std@@QAEXPAPAD@Z ENDP	; std::allocator<char>::destroy<char *>
_TEXT	ENDS
; Function compile flags: /Ogtp
;	COMDAT ??$?0$0A@@?$extent_type@$0?0@details@gsl@@QAE@V?$extent_type@$0A@@12@@Z
_TEXT	SEGMENT
_ext$ = 8						; size = 1
??$?0$0A@@?$extent_type@$0?0@details@gsl@@QAE@V?$extent_type@$0A@@12@@Z PROC ; gsl::details::extent_type<-1>::extent_type<-1><0>, COMDAT
; _this$ = ecx
; File c:\projects\gsl\include\gsl\span
; Line 333
	mov	DWORD PTR [ecx], 0
; Line 334
	mov	eax, ecx
	ret	4
??$?0$0A@@?$extent_type@$0?0@details@gsl@@QAE@V?$extent_type@$0A@@12@@Z ENDP ; gsl::details::extent_type<-1>::extent_type<-1><0>
_TEXT	ENDS
; Function compile flags: /Ogtp
;	COMDAT ??$?6DU?$char_traits@D@std@@V?$allocator@D@1@@std@@YAAAV?$basic_ostream@DU?$char_traits@D@std@@@0@AAV10@ABV?$basic_string@DU?$char_traits@D@std@@V?$allocator@D@2@@0@@Z
_TEXT	SEGMENT
$T2 = -36						; size = 8
$T3 = -36						; size = 8
__Ok$ = -36						; size = 8
$T4 = -28						; size = 1
__State$ = -24						; size = 4
__Size$1$ = -20						; size = 4
__$EHRec$ = -16						; size = 16
__Ostr$ = 8						; size = 4
$T5 = 12						; size = 1
__Str$ = 12						; size = 4
??$?6DU?$char_traits@D@std@@V?$allocator@D@1@@std@@YAAAV?$basic_ostream@DU?$char_traits@D@std@@@0@AAV10@ABV?$basic_string@DU?$char_traits@D@std@@V?$allocator@D@2@@0@@Z PROC ; std::operator<<<char,std::char_traits<char>,std::allocator<char> >, COMDAT
; File c:\program files (x86)\microsoft visual studio 14.0\vc\include\string
; Line 170
	push	ebp
	mov	ebp, esp
	push	-1
	push	__ehhandler$??$?6DU?$char_traits@D@std@@V?$allocator@D@1@@std@@YAAAV?$basic_ostream@DU?$char_traits@D@std@@@0@AAV10@ABV?$basic_string@DU?$char_traits@D@std@@V?$allocator@D@2@@0@@Z
	mov	eax, DWORD PTR fs:0
	push	eax
	sub	esp, 24					; 00000018H
	push	ebx
	push	esi
	push	edi
	mov	eax, DWORD PTR ___security_cookie
	xor	eax, ebp
	push	eax
	lea	eax, DWORD PTR __$EHRec$[ebp+4]
	mov	DWORD PTR fs:0, eax
	mov	DWORD PTR __$EHRec$[ebp], esp
; File c:\program files (x86)\microsoft visual studio 14.0\vc\include\xstring
; Line 1765
	mov	eax, DWORD PTR __Str$[ebp]
; File c:\program files (x86)\microsoft visual studio 14.0\vc\include\string
; Line 175
	xor	edi, edi
; File c:\program files (x86)\microsoft visual studio 14.0\vc\include\xiosbase
; Line 423
	mov	ebx, DWORD PTR __Ostr$[ebp]
; File c:\program files (x86)\microsoft visual studio 14.0\vc\include\string
; Line 175
	mov	DWORD PTR __State$[ebp], edi
; File c:\program files (x86)\microsoft visual studio 14.0\vc\include\xstring
; Line 1765
	mov	edx, DWORD PTR [eax+16]
; File c:\program files (x86)\microsoft visual studio 14.0\vc\include\xiosbase
; Line 423
	mov	eax, DWORD PTR [ebx]
; File c:\program files (x86)\microsoft visual studio 14.0\vc\include\xstring
; Line 1765
	mov	DWORD PTR __Size$1$[ebp], edx
; File c:\program files (x86)\microsoft visual studio 14.0\vc\include\xiosbase
; Line 423
	mov	ecx, DWORD PTR [eax+4]
	mov	eax, DWORD PTR [ecx+ebx+36]
	mov	esi, DWORD PTR [ecx+ebx+32]
; File c:\program files (x86)\microsoft visual studio 14.0\vc\include\string
; Line 177
	test	eax, eax
	jl	SHORT $LN17@operator
	jg	SHORT $LN135@operator
	test	esi, esi
	je	SHORT $LN17@operator
$LN135@operator:
; File c:\program files (x86)\microsoft visual studio 14.0\vc\include\xiosbase
; Line 423
	mov	DWORD PTR $T3[ebp+4], eax
; File c:\program files (x86)\microsoft visual studio 14.0\vc\include\string
; Line 177
	cmp	esi, edx
	jbe	SHORT $LN17@operator
; File c:\program files (x86)\microsoft visual studio 14.0\vc\include\xiosbase
; Line 423
	mov	DWORD PTR $T2[ebp+4], eax
; File c:\program files (x86)\microsoft visual studio 14.0\vc\include\string
; Line 177
	sub	esi, edx
	jmp	SHORT $LN18@operator
$LN17@operator:
	xor	esi, esi
$LN18@operator:
; File c:\program files (x86)\microsoft visual studio 14.0\vc\include\ios
; Line 92
	mov	ecx, DWORD PTR [ecx+ebx+56]
; File c:\program files (x86)\microsoft visual studio 14.0\vc\include\ostream
; Line 99
	mov	DWORD PTR __Ok$[ebp], ebx
; Line 101
	test	ecx, ecx
	je	SHORT $LN47@operator
; Line 102
	mov	eax, DWORD PTR [ecx]
	call	DWORD PTR [eax+4]
$LN47@operator:
; File c:\program files (x86)\microsoft visual studio 14.0\vc\include\xiosbase
; Line 315
	mov	eax, DWORD PTR [ebx]
; File c:\program files (x86)\microsoft visual studio 14.0\vc\include\ostream
; Line 122
	mov	DWORD PTR __$EHRec$[ebp+12], 0
; File c:\program files (x86)\microsoft visual studio 14.0\vc\include\xiosbase
; Line 315
	mov	eax, DWORD PTR [eax+4]
; Line 339
	cmp	DWORD PTR [eax+ebx+12], 0
; File c:\program files (x86)\microsoft visual studio 14.0\vc\include\ostream
; Line 124
	jne	SHORT $LN43@operator
; File c:\program files (x86)\microsoft visual studio 14.0\vc\include\ios
; Line 80
	mov	ecx, DWORD PTR [eax+ebx+60]
; File c:\program files (x86)\microsoft visual studio 14.0\vc\include\ostream
; Line 124
	test	ecx, ecx
	je	SHORT $LN43@operator
	cmp	ecx, ebx
	je	SHORT $LN43@operator
; Line 125
	call	DWORD PTR __imp_?flush@?$basic_ostream@DU?$char_traits@D@std@@@std@@QAEAAV12@XZ
$LN43@operator:
; File c:\program files (x86)\microsoft visual studio 14.0\vc\include\xiosbase
; Line 315
	mov	eax, DWORD PTR [ebx]
	mov	ecx, DWORD PTR [eax+4]
; Line 339
	cmp	DWORD PTR [ecx+ebx+12], 0
	sete	al
; File c:\program files (x86)\microsoft visual studio 14.0\vc\include\ostream
; Line 126
	mov	BYTE PTR __Ok$[ebp+4], al
; File c:\program files (x86)\microsoft visual studio 14.0\vc\include\string
; Line 179
	mov	DWORD PTR __$EHRec$[ebp+12], 1
; Line 181
	test	al, al
	jne	SHORT $LN8@operator
; Line 182
	mov	edi, 4
; Line 183
	jmp	$LN22@operator
$LN8@operator:
; File c:\program files (x86)\microsoft visual studio 14.0\vc\include\xiosbase
; Line 378
	mov	eax, DWORD PTR [ecx+ebx+20]
; File c:\program files (x86)\microsoft visual studio 14.0\vc\include\string
; Line 186
	and	eax, 448				; 000001c0H
	mov	BYTE PTR __$EHRec$[ebp+12], 2
	cmp	eax, 64					; 00000040H
	je	SHORT $LN132@operator
	npad	1
$LL4@operator:
; Line 187
	test	esi, esi
	je	SHORT $LN3@operator
; File c:\program files (x86)\microsoft visual studio 14.0\vc\include\ios
; Line 113
	mov	eax, DWORD PTR [ebx]
	mov	ecx, DWORD PTR [eax+4]
	mov	al, BYTE PTR [ecx+ebx+64]
; File c:\program files (x86)\microsoft visual studio 14.0\vc\include\string
; Line 188
	mov	ecx, DWORD PTR [ecx+ebx+56]
; File c:\program files (x86)\microsoft visual studio 14.0\vc\include\ios
; Line 113
	mov	BYTE PTR $T4[ebp], al
; File c:\program files (x86)\microsoft visual studio 14.0\vc\include\string
; Line 188
	push	DWORD PTR $T4[ebp]
	call	DWORD PTR __imp_?sputc@?$basic_streambuf@DU?$char_traits@D@std@@@std@@QAEHD@Z
; File c:\program files (x86)\microsoft visual studio 14.0\vc\include\iosfwd
; Line 595
	cmp	eax, -1
	sete	al
; File c:\program files (x86)\microsoft visual studio 14.0\vc\include\string
; Line 188
	test	al, al
	je	SHORT $LN2@operator
; Line 191
	mov	edi, 4
	mov	DWORD PTR __State$[ebp], edi
; Line 192
	jmp	SHORT $LL137@operator
$LN2@operator:
; Line 187
	dec	esi
	jmp	SHORT $LL4@operator
$LN3@operator:
	test	edi, edi
; Line 196
	jne	SHORT $LL137@operator
$LN132@operator:
; File c:\program files (x86)\microsoft visual studio 14.0\vc\include\xstring
; Line 521
	mov	ecx, DWORD PTR __Str$[ebp]
	cmp	DWORD PTR [ecx+20], 16			; 00000010H
	jb	SHORT $LN95@operator
; File c:\program files (x86)\microsoft visual studio 14.0\vc\include\xstddef
; Line 740
	mov	ecx, DWORD PTR [ecx]
$LN95@operator:
; File c:\program files (x86)\microsoft visual studio 14.0\vc\include\ios
; Line 92
	mov	eax, DWORD PTR [ebx]
; File c:\program files (x86)\microsoft visual studio 14.0\vc\include\string
; Line 196
	push	0
	push	DWORD PTR __Size$1$[ebp]
; File c:\program files (x86)\microsoft visual studio 14.0\vc\include\ios
; Line 92
	mov	eax, DWORD PTR [eax+4]
; File c:\program files (x86)\microsoft visual studio 14.0\vc\include\string
; Line 196
	push	ecx
	mov	ecx, DWORD PTR [eax+ebx+56]
	call	DWORD PTR __imp_?sputn@?$basic_streambuf@DU?$char_traits@D@std@@@std@@QAE_JPBD_J@Z
	cmp	eax, DWORD PTR __Size$1$[ebp]
	jne	SHORT $LN136@operator
	test	edx, edx
	jne	SHORT $LN136@operator
$LL137@operator:
; Line 200
	test	esi, esi
	je	SHORT $LN6@operator
; File c:\program files (x86)\microsoft visual studio 14.0\vc\include\ios
; Line 113
	mov	eax, DWORD PTR [ebx]
	mov	ecx, DWORD PTR [eax+4]
	mov	al, BYTE PTR [ecx+ebx+64]
; File c:\program files (x86)\microsoft visual studio 14.0\vc\include\string
; Line 201
	mov	ecx, DWORD PTR [ecx+ebx+56]
; File c:\program files (x86)\microsoft visual studio 14.0\vc\include\ios
; Line 113
	mov	BYTE PTR $T5[ebp], al
; File c:\program files (x86)\microsoft visual studio 14.0\vc\include\string
; Line 201
	push	DWORD PTR $T5[ebp]
	call	DWORD PTR __imp_?sputc@?$basic_streambuf@DU?$char_traits@D@std@@@std@@QAEHD@Z
; File c:\program files (x86)\microsoft visual studio 14.0\vc\include\iosfwd
; Line 595
	cmp	eax, -1
	sete	al
; File c:\program files (x86)\microsoft visual studio 14.0\vc\include\string
; Line 201
	test	al, al
	je	SHORT $LN5@operator
; Line 204
	or	edi, 4
; Line 205
	jmp	SHORT $LN6@operator
$LN5@operator:
; Line 200
	dec	esi
	jmp	SHORT $LL137@operator
$LN136@operator:
; Line 198
	mov	edi, 4
$LN6@operator:
; Line 207
	mov	eax, DWORD PTR [ebx]
	mov	eax, DWORD PTR [eax+4]
; File c:\program files (x86)\microsoft visual studio 14.0\vc\include\xiosbase
; Line 429
	mov	DWORD PTR [eax+ebx+32], 0
	mov	DWORD PTR [eax+ebx+36], 0
; File c:\program files (x86)\microsoft visual studio 14.0\vc\include\string
	jmp	SHORT $LN142@operator
__catch$??$?6DU?$char_traits@D@std@@V?$allocator@D@1@@std@@YAAAV?$basic_ostream@DU?$char_traits@D@std@@@0@AAV10@ABV?$basic_string@DU?$char_traits@D@std@@V?$allocator@D@2@@0@@Z$0:
; Line 208
	mov	edx, DWORD PTR __Ostr$[ebp]
	push	1
	push	4
	mov	eax, DWORD PTR [edx]
	mov	ecx, DWORD PTR [eax+4]
	add	ecx, edx
	call	DWORD PTR __imp_?setstate@?$basic_ios@DU?$char_traits@D@std@@@std@@QAEXH_N@Z
	mov	eax, $LN23@operator
	ret	0
$LN23@operator:
; File c:\program files (x86)\microsoft visual studio 14.0\vc\include\ios
	mov	ebx, DWORD PTR __Ostr$[ebp]
	mov	edi, DWORD PTR __State$[ebp]
$LN142@operator:
	mov	DWORD PTR __$EHRec$[ebp+12], 1
$LN22@operator:
; File c:\program files (x86)\microsoft visual studio 14.0\vc\include\string
; Line 211
	mov	eax, DWORD PTR [ebx]
	push	0
	push	edi
	mov	ecx, DWORD PTR [eax+4]
	add	ecx, ebx
	call	DWORD PTR __imp_?setstate@?$basic_ios@DU?$char_traits@D@std@@@std@@QAEXH_N@Z
; File c:\program files (x86)\microsoft visual studio 14.0\vc\include\ostream
; Line 130
	mov	DWORD PTR __$EHRec$[ebp+12], 4
; Line 132
	call	DWORD PTR __imp_?uncaught_exception@std@@YA_NXZ
; Line 133
	mov	esi, DWORD PTR __Ok$[ebp]
	test	al, al
	jne	SHORT $LN113@operator
	mov	ecx, esi
	call	DWORD PTR __imp_?_Osfx@?$basic_ostream@DU?$char_traits@D@std@@@std@@QAEXXZ
$LN113@operator:
; Line 107
	mov	ecx, DWORD PTR [esi]
	mov	BYTE PTR __$EHRec$[ebp+12], 5
	mov	ecx, DWORD PTR [ecx+4]
	mov	ecx, DWORD PTR [ecx+esi+56]
	test	ecx, ecx
	je	SHORT $LN138@operator
; Line 108
	mov	edx, DWORD PTR [ecx]
	call	DWORD PTR [edx+8]
$LN138@operator:
; File c:\program files (x86)\microsoft visual studio 14.0\vc\include\string
; Line 212
	mov	eax, ebx
; Line 213
	mov	ecx, DWORD PTR __$EHRec$[ebp+4]
	mov	DWORD PTR fs:0, ecx
	pop	ecx
	pop	edi
	pop	esi
	pop	ebx
	mov	esp, ebp
	pop	ebp
	ret	0
_TEXT	ENDS
;	COMDAT text$x
text$x	SEGMENT
__unwindfunclet$??$?6DU?$char_traits@D@std@@V?$allocator@D@1@@std@@YAAAV?$basic_ostream@DU?$char_traits@D@std@@@0@AAV10@ABV?$basic_string@DU?$char_traits@D@std@@V?$allocator@D@2@@0@@Z$7:
	lea	ecx, DWORD PTR __Ok$[ebp]
	jmp	??1_Sentry_base@?$basic_ostream@DU?$char_traits@D@std@@@std@@QAE@XZ ; std::basic_ostream<char,std::char_traits<char> >::_Sentry_base::~_Sentry_base
__unwindfunclet$??$?6DU?$char_traits@D@std@@V?$allocator@D@1@@std@@YAAAV?$basic_ostream@DU?$char_traits@D@std@@@0@AAV10@ABV?$basic_string@DU?$char_traits@D@std@@V?$allocator@D@2@@0@@Z$2:
	lea	ecx, DWORD PTR __Ok$[ebp]
	jmp	??1sentry@?$basic_ostream@DU?$char_traits@D@std@@@std@@QAE@XZ ; std::basic_ostream<char,std::char_traits<char> >::sentry::~sentry
__unwindfunclet$??$?6DU?$char_traits@D@std@@V?$allocator@D@1@@std@@YAAAV?$basic_ostream@DU?$char_traits@D@std@@@0@AAV10@ABV?$basic_string@DU?$char_traits@D@std@@V?$allocator@D@2@@0@@Z$15:
	call	___std_terminate
	ret	0
__unwindfunclet$??$?6DU?$char_traits@D@std@@V?$allocator@D@1@@std@@YAAAV?$basic_ostream@DU?$char_traits@D@std@@@0@AAV10@ABV?$basic_string@DU?$char_traits@D@std@@V?$allocator@D@2@@0@@Z$16:
	call	___std_terminate
	ret	0
__ehhandler$??$?6DU?$char_traits@D@std@@V?$allocator@D@1@@std@@YAAAV?$basic_ostream@DU?$char_traits@D@std@@@0@AAV10@ABV?$basic_string@DU?$char_traits@D@std@@V?$allocator@D@2@@0@@Z:
	mov	edx, DWORD PTR [esp+8]
	lea	eax, DWORD PTR [edx+12]
	mov	ecx, DWORD PTR [edx-40]
	xor	ecx, eax
	call	@__security_check_cookie@4
	mov	eax, OFFSET __ehfuncinfo$??$?6DU?$char_traits@D@std@@V?$allocator@D@1@@std@@YAAAV?$basic_ostream@DU?$char_traits@D@std@@@0@AAV10@ABV?$basic_string@DU?$char_traits@D@std@@V?$allocator@D@2@@0@@Z
	jmp	___CxxFrameHandler3
text$x	ENDS
??$?6DU?$char_traits@D@std@@V?$allocator@D@1@@std@@YAAAV?$basic_ostream@DU?$char_traits@D@std@@@0@AAV10@ABV?$basic_string@DU?$char_traits@D@std@@V?$allocator@D@2@@0@@Z ENDP ; std::operator<<<char,std::char_traits<char>,std::allocator<char> >
; Function compile flags: /Ogtp
;	COMDAT ??$stringify@_N@Detail@Catch@@YA?AV?$basic_string@DU?$char_traits@D@std@@V?$allocator@D@2@@std@@AB_N@Z
_TEXT	SEGMENT
$T1 = -4						; size = 4
___$ReturnUdt$ = 8					; size = 4
_e$ = 12						; size = 4
??$stringify@_N@Detail@Catch@@YA?AV?$basic_string@DU?$char_traits@D@std@@V?$allocator@D@2@@std@@AB_N@Z PROC ; Catch::Detail::stringify<bool>, COMDAT
; File c:\projects\gsl\build\external\include\catch\catch.hpp
; Line 596
	push	ebp
	mov	ebp, esp
	push	ecx
; Line 597
	mov	eax, DWORD PTR _e$[ebp]
	mov	DWORD PTR $T1[ebp], 0
	movzx	eax, BYTE PTR [eax]
	push	eax
	push	DWORD PTR ___$ReturnUdt$[ebp]
	call	?convert@?$StringMaker@_N@Catch@@SA?AV?$basic_string@DU?$char_traits@D@std@@V?$allocator@D@2@@std@@_N@Z ; Catch::StringMaker<bool>::convert
	mov	eax, DWORD PTR ___$ReturnUdt$[ebp]
	add	esp, 8
; Line 598
	mov	esp, ebp
	pop	ebp
	ret	0
??$stringify@_N@Detail@Catch@@YA?AV?$basic_string@DU?$char_traits@D@std@@V?$allocator@D@2@@std@@AB_N@Z ENDP ; Catch::Detail::stringify<bool>
_TEXT	ENDS
; Function compile flags: /Ogtp
;	COMDAT ??$destroy@PAD@?$allocator_traits@V?$allocator@D@std@@@std@@SAXAAV?$allocator@D@1@PAPAD@Z
_TEXT	SEGMENT
__Al$ = 8						; size = 4
__Ptr$ = 12						; size = 4
??$destroy@PAD@?$allocator_traits@V?$allocator@D@std@@@std@@SAXAAV?$allocator@D@1@PAPAD@Z PROC ; std::allocator_traits<std::allocator<char> >::destroy<char *>, COMDAT
; File c:\program files (x86)\microsoft visual studio 14.0\vc\include\xmemory0
; Line 865
	ret	0
??$destroy@PAD@?$allocator_traits@V?$allocator@D@std@@@std@@SAXAAV?$allocator@D@1@PAPAD@Z ENDP ; std::allocator_traits<std::allocator<char> >::destroy<char *>
_TEXT	ENDS
; Function compile flags: /Ogtp
;	COMDAT ??$?0V?$extent_type@$0A@@details@gsl@@@?$storage_type@V?$extent_type@$0?0@details@gsl@@@?$span@$$CBH$0?0@gsl@@QAE@PBHV?$extent_type@$0A@@details@2@@Z
_TEXT	SEGMENT
$T2 = -16						; size = 4
__$EHRec$ = -12						; size = 12
_data$ = 8						; size = 4
_ext$ = 12						; size = 1
??$?0V?$extent_type@$0A@@details@gsl@@@?$storage_type@V?$extent_type@$0?0@details@gsl@@@?$span@$$CBH$0?0@gsl@@QAE@PBHV?$extent_type@$0A@@details@2@@Z PROC ; gsl::span<int const ,-1>::storage_type<gsl::details::extent_type<-1> >::storage_type<gsl::details::extent_type<-1> ><gsl::details::extent_type<0> >, COMDAT
; _this$ = ecx
; File c:\projects\gsl\include\gsl\span
; Line 597
	push	ebp
	mov	ebp, esp
	push	-1
	push	__ehhandler$??$?0V?$extent_type@$0A@@details@gsl@@@?$storage_type@V?$extent_type@$0?0@details@gsl@@@?$span@$$CBH$0?0@gsl@@QAE@PBHV?$extent_type@$0A@@details@2@@Z
	mov	eax, DWORD PTR fs:0
	push	eax
	push	ecx
	mov	eax, DWORD PTR ___security_cookie
	xor	eax, ebp
	push	eax
	lea	eax, DWORD PTR __$EHRec$[ebp]
	mov	DWORD PTR fs:0, eax
; Line 596
	mov	eax, DWORD PTR _data$[ebp]
	mov	DWORD PTR $T2[ebp], 0
	mov	DWORD PTR [ecx+4], eax
; Line 600
	mov	eax, ecx
; Line 333
	mov	DWORD PTR [ecx], 0
; Line 600
	mov	ecx, DWORD PTR __$EHRec$[ebp]
	mov	DWORD PTR fs:0, ecx
	pop	ecx
	mov	esp, ebp
	pop	ebp
	ret	8
_TEXT	ENDS
;	COMDAT text$x
text$x	SEGMENT
__ehhandler$??$?0V?$extent_type@$0A@@details@gsl@@@?$storage_type@V?$extent_type@$0?0@details@gsl@@@?$span@$$CBH$0?0@gsl@@QAE@PBHV?$extent_type@$0A@@details@2@@Z:
	mov	edx, DWORD PTR [esp+8]
	lea	eax, DWORD PTR [edx+12]
	mov	ecx, DWORD PTR [edx-8]
	xor	ecx, eax
	call	@__security_check_cookie@4
	mov	eax, OFFSET __ehfuncinfo$??$?0V?$extent_type@$0A@@details@gsl@@@?$storage_type@V?$extent_type@$0?0@details@gsl@@@?$span@$$CBH$0?0@gsl@@QAE@PBHV?$extent_type@$0A@@details@2@@Z
	jmp	___CxxFrameHandler3
text$x	ENDS
??$?0V?$extent_type@$0A@@details@gsl@@@?$storage_type@V?$extent_type@$0?0@details@gsl@@@?$span@$$CBH$0?0@gsl@@QAE@PBHV?$extent_type@$0A@@details@2@@Z ENDP ; gsl::span<int const ,-1>::storage_type<gsl::details::extent_type<-1> >::storage_type<gsl::details::extent_type<-1> ><gsl::details::extent_type<0> >
; Function compile flags: /Ogtp
;	COMDAT ??_G?$UnaryExpr@_N@Catch@@UAEPAXI@Z
_TEXT	SEGMENT
___flags$ = 8						; size = 4
??_G?$UnaryExpr@_N@Catch@@UAEPAXI@Z PROC		; Catch::UnaryExpr<bool>::`scalar deleting destructor', COMDAT
; _this$ = ecx
	push	ebp
	mov	ebp, esp
	push	esi
	mov	esi, ecx
	call	??1ITransientExpression@Catch@@UAE@XZ	; Catch::ITransientExpression::~ITransientExpression
	test	BYTE PTR ___flags$[ebp], 1
	je	SHORT $LN7@scalar
	push	8
	push	esi
	call	??3@YAXPAXI@Z				; operator delete
	add	esp, 8
$LN7@scalar:
	mov	eax, esi
	pop	esi
	pop	ebp
	ret	4
??_G?$UnaryExpr@_N@Catch@@UAEPAXI@Z ENDP		; Catch::UnaryExpr<bool>::`scalar deleting destructor'
_TEXT	ENDS
; Function compile flags: /Ogtp
;	COMDAT ??1?$UnaryExpr@_N@Catch@@UAE@XZ
_TEXT	SEGMENT
??1?$UnaryExpr@_N@Catch@@UAE@XZ PROC			; Catch::UnaryExpr<bool>::~UnaryExpr<bool>, COMDAT
; _this$ = ecx
	jmp	??1ITransientExpression@Catch@@UAE@XZ	; Catch::ITransientExpression::~ITransientExpression
??1?$UnaryExpr@_N@Catch@@UAE@XZ ENDP			; Catch::UnaryExpr<bool>::~UnaryExpr<bool>
_TEXT	ENDS
; Function compile flags: /Ogtp
;	COMDAT ??0?$UnaryExpr@_N@Catch@@QAE@_N@Z
_TEXT	SEGMENT
_this$ = -4						; size = 4
_lhs$ = 8						; size = 1
??0?$UnaryExpr@_N@Catch@@QAE@_N@Z PROC			; Catch::UnaryExpr<bool>::UnaryExpr<bool>, COMDAT
; _this$ = ecx
; File c:\projects\gsl\build\external\include\catch\catch.hpp
; Line 1035
	push	ebp
	mov	ebp, esp
	push	ecx
	mov	al, BYTE PTR _lhs$[ebp]
	mov	BYTE PTR [ecx+4], al
	mov	eax, ecx
	mov	DWORD PTR _this$[ebp], ecx
	mov	DWORD PTR [ecx], OFFSET ??_7?$UnaryExpr@_N@Catch@@6B@
	mov	esp, ebp
	pop	ebp
	ret	4
??0?$UnaryExpr@_N@Catch@@QAE@_N@Z ENDP			; Catch::UnaryExpr<bool>::UnaryExpr<bool>
_TEXT	ENDS
; Function compile flags: /Ogtp
;	COMDAT ?streamReconstructedExpression@?$UnaryExpr@_N@Catch@@EBEXAAV?$basic_ostream@DU?$char_traits@D@std@@@std@@@Z
_TEXT	SEGMENT
$T2 = -40						; size = 24
__$ArrayPad$ = -16					; size = 4
__$EHRec$ = -12						; size = 12
_os$ = 8						; size = 4
?streamReconstructedExpression@?$UnaryExpr@_N@Catch@@EBEXAAV?$basic_ostream@DU?$char_traits@D@std@@@std@@@Z PROC ; Catch::UnaryExpr<bool>::streamReconstructedExpression, COMDAT
; _this$ = ecx
; File c:\projects\gsl\build\external\include\catch\catch.hpp
; Line 1030
	push	ebp
	mov	ebp, esp
	push	-1
	push	__ehhandler$?streamReconstructedExpression@?$UnaryExpr@_N@Catch@@EBEXAAV?$basic_ostream@DU?$char_traits@D@std@@@std@@@Z
	mov	eax, DWORD PTR fs:0
	push	eax
	sub	esp, 28					; 0000001cH
	mov	eax, DWORD PTR ___security_cookie
	xor	eax, ebp
	mov	DWORD PTR __$ArrayPad$[ebp], eax
	push	esi
	push	eax
	lea	eax, DWORD PTR __$EHRec$[ebp]
	mov	DWORD PTR fs:0, eax
	mov	esi, DWORD PTR _os$[ebp]
; Line 1031
	lea	eax, DWORD PTR [ecx+4]
	push	eax
	lea	eax, DWORD PTR $T2[ebp]
	push	eax
	call	??$stringify@_N@Detail@Catch@@YA?AV?$basic_string@DU?$char_traits@D@std@@V?$allocator@D@2@@std@@AB_N@Z ; Catch::Detail::stringify<bool>
	push	eax
	push	esi
	mov	DWORD PTR __$EHRec$[ebp+8], 0
	call	??$?6DU?$char_traits@D@std@@V?$allocator@D@1@@std@@YAAAV?$basic_ostream@DU?$char_traits@D@std@@@0@AAV10@ABV?$basic_string@DU?$char_traits@D@std@@V?$allocator@D@2@@0@@Z ; std::operator<<<char,std::char_traits<char>,std::allocator<char> >
; File c:\program files (x86)\microsoft visual studio 14.0\vc\include\xstring
; Line 2251
	mov	eax, DWORD PTR $T2[ebp+20]
; File c:\projects\gsl\build\external\include\catch\catch.hpp
; Line 1031
	add	esp, 16					; 00000010H
; File c:\program files (x86)\microsoft visual studio 14.0\vc\include\xstring
; Line 2251
	cmp	eax, 16					; 00000010H
	jb	SHORT $LN10@streamReco
; File c:\program files (x86)\microsoft visual studio 14.0\vc\include\xmemory0
; Line 720
	push	1
; File c:\program files (x86)\microsoft visual studio 14.0\vc\include\xstring
; Line 2258
	inc	eax
; File c:\program files (x86)\microsoft visual studio 14.0\vc\include\xmemory0
; Line 720
	push	eax
	push	DWORD PTR $T2[ebp]
	call	?_Deallocate@std@@YAXPAXII@Z		; std::_Deallocate
	add	esp, 12					; 0000000cH
$LN10@streamReco:
; File c:\projects\gsl\build\external\include\catch\catch.hpp
; Line 1032
	mov	ecx, DWORD PTR __$EHRec$[ebp]
	mov	DWORD PTR fs:0, ecx
	pop	ecx
	pop	esi
	mov	ecx, DWORD PTR __$ArrayPad$[ebp]
	xor	ecx, ebp
	call	@__security_check_cookie@4
	mov	esp, ebp
	pop	ebp
	ret	4
_TEXT	ENDS
;	COMDAT text$x
text$x	SEGMENT
__unwindfunclet$?streamReconstructedExpression@?$UnaryExpr@_N@Catch@@EBEXAAV?$basic_ostream@DU?$char_traits@D@std@@@std@@@Z$0:
	lea	ecx, DWORD PTR $T2[ebp]
	jmp	??1?$basic_string@DU?$char_traits@D@std@@V?$allocator@D@2@@std@@QAE@XZ ; std::basic_string<char,std::char_traits<char>,std::allocator<char> >::~basic_string<char,std::char_traits<char>,std::allocator<char> >
__ehhandler$?streamReconstructedExpression@?$UnaryExpr@_N@Catch@@EBEXAAV?$basic_ostream@DU?$char_traits@D@std@@@std@@@Z:
	mov	edx, DWORD PTR [esp+8]
	lea	eax, DWORD PTR [edx+12]
	mov	ecx, DWORD PTR [edx-36]
	xor	ecx, eax
	call	@__security_check_cookie@4
	mov	ecx, DWORD PTR [edx-4]
	xor	ecx, eax
	call	@__security_check_cookie@4
	mov	eax, OFFSET __ehfuncinfo$?streamReconstructedExpression@?$UnaryExpr@_N@Catch@@EBEXAAV?$basic_ostream@DU?$char_traits@D@std@@@std@@@Z
	jmp	___CxxFrameHandler3
text$x	ENDS
?streamReconstructedExpression@?$UnaryExpr@_N@Catch@@EBEXAAV?$basic_ostream@DU?$char_traits@D@std@@@std@@@Z ENDP ; Catch::UnaryExpr<bool>::streamReconstructedExpression
; Function compile flags: /Ogtp
;	COMDAT ?getResult@?$UnaryExpr@_N@Catch@@EBE_NXZ
_TEXT	SEGMENT
?getResult@?$UnaryExpr@_N@Catch@@EBE_NXZ PROC		; Catch::UnaryExpr<bool>::getResult, COMDAT
; _this$ = ecx
; File c:\projects\gsl\build\external\include\catch\catch.hpp
; Line 1028
	cmp	BYTE PTR [ecx+4], 0
	setne	al
	ret	0
?getResult@?$UnaryExpr@_N@Catch@@EBE_NXZ ENDP		; Catch::UnaryExpr<bool>::getResult
_TEXT	ENDS
; Function compile flags: /Ogtp
;	COMDAT ?isBinaryExpression@?$UnaryExpr@_N@Catch@@EBE_NXZ
_TEXT	SEGMENT
?isBinaryExpression@?$UnaryExpr@_N@Catch@@EBE_NXZ PROC	; Catch::UnaryExpr<bool>::isBinaryExpression, COMDAT
; _this$ = ecx
; File c:\projects\gsl\build\external\include\catch\catch.hpp
; Line 1027
	xor	al, al
	ret	0
?isBinaryExpression@?$UnaryExpr@_N@Catch@@EBE_NXZ ENDP	; Catch::UnaryExpr<bool>::isBinaryExpression
_TEXT	ENDS
; Function compile flags: /Ogtp
;	COMDAT ??$?0V?$extent_type@$0A@@details@gsl@@@?$storage_type@V?$extent_type@$0?0@details@gsl@@@?$span@H$0?0@gsl@@QAE@PAHV?$extent_type@$0A@@details@2@@Z
_TEXT	SEGMENT
$T2 = -16						; size = 4
__$EHRec$ = -12						; size = 12
_data$ = 8						; size = 4
_ext$ = 12						; size = 1
??$?0V?$extent_type@$0A@@details@gsl@@@?$storage_type@V?$extent_type@$0?0@details@gsl@@@?$span@H$0?0@gsl@@QAE@PAHV?$extent_type@$0A@@details@2@@Z PROC ; gsl::span<int,-1>::storage_type<gsl::details::extent_type<-1> >::storage_type<gsl::details::extent_type<-1> ><gsl::details::extent_type<0> >, COMDAT
; _this$ = ecx
; File c:\projects\gsl\include\gsl\span
; Line 597
	push	ebp
	mov	ebp, esp
	push	-1
	push	__ehhandler$??$?0V?$extent_type@$0A@@details@gsl@@@?$storage_type@V?$extent_type@$0?0@details@gsl@@@?$span@H$0?0@gsl@@QAE@PAHV?$extent_type@$0A@@details@2@@Z
	mov	eax, DWORD PTR fs:0
	push	eax
	push	ecx
	mov	eax, DWORD PTR ___security_cookie
	xor	eax, ebp
	push	eax
	lea	eax, DWORD PTR __$EHRec$[ebp]
	mov	DWORD PTR fs:0, eax
; Line 596
	mov	eax, DWORD PTR _data$[ebp]
	mov	DWORD PTR $T2[ebp], 0
	mov	DWORD PTR [ecx+4], eax
; Line 600
	mov	eax, ecx
; Line 333
	mov	DWORD PTR [ecx], 0
; Line 600
	mov	ecx, DWORD PTR __$EHRec$[ebp]
	mov	DWORD PTR fs:0, ecx
	pop	ecx
	mov	esp, ebp
	pop	ebp
	ret	8
_TEXT	ENDS
;	COMDAT text$x
text$x	SEGMENT
__ehhandler$??$?0V?$extent_type@$0A@@details@gsl@@@?$storage_type@V?$extent_type@$0?0@details@gsl@@@?$span@H$0?0@gsl@@QAE@PAHV?$extent_type@$0A@@details@2@@Z:
	mov	edx, DWORD PTR [esp+8]
	lea	eax, DWORD PTR [edx+12]
	mov	ecx, DWORD PTR [edx-8]
	xor	ecx, eax
	call	@__security_check_cookie@4
	mov	eax, OFFSET __ehfuncinfo$??$?0V?$extent_type@$0A@@details@gsl@@@?$storage_type@V?$extent_type@$0?0@details@gsl@@@?$span@H$0?0@gsl@@QAE@PAHV?$extent_type@$0A@@details@2@@Z
	jmp	___CxxFrameHandler3
text$x	ENDS
??$?0V?$extent_type@$0A@@details@gsl@@@?$storage_type@V?$extent_type@$0?0@details@gsl@@@?$span@H$0?0@gsl@@QAE@PAHV?$extent_type@$0A@@details@2@@Z ENDP ; gsl::span<int,-1>::storage_type<gsl::details::extent_type<-1> >::storage_type<gsl::details::extent_type<-1> ><gsl::details::extent_type<0> >
; Function compile flags: /Ogtp
;	COMDAT ?size@?$extent_type@$0A@@details@gsl@@QBEHXZ
_TEXT	SEGMENT
?size@?$extent_type@$0A@@details@gsl@@QBEHXZ PROC	; gsl::details::extent_type<0>::size, COMDAT
; _this$ = ecx
; File c:\projects\gsl\include\gsl\span
; Line 323
	xor	eax, eax
	ret	0
?size@?$extent_type@$0A@@details@gsl@@QBEHXZ ENDP	; gsl::details::extent_type<0>::size
_TEXT	ENDS
; Function compile flags: /Ogtp
;	COMDAT ??0?$extent_type@$0A@@details@gsl@@QAE@XZ
_TEXT	SEGMENT
??0?$extent_type@$0A@@details@gsl@@QAE@XZ PROC		; gsl::details::extent_type<0>::extent_type<0>, COMDAT
; _this$ = ecx
; File c:\projects\gsl\include\gsl\span
; Line 311
	mov	eax, ecx
	ret	0
??0?$extent_type@$0A@@details@gsl@@QAE@XZ ENDP		; gsl::details::extent_type<0>::extent_type<0>
_TEXT	ENDS
; Function compile flags: /Ogtp
;	COMDAT ??$forward@Ufail_fast@gsl@@@std@@YA$$QAUfail_fast@gsl@@AAU12@@Z
_TEXT	SEGMENT
__Arg$ = 8						; size = 4
??$forward@Ufail_fast@gsl@@@std@@YA$$QAUfail_fast@gsl@@AAU12@@Z PROC ; std::forward<gsl::fail_fast>, COMDAT
; File c:\program files (x86)\microsoft visual studio 14.0\vc\include\type_traits
; Line 1275
	push	ebp
	mov	ebp, esp
; Line 1276
	mov	eax, DWORD PTR __Arg$[ebp]
; Line 1277
	pop	ebp
	ret	0
??$forward@Ufail_fast@gsl@@@std@@YA$$QAUfail_fast@gsl@@AAU12@@Z ENDP ; std::forward<gsl::fail_fast>
_TEXT	ENDS
; Function compile flags: /Ogtp
;	COMDAT ??$_Unfancy@D@std@@YAPADPAD@Z
_TEXT	SEGMENT
__Ptr$ = 8						; size = 4
??$_Unfancy@D@std@@YAPADPAD@Z PROC			; std::_Unfancy<char>, COMDAT
; File c:\program files (x86)\microsoft visual studio 14.0\vc\include\xstddef
; Line 739
	push	ebp
	mov	ebp, esp
; Line 740
	mov	eax, DWORD PTR __Ptr$[ebp]
; Line 741
	pop	ebp
	ret	0
??$_Unfancy@D@std@@YAPADPAD@Z ENDP			; std::_Unfancy<char>
_TEXT	ENDS
; Function compile flags: /Ogtp
;	COMDAT ??$destroy@PAD@?$_Wrap_alloc@V?$allocator@D@std@@@std@@QAEXPAPAD@Z
_TEXT	SEGMENT
__Ptr$ = 8						; size = 4
??$destroy@PAD@?$_Wrap_alloc@V?$allocator@D@std@@@std@@QAEXPAPAD@Z PROC ; std::_Wrap_alloc<std::allocator<char> >::destroy<char *>, COMDAT
; _this$ = ecx
; File c:\program files (x86)\microsoft visual studio 14.0\vc\include\xmemory0
; Line 1004
	ret	4
??$destroy@PAD@?$_Wrap_alloc@V?$allocator@D@std@@@std@@QAEXPAPAD@Z ENDP ; std::_Wrap_alloc<std::allocator<char> >::destroy<char *>
_TEXT	ENDS
; Function compile flags: /Ogtp
;	COMDAT ??$addressof@PAD@std@@YAPAPADAAPAD@Z
_TEXT	SEGMENT
__Val$ = 8						; size = 4
??$addressof@PAD@std@@YAPAPADAAPAD@Z PROC		; std::addressof<char *>, COMDAT
; File c:\program files (x86)\microsoft visual studio 14.0\vc\include\xstddef
; Line 724
	push	ebp
	mov	ebp, esp
; Line 725
	mov	eax, DWORD PTR __Val$[ebp]
; Line 726
	pop	ebp
	ret	0
??$addressof@PAD@std@@YAPAPADAAPAD@Z ENDP		; std::addressof<char *>
_TEXT	ENDS
; Function compile flags: /Ogtp
;	COMDAT ??$?0$0A@X@?$span@$$CBH$0?0@gsl@@QAE@XZ
_TEXT	SEGMENT
$T2 = -16						; size = 4
__$EHRec$ = -12						; size = 12
??$?0$0A@X@?$span@$$CBH$0?0@gsl@@QAE@XZ PROC		; gsl::span<int const ,-1>::span<int const ,-1><0,void>, COMDAT
; _this$ = ecx
; File c:\projects\gsl\include\gsl\span
; Line 384
	push	ebp
	mov	ebp, esp
	push	-1
	push	__ehhandler$??$?0$0A@X@?$span@$$CBH$0?0@gsl@@QAE@XZ
	mov	eax, DWORD PTR fs:0
	push	eax
	push	ecx
	mov	eax, DWORD PTR ___security_cookie
	xor	eax, ebp
	push	eax
	lea	eax, DWORD PTR __$EHRec$[ebp]
	mov	DWORD PTR fs:0, eax
	mov	DWORD PTR $T2[ebp], 0
	mov	eax, ecx
; Line 333
	mov	DWORD PTR [ecx], 0
; Line 596
	mov	DWORD PTR [ecx+4], 0
; Line 384
	mov	ecx, DWORD PTR __$EHRec$[ebp]
	mov	DWORD PTR fs:0, ecx
	pop	ecx
	mov	esp, ebp
	pop	ebp
	ret	0
_TEXT	ENDS
;	COMDAT text$x
text$x	SEGMENT
__ehhandler$??$?0$0A@X@?$span@$$CBH$0?0@gsl@@QAE@XZ:
	mov	edx, DWORD PTR [esp+8]
	lea	eax, DWORD PTR [edx+12]
	mov	ecx, DWORD PTR [edx-8]
	xor	ecx, eax
	call	@__security_check_cookie@4
	mov	eax, OFFSET __ehfuncinfo$??$?0$0A@X@?$span@$$CBH$0?0@gsl@@QAE@XZ
	jmp	___CxxFrameHandler3
text$x	ENDS
??$?0$0A@X@?$span@$$CBH$0?0@gsl@@QAE@XZ ENDP		; gsl::span<int const ,-1>::span<int const ,-1><0,void>
; Function compile flags: /Ogtp
;	COMDAT ?data@?$storage_type@V?$extent_type@$0?0@details@gsl@@@?$span@$$CBH$0?0@gsl@@QBEPBHXZ
_TEXT	SEGMENT
?data@?$storage_type@V?$extent_type@$0?0@details@gsl@@@?$span@$$CBH$0?0@gsl@@QBEPBHXZ PROC ; gsl::span<int const ,-1>::storage_type<gsl::details::extent_type<-1> >::data, COMDAT
; _this$ = ecx
; File c:\projects\gsl\include\gsl\span
; Line 602
	mov	eax, DWORD PTR [ecx+4]
	ret	0
?data@?$storage_type@V?$extent_type@$0?0@details@gsl@@@?$span@$$CBH$0?0@gsl@@QBEPBHXZ ENDP ; gsl::span<int const ,-1>::storage_type<gsl::details::extent_type<-1> >::data
_TEXT	ENDS
; Function compile flags: /Ogtp
;	COMDAT ?data@?$span@$$CBH$0?0@gsl@@QBEPBHXZ
_TEXT	SEGMENT
?data@?$span@$$CBH$0?0@gsl@@QBEPBHXZ PROC		; gsl::span<int const ,-1>::data, COMDAT
; _this$ = ecx
; File c:\projects\gsl\include\gsl\span
; Line 515
	mov	eax, DWORD PTR [ecx+4]
	ret	0
?data@?$span@$$CBH$0?0@gsl@@QBEPBHXZ ENDP		; gsl::span<int const ,-1>::data
_TEXT	ENDS
; Function compile flags: /Ogtp
;	COMDAT ?size@?$span@$$CBH$0?0@gsl@@QBEHXZ
_TEXT	SEGMENT
?size@?$span@$$CBH$0?0@gsl@@QBEHXZ PROC			; gsl::span<int const ,-1>::size, COMDAT
; _this$ = ecx
; File c:\projects\gsl\include\gsl\span
; Line 498
	mov	eax, DWORD PTR [ecx]
	ret	0
?size@?$span@$$CBH$0?0@gsl@@QBEHXZ ENDP			; gsl::span<int const ,-1>::size
_TEXT	ENDS
; Function compile flags: /Ogtp
;	COMDAT ??$handle@_N@AssertionHandler@Catch@@QAEXABV?$ExprLhs@_N@1@@Z
_TEXT	SEGMENT
$T2 = -20						; size = 8
__$EHRec$ = -12						; size = 12
_expr$ = 8						; size = 4
??$handle@_N@AssertionHandler@Catch@@QAEXABV?$ExprLhs@_N@1@@Z PROC ; Catch::AssertionHandler::handle<bool>, COMDAT
; _this$ = ecx
; File c:\projects\gsl\build\external\include\catch\catch.hpp
; Line 1232
	push	ebp
	mov	ebp, esp
	push	-1
	push	__ehhandler$??$handle@_N@AssertionHandler@Catch@@QAEXABV?$ExprLhs@_N@1@@Z
	mov	eax, DWORD PTR fs:0
	push	eax
	sub	esp, 8
	push	esi
	mov	eax, DWORD PTR ___security_cookie
	xor	eax, ebp
	push	eax
	lea	eax, DWORD PTR __$EHRec$[ebp]
	mov	DWORD PTR fs:0, eax
	mov	esi, ecx
; Line 1233
	mov	ecx, DWORD PTR _expr$[ebp]
	lea	eax, DWORD PTR $T2[ebp]
	push	eax
	call	?makeUnaryExpr@?$ExprLhs@_N@Catch@@QBE?AV?$UnaryExpr@_N@2@XZ ; Catch::ExprLhs<bool>::makeUnaryExpr
	push	eax
	mov	ecx, esi
	mov	DWORD PTR __$EHRec$[ebp+8], 0
	call	?handle@AssertionHandler@Catch@@QAEXABUITransientExpression@2@@Z ; Catch::AssertionHandler::handle
	lea	ecx, DWORD PTR $T2[ebp]
	call	??1ITransientExpression@Catch@@UAE@XZ	; Catch::ITransientExpression::~ITransientExpression
; Line 1234
	mov	ecx, DWORD PTR __$EHRec$[ebp]
	mov	DWORD PTR fs:0, ecx
	pop	ecx
	pop	esi
	mov	esp, ebp
	pop	ebp
	ret	4
_TEXT	ENDS
;	COMDAT text$x
text$x	SEGMENT
__unwindfunclet$??$handle@_N@AssertionHandler@Catch@@QAEXABV?$ExprLhs@_N@1@@Z$0:
	lea	ecx, DWORD PTR $T2[ebp]
	jmp	??1?$UnaryExpr@_N@Catch@@UAE@XZ
__ehhandler$??$handle@_N@AssertionHandler@Catch@@QAEXABV?$ExprLhs@_N@1@@Z:
	mov	edx, DWORD PTR [esp+8]
	lea	eax, DWORD PTR [edx+12]
	mov	ecx, DWORD PTR [edx-16]
	xor	ecx, eax
	call	@__security_check_cookie@4
	mov	eax, OFFSET __ehfuncinfo$??$handle@_N@AssertionHandler@Catch@@QAEXABV?$ExprLhs@_N@1@@Z
	jmp	___CxxFrameHandler3
text$x	ENDS
??$handle@_N@AssertionHandler@Catch@@QAEXABV?$ExprLhs@_N@1@@Z ENDP ; Catch::AssertionHandler::handle<bool>
; Function compile flags: /Ogtp
;	COMDAT ??$?0$0A@X@?$span@H$0?0@gsl@@QAE@XZ
_TEXT	SEGMENT
$T2 = -16						; size = 4
__$EHRec$ = -12						; size = 12
??$?0$0A@X@?$span@H$0?0@gsl@@QAE@XZ PROC		; gsl::span<int,-1>::span<int,-1><0,void>, COMDAT
; _this$ = ecx
; File c:\projects\gsl\include\gsl\span
; Line 384
	push	ebp
	mov	ebp, esp
	push	-1
	push	__ehhandler$??$?0$0A@X@?$span@H$0?0@gsl@@QAE@XZ
	mov	eax, DWORD PTR fs:0
	push	eax
	push	ecx
	mov	eax, DWORD PTR ___security_cookie
	xor	eax, ebp
	push	eax
	lea	eax, DWORD PTR __$EHRec$[ebp]
	mov	DWORD PTR fs:0, eax
	mov	DWORD PTR $T2[ebp], 0
	mov	eax, ecx
; Line 333
	mov	DWORD PTR [ecx], 0
; Line 596
	mov	DWORD PTR [ecx+4], 0
; Line 384
	mov	ecx, DWORD PTR __$EHRec$[ebp]
	mov	DWORD PTR fs:0, ecx
	pop	ecx
	mov	esp, ebp
	pop	ebp
	ret	0
_TEXT	ENDS
;	COMDAT text$x
text$x	SEGMENT
__ehhandler$??$?0$0A@X@?$span@H$0?0@gsl@@QAE@XZ:
	mov	edx, DWORD PTR [esp+8]
	lea	eax, DWORD PTR [edx+12]
	mov	ecx, DWORD PTR [edx-8]
	xor	ecx, eax
	call	@__security_check_cookie@4
	mov	eax, OFFSET __ehfuncinfo$??$?0$0A@X@?$span@H$0?0@gsl@@QAE@XZ
	jmp	___CxxFrameHandler3
text$x	ENDS
??$?0$0A@X@?$span@H$0?0@gsl@@QAE@XZ ENDP		; gsl::span<int,-1>::span<int,-1><0,void>
; Function compile flags: /Ogtp
;	COMDAT ?data@?$storage_type@V?$extent_type@$0?0@details@gsl@@@?$span@H$0?0@gsl@@QBEPAHXZ
_TEXT	SEGMENT
?data@?$storage_type@V?$extent_type@$0?0@details@gsl@@@?$span@H$0?0@gsl@@QBEPAHXZ PROC ; gsl::span<int,-1>::storage_type<gsl::details::extent_type<-1> >::data, COMDAT
; _this$ = ecx
; File c:\projects\gsl\include\gsl\span
; Line 602
	mov	eax, DWORD PTR [ecx+4]
	ret	0
?data@?$storage_type@V?$extent_type@$0?0@details@gsl@@@?$span@H$0?0@gsl@@QBEPAHXZ ENDP ; gsl::span<int,-1>::storage_type<gsl::details::extent_type<-1> >::data
_TEXT	ENDS
; Function compile flags: /Ogtp
;	COMDAT ?data@?$span@H$0?0@gsl@@QBEPAHXZ
_TEXT	SEGMENT
?data@?$span@H$0?0@gsl@@QBEPAHXZ PROC			; gsl::span<int,-1>::data, COMDAT
; _this$ = ecx
; File c:\projects\gsl\include\gsl\span
; Line 515
	mov	eax, DWORD PTR [ecx+4]
	ret	0
?data@?$span@H$0?0@gsl@@QBEPAHXZ ENDP			; gsl::span<int,-1>::data
_TEXT	ENDS
; Function compile flags: /Ogtp
;	COMDAT ?size@?$span@H$0?0@gsl@@QBEHXZ
_TEXT	SEGMENT
?size@?$span@H$0?0@gsl@@QBEHXZ PROC			; gsl::span<int,-1>::size, COMDAT
; _this$ = ecx
; File c:\projects\gsl\include\gsl\span
; Line 498
	mov	eax, DWORD PTR [ecx]
	ret	0
?size@?$span@H$0?0@gsl@@QBEHXZ ENDP			; gsl::span<int,-1>::size
_TEXT	ENDS
; Function compile flags: /Ogtp
;	COMDAT ??__FautoRegistrar1@?A0xea02b608@@YAXXZ
text$yd	SEGMENT
??__FautoRegistrar1@?A0xea02b608@@YAXXZ PROC		; `anonymous namespace'::`dynamic atexit destructor for 'autoRegistrar1'', COMDAT
	mov	ecx, OFFSET ?autoRegistrar1@?A0xea02b608@@3UAutoReg@Catch@@A ; `anonymous namespace'::autoRegistrar1
	jmp	??1AutoReg@Catch@@UAE@XZ		; Catch::AutoReg::~AutoReg
??__FautoRegistrar1@?A0xea02b608@@YAXXZ ENDP		; `anonymous namespace'::`dynamic atexit destructor for 'autoRegistrar1''
text$yd	ENDS
; Function compile flags: /Ogtp
;	COMDAT ??__EautoRegistrar1@?A0xea02b608@@YAXXZ
text$di	SEGMENT
$T1 = -36						; size = 24
$T2 = -12						; size = 8
??__EautoRegistrar1@?A0xea02b608@@YAXXZ PROC		; `anonymous namespace'::`dynamic initializer for 'autoRegistrar1'', COMDAT
; File c:\projects\gsl\tests\span_compile_only.cpp
; Line 56
	push	ebp
	mov	ebp, esp
	sub	esp, 36					; 00000024H
	sub	esp, 12					; 0000000cH
	mov	ecx, esp
	push	OFFSET ??_C@_00CNPNBAHC@?$AA@
	call	??0StringRef@Catch@@QAE@PBD@Z		; Catch::StringRef::StringRef
	sub	esp, 12					; 0000000cH
	mov	ecx, esp
	push	OFFSET ??_C@_0BE@FAFDKEMK@default_constructor?$AA@
	call	??0StringRef@Catch@@QAE@PBD@Z		; Catch::StringRef::StringRef
	lea	ecx, DWORD PTR $T1[ebp]
	call	??0NameAndTags@Catch@@QAE@VStringRef@1@0@Z ; Catch::NameAndTags::NameAndTags
	push	eax
	sub	esp, 12					; 0000000cH
	mov	ecx, esp
	push	OFFSET ??_C@_00CNPNBAHC@?$AA@
	call	??0StringRef@Catch@@QAE@PBD@Z		; Catch::StringRef::StringRef
	push	56					; 00000038H
	push	OFFSET ??_C@_0CM@OKFFKAMG@C?3?2projects?2gsl?2tests?2span_compi@
	lea	ecx, DWORD PTR $T2[ebp]
	call	??0SourceLineInfo@Catch@@QAE@PBDI@Z	; Catch::SourceLineInfo::SourceLineInfo
	push	eax
	push	OFFSET ?____C_A_T_C_H____T_E_S_T____0@@YAXXZ ; ____C_A_T_C_H____T_E_S_T____0
	call	?makeTestInvoker@Catch@@YAPAUITestInvoker@1@P6AXXZ@Z ; Catch::makeTestInvoker
	add	esp, 4
	mov	ecx, OFFSET ?autoRegistrar1@?A0xea02b608@@3UAutoReg@Catch@@A ; `anonymous namespace'::autoRegistrar1
	push	eax
	call	??0AutoReg@Catch@@QAE@PAUITestInvoker@1@ABUSourceLineInfo@1@VStringRef@1@ABUNameAndTags@1@@Z ; Catch::AutoReg::AutoReg
	lea	ecx, DWORD PTR $T1[ebp+12]
	call	??1StringRef@Catch@@QAE@XZ		; Catch::StringRef::~StringRef
	lea	ecx, DWORD PTR $T1[ebp]
	call	??1StringRef@Catch@@QAE@XZ		; Catch::StringRef::~StringRef
	push	OFFSET ??__FautoRegistrar1@?A0xea02b608@@YAXXZ ; `anonymous namespace'::`dynamic atexit destructor for 'autoRegistrar1''
	call	_atexit
	add	esp, 4
	mov	esp, ebp
	pop	ebp
	ret	0
??__EautoRegistrar1@?A0xea02b608@@YAXXZ ENDP		; `anonymous namespace'::`dynamic initializer for 'autoRegistrar1''
text$di	ENDS
; Function compile flags: /Ogtp
;	COMDAT ?____C_A_T_C_H____T_E_S_T____0@@YAXXZ
_TEXT	SEGMENT
_catchAssertionHandler$2 = -128				; size = 40
_catchAssertionHandler$3 = -88				; size = 40
$T4 = -48						; size = 8
$T5 = -48						; size = 8
$T6 = -40						; size = 8
$T7 = -40						; size = 8
_cs$8 = -32						; size = 8
_s$9 = -32						; size = 8
$T10 = -24						; size = 4
$T11 = -17						; size = 1
$T12 = -17						; size = 1
__$EHRec$ = -16						; size = 16
?____C_A_T_C_H____T_E_S_T____0@@YAXXZ PROC		; ____C_A_T_C_H____T_E_S_T____0, COMDAT
; File c:\projects\gsl\tests\span_compile_only.cpp
; Line 57
	push	ebp
	mov	ebp, esp
	push	-1
	push	__ehhandler$?____C_A_T_C_H____T_E_S_T____0@@YAXXZ
	mov	eax, DWORD PTR fs:0
	push	eax
	sub	esp, 116				; 00000074H
	push	ebx
	push	esi
	push	edi
	mov	eax, DWORD PTR ___security_cookie
	xor	eax, ebp
	push	eax
	lea	eax, DWORD PTR __$EHRec$[ebp+4]
	mov	DWORD PTR fs:0, eax
	mov	DWORD PTR __$EHRec$[ebp], esp
	mov	DWORD PTR $T10[ebp], 0
	xor	esi, esi
; File c:\projects\gsl\include\gsl\span
; Line 384
	mov	DWORD PTR __$EHRec$[ebp+12], -1
; Line 596
	xor	edi, edi
	mov	DWORD PTR _s$9[ebp], esi
	mov	DWORD PTR _s$9[ebp+4], edi
$LL4@C_A_T_C_H_:
; File c:\projects\gsl\tests\span_compile_only.cpp
; Line 60
	push	2
	sub	esp, 12					; 0000000cH
	mov	ecx, esp
	push	OFFSET ??_C@_0CH@JINBLNPO@?$CIs?4size?$CI?$CJ?5?$DN?$DN?50?5?$CG?$CG?5s?4data?$CI?$CJ?5?$DN?$DN?5nu@
	call	??0StringRef@Catch@@QAE@PBD@Z		; Catch::StringRef::StringRef
	push	60					; 0000003cH
	push	OFFSET ??_C@_0CM@OKFFKAMG@C?3?2projects?2gsl?2tests?2span_compi@
	lea	ecx, DWORD PTR $T5[ebp]
	call	??0SourceLineInfo@Catch@@QAE@PBDI@Z	; Catch::SourceLineInfo::SourceLineInfo
	push	eax
	sub	esp, 12					; 0000000cH
	mov	ecx, esp
	push	OFFSET ??_C@_05GCOJDIEO@CHECK?$AA@
	call	??0StringRef@Catch@@QAE@PBD@Z		; Catch::StringRef::StringRef
	lea	ecx, DWORD PTR _catchAssertionHandler$3[ebp]
	call	??0AssertionHandler@Catch@@QAE@VStringRef@1@ABUSourceLineInfo@1@0W4Flags@ResultDisposition@1@@Z ; Catch::AssertionHandler::AssertionHandler
	mov	DWORD PTR __$EHRec$[ebp+12], 1
	test	esi, esi
	jne	SHORT $LN15@C_A_T_C_H_
	test	edi, edi
	jne	SHORT $LN15@C_A_T_C_H_
	mov	al, 1
	jmp	SHORT $LN16@C_A_T_C_H_
$LN15@C_A_T_C_H_:
	xor	al, al
$LN16@C_A_T_C_H_:
; File c:\projects\gsl\build\external\include\catch\catch.hpp
; Line 1065
	mov	BYTE PTR $T12[ebp], al
; Line 1233
	lea	ecx, DWORD PTR $T12[ebp]
	lea	eax, DWORD PTR $T7[ebp]
	push	eax
	call	?makeUnaryExpr@?$ExprLhs@_N@Catch@@QBE?AV?$UnaryExpr@_N@2@XZ ; Catch::ExprLhs<bool>::makeUnaryExpr
	push	eax
	lea	ecx, DWORD PTR _catchAssertionHandler$3[ebp]
	mov	BYTE PTR __$EHRec$[ebp+12], 3
	call	?handle@AssertionHandler@Catch@@QAEXABUITransientExpression@2@@Z ; Catch::AssertionHandler::handle
	lea	ecx, DWORD PTR $T7[ebp]
	call	??1ITransientExpression@Catch@@UAE@XZ	; Catch::ITransientExpression::~ITransientExpression
; File c:\projects\gsl\tests\span_compile_only.cpp
	jmp	SHORT $LN201@C_A_T_C_H_
__catch$?____C_A_T_C_H____T_E_S_T____0@@YAXXZ$0:
; Line 60
	lea	ecx, DWORD PTR _catchAssertionHandler$3[ebp]
	call	?useActiveException@AssertionHandler@Catch@@QAEXXZ ; Catch::AssertionHandler::useActiveException
	mov	eax, $LN30@C_A_T_C_H_
	ret	0
$LN30@C_A_T_C_H_:
	mov	edi, DWORD PTR _s$9[ebp+4]
	mov	esi, DWORD PTR _s$9[ebp]
$LN201@C_A_T_C_H_:
	lea	ecx, DWORD PTR _catchAssertionHandler$3[ebp]
	mov	DWORD PTR __$EHRec$[ebp+12], 1
	call	?shouldDebugBreak@AssertionHandler@Catch@@QBE_NXZ ; Catch::AssertionHandler::shouldDebugBreak
	test	al, al
	je	SHORT $LN10@C_A_T_C_H_
	call	?isDebuggerActive@Catch@@YA_NXZ		; Catch::isDebuggerActive
	test	al, al
	je	SHORT $LN10@C_A_T_C_H_
	int	3
$LN10@C_A_T_C_H_:
	lea	ecx, DWORD PTR _catchAssertionHandler$3[ebp]
	call	?reactWithoutDebugBreak@AssertionHandler@Catch@@QBEXXZ ; Catch::AssertionHandler::reactWithoutDebugBreak
	lea	ecx, DWORD PTR _catchAssertionHandler$3[ebp]
	mov	DWORD PTR __$EHRec$[ebp+12], -1
	call	??1AssertionHandler@Catch@@QAE@XZ	; Catch::AssertionHandler::~AssertionHandler
	push	0
	call	?isTrue@Catch@@YA_N_N@Z			; Catch::isTrue
	add	esp, 4
	test	al, al
	jne	$LL4@C_A_T_C_H_
	xor	esi, esi
; File c:\projects\gsl\include\gsl\span
; Line 384
	mov	DWORD PTR __$EHRec$[ebp+12], -1
; Line 596
	xor	edi, edi
	mov	DWORD PTR _cs$8[ebp], esi
	mov	DWORD PTR _cs$8[ebp+4], edi
$LL7@C_A_T_C_H_:
; File c:\projects\gsl\tests\span_compile_only.cpp
; Line 63
	push	2
	sub	esp, 12					; 0000000cH
	mov	ecx, esp
	push	OFFSET ??_C@_0CJ@IEJGAEAC@?$CIcs?4size?$CI?$CJ?5?$DN?$DN?50?5?$CG?$CG?5cs?4data?$CI?$CJ?5?$DN?$DN?5@
	call	??0StringRef@Catch@@QAE@PBD@Z		; Catch::StringRef::StringRef
	push	63					; 0000003fH
	push	OFFSET ??_C@_0CM@OKFFKAMG@C?3?2projects?2gsl?2tests?2span_compi@
	lea	ecx, DWORD PTR $T4[ebp]
	call	??0SourceLineInfo@Catch@@QAE@PBDI@Z	; Catch::SourceLineInfo::SourceLineInfo
	push	eax
	sub	esp, 12					; 0000000cH
	mov	ecx, esp
	push	OFFSET ??_C@_05GCOJDIEO@CHECK?$AA@
	call	??0StringRef@Catch@@QAE@PBD@Z		; Catch::StringRef::StringRef
	lea	ecx, DWORD PTR _catchAssertionHandler$2[ebp]
	call	??0AssertionHandler@Catch@@QAE@VStringRef@1@ABUSourceLineInfo@1@0W4Flags@ResultDisposition@1@@Z ; Catch::AssertionHandler::AssertionHandler
	mov	DWORD PTR __$EHRec$[ebp+12], 6
	test	esi, esi
	jne	SHORT $LN17@C_A_T_C_H_
	test	edi, edi
	jne	SHORT $LN17@C_A_T_C_H_
	mov	al, 1
	jmp	SHORT $LN18@C_A_T_C_H_
$LN17@C_A_T_C_H_:
	xor	al, al
$LN18@C_A_T_C_H_:
; File c:\projects\gsl\build\external\include\catch\catch.hpp
; Line 1065
	mov	BYTE PTR $T11[ebp], al
; Line 1233
	lea	ecx, DWORD PTR $T11[ebp]
	lea	eax, DWORD PTR $T6[ebp]
	push	eax
	call	?makeUnaryExpr@?$ExprLhs@_N@Catch@@QBE?AV?$UnaryExpr@_N@2@XZ ; Catch::ExprLhs<bool>::makeUnaryExpr
	push	eax
	lea	ecx, DWORD PTR _catchAssertionHandler$2[ebp]
	mov	BYTE PTR __$EHRec$[ebp+12], 8
	call	?handle@AssertionHandler@Catch@@QAEXABUITransientExpression@2@@Z ; Catch::AssertionHandler::handle
	lea	ecx, DWORD PTR $T6[ebp]
	call	??1ITransientExpression@Catch@@UAE@XZ	; Catch::ITransientExpression::~ITransientExpression
; File c:\projects\gsl\tests\span_compile_only.cpp
	jmp	SHORT $LN202@C_A_T_C_H_
__catch$?____C_A_T_C_H____T_E_S_T____0@@YAXXZ$2:
; Line 63
	lea	ecx, DWORD PTR _catchAssertionHandler$2[ebp]
	call	?useActiveException@AssertionHandler@Catch@@QAEXXZ ; Catch::AssertionHandler::useActiveException
	mov	eax, $LN32@C_A_T_C_H_
	ret	0
$LN32@C_A_T_C_H_:
	mov	edi, DWORD PTR _cs$8[ebp+4]
	mov	esi, DWORD PTR _cs$8[ebp]
$LN202@C_A_T_C_H_:
	lea	ecx, DWORD PTR _catchAssertionHandler$2[ebp]
	mov	DWORD PTR __$EHRec$[ebp+12], 6
	call	?shouldDebugBreak@AssertionHandler@Catch@@QBE_NXZ ; Catch::AssertionHandler::shouldDebugBreak
	test	al, al
	je	SHORT $LN13@C_A_T_C_H_
	call	?isDebuggerActive@Catch@@YA_NXZ		; Catch::isDebuggerActive
	test	al, al
	je	SHORT $LN13@C_A_T_C_H_
	int	3
$LN13@C_A_T_C_H_:
	lea	ecx, DWORD PTR _catchAssertionHandler$2[ebp]
	call	?reactWithoutDebugBreak@AssertionHandler@Catch@@QBEXXZ ; Catch::AssertionHandler::reactWithoutDebugBreak
	lea	ecx, DWORD PTR _catchAssertionHandler$2[ebp]
	mov	DWORD PTR __$EHRec$[ebp+12], -1
	call	??1AssertionHandler@Catch@@QAE@XZ	; Catch::AssertionHandler::~AssertionHandler
	push	0
	call	?isTrue@Catch@@YA_N_N@Z			; Catch::isTrue
	add	esp, 4
	test	al, al
	jne	$LL7@C_A_T_C_H_
; Line 65
	mov	ecx, DWORD PTR __$EHRec$[ebp+4]
	mov	DWORD PTR fs:0, ecx
	pop	ecx
	pop	edi
	pop	esi
	pop	ebx
	mov	esp, ebp
	pop	ebp
	ret	0
_TEXT	ENDS
;	COMDAT text$x
text$x	SEGMENT
__unwindfunclet$?____C_A_T_C_H____T_E_S_T____0@@YAXXZ$10:
	call	___std_terminate
	ret	0
__unwindfunclet$?____C_A_T_C_H____T_E_S_T____0@@YAXXZ$6:
	lea	ecx, DWORD PTR _catchAssertionHandler$3[ebp]
	jmp	??1AssertionHandler@Catch@@QAE@XZ	; Catch::AssertionHandler::~AssertionHandler
__unwindfunclet$?____C_A_T_C_H____T_E_S_T____0@@YAXXZ$25:
	lea	ecx, DWORD PTR $T7[ebp]
	jmp	??1?$UnaryExpr@_N@Catch@@UAE@XZ
__unwindfunclet$?____C_A_T_C_H____T_E_S_T____0@@YAXXZ$27:
	call	___std_terminate
	ret	0
__unwindfunclet$?____C_A_T_C_H____T_E_S_T____0@@YAXXZ$9:
	lea	ecx, DWORD PTR _catchAssertionHandler$2[ebp]
	jmp	??1AssertionHandler@Catch@@QAE@XZ	; Catch::AssertionHandler::~AssertionHandler
__unwindfunclet$?____C_A_T_C_H____T_E_S_T____0@@YAXXZ$42:
	lea	ecx, DWORD PTR $T6[ebp]
	jmp	??1?$UnaryExpr@_N@Catch@@UAE@XZ
__ehhandler$?____C_A_T_C_H____T_E_S_T____0@@YAXXZ:
	mov	edx, DWORD PTR [esp+8]
	lea	eax, DWORD PTR [edx+12]
	mov	ecx, DWORD PTR [edx-132]
	xor	ecx, eax
	call	@__security_check_cookie@4
	mov	eax, OFFSET __ehfuncinfo$?____C_A_T_C_H____T_E_S_T____0@@YAXXZ
	jmp	___CxxFrameHandler3
text$x	ENDS
?____C_A_T_C_H____T_E_S_T____0@@YAXXZ ENDP		; ____C_A_T_C_H____T_E_S_T____0
; Function compile flags: /Ogtp
;	COMDAT ??$throw_exception@Ufail_fast@gsl@@@details@gsl@@YAX$$QAUfail_fast@1@@Z
_TEXT	SEGMENT
$T1 = -12						; size = 12
_exception$ = 8						; size = 4
??$throw_exception@Ufail_fast@gsl@@@details@gsl@@YAX$$QAUfail_fast@1@@Z PROC ; gsl::details::throw_exception<gsl::fail_fast>, COMDAT
; File c:\projects\gsl\include\gsl\gsl_assert
; Line 137
	push	ebp
	mov	ebp, esp
	sub	esp, 12					; 0000000cH
; File c:\program files (x86)\microsoft visual studio 14.0\vc\include\vcruntime_exception.h
; Line 67
	lea	eax, DWORD PTR $T1[ebp+4]
	mov	DWORD PTR $T1[ebp], OFFSET ??_7exception@std@@6B@
	push	eax
	mov	eax, DWORD PTR _exception$[ebp]
	xorps	xmm0, xmm0
	add	eax, 4
	movq	QWORD PTR $T1[ebp+4], xmm0
	push	eax
	call	DWORD PTR __imp____std_exception_copy
	add	esp, 8
	mov	DWORD PTR $T1[ebp], OFFSET ??_7fail_fast@gsl@@6B@
; File c:\projects\gsl\include\gsl\gsl_assert
; Line 138
	lea	eax, DWORD PTR $T1[ebp]
	push	OFFSET __TI3?AUfail_fast@gsl@@
	push	eax
	call	__CxxThrowException@8
$LN15@throw_exce:
$LN14@throw_exce:
	int	3
??$throw_exception@Ufail_fast@gsl@@@details@gsl@@YAX$$QAUfail_fast@1@@Z ENDP ; gsl::details::throw_exception<gsl::fail_fast>
_TEXT	ENDS
; Function compile flags: /Ogtp
;	COMDAT ?size@?$extent_type@$0?0@details@gsl@@QBEHXZ
_TEXT	SEGMENT
?size@?$extent_type@$0?0@details@gsl@@QBEHXZ PROC	; gsl::details::extent_type<-1>::size, COMDAT
; _this$ = ecx
; File c:\projects\gsl\include\gsl\span
; Line 338
	mov	eax, DWORD PTR [ecx]
	ret	0
?size@?$extent_type@$0?0@details@gsl@@QBEHXZ ENDP	; gsl::details::extent_type<-1>::size
_TEXT	ENDS
; Function compile flags: /Ogtp
;	COMDAT ??_Gfail_fast@gsl@@UAEPAXI@Z
_TEXT	SEGMENT
___flags$ = 8						; size = 4
??_Gfail_fast@gsl@@UAEPAXI@Z PROC			; gsl::fail_fast::`scalar deleting destructor', COMDAT
; _this$ = ecx
	push	ebp
	mov	ebp, esp
	push	esi
	mov	esi, ecx
; File c:\program files (x86)\microsoft visual studio 14.0\vc\include\vcruntime_exception.h
; Line 84
	lea	eax, DWORD PTR [esi+4]
	mov	DWORD PTR [esi], OFFSET ??_7exception@std@@6B@
	push	eax
	call	DWORD PTR __imp____std_exception_destroy
	add	esp, 4
	test	BYTE PTR ___flags$[ebp], 1
	je	SHORT $LN12@scalar
	push	12					; 0000000cH
	push	esi
	call	??3@YAXPAXI@Z				; operator delete
	add	esp, 8
$LN12@scalar:
	mov	eax, esi
	pop	esi
	pop	ebp
	ret	4
??_Gfail_fast@gsl@@UAEPAXI@Z ENDP			; gsl::fail_fast::`scalar deleting destructor'
_TEXT	ENDS
; Function compile flags: /Ogtp
;	COMDAT ??0fail_fast@gsl@@QAE@$$QAU01@@Z
_TEXT	SEGMENT
___that$ = 8						; size = 4
??0fail_fast@gsl@@QAE@$$QAU01@@Z PROC			; gsl::fail_fast::fail_fast, COMDAT
; _this$ = ecx
	push	ebp
	mov	ebp, esp
	push	esi
	mov	esi, ecx
	xorps	xmm0, xmm0
; File c:\program files (x86)\microsoft visual studio 14.0\vc\include\vcruntime_exception.h
; Line 65
	lea	eax, DWORD PTR [esi+4]
; Line 67
	push	eax
	mov	DWORD PTR [esi], OFFSET ??_7exception@std@@6B@
	movq	QWORD PTR [eax], xmm0
	mov	eax, DWORD PTR ___that$[ebp]
	add	eax, 4
	push	eax
	call	DWORD PTR __imp____std_exception_copy
	add	esp, 8
	mov	DWORD PTR [esi], OFFSET ??_7fail_fast@gsl@@6B@
	mov	eax, esi
	pop	esi
	pop	ebp
	ret	4
??0fail_fast@gsl@@QAE@$$QAU01@@Z ENDP			; gsl::fail_fast::fail_fast
_TEXT	ENDS
; Function compile flags: /Ogtp
;	COMDAT ??0fail_fast@gsl@@QAE@ABU01@@Z
_TEXT	SEGMENT
___that$ = 8						; size = 4
??0fail_fast@gsl@@QAE@ABU01@@Z PROC			; gsl::fail_fast::fail_fast, COMDAT
; _this$ = ecx
	push	ebp
	mov	ebp, esp
	push	esi
	mov	esi, ecx
	xorps	xmm0, xmm0
; File c:\program files (x86)\microsoft visual studio 14.0\vc\include\vcruntime_exception.h
; Line 65
	lea	eax, DWORD PTR [esi+4]
; Line 67
	push	eax
	mov	DWORD PTR [esi], OFFSET ??_7exception@std@@6B@
	movq	QWORD PTR [eax], xmm0
	mov	eax, DWORD PTR ___that$[ebp]
	add	eax, 4
	push	eax
	call	DWORD PTR __imp____std_exception_copy
	add	esp, 8
	mov	DWORD PTR [esi], OFFSET ??_7fail_fast@gsl@@6B@
	mov	eax, esi
	pop	esi
	pop	ebp
	ret	4
??0fail_fast@gsl@@QAE@ABU01@@Z ENDP			; gsl::fail_fast::fail_fast
_TEXT	ENDS
; Function compile flags: /Ogtp
;	COMDAT ??1fail_fast@gsl@@UAE@XZ
_TEXT	SEGMENT
??1fail_fast@gsl@@UAE@XZ PROC				; gsl::fail_fast::~fail_fast, COMDAT
; _this$ = ecx
; File c:\program files (x86)\microsoft visual studio 14.0\vc\include\vcruntime_exception.h
; Line 84
	lea	eax, DWORD PTR [ecx+4]
	mov	DWORD PTR [ecx], OFFSET ??_7exception@std@@6B@
	push	eax
	call	DWORD PTR __imp____std_exception_destroy
	pop	ecx
	ret	0
??1fail_fast@gsl@@UAE@XZ ENDP				; gsl::fail_fast::~fail_fast
_TEXT	ENDS
; Function compile flags: /Ogtp
;	COMDAT ??0fail_fast@gsl@@QAE@QBD@Z
_TEXT	SEGMENT
__InitData$1 = -8					; size = 8
_this$ = -4						; size = 4
_message$ = 8						; size = 4
??0fail_fast@gsl@@QAE@QBD@Z PROC			; gsl::fail_fast::fail_fast, COMDAT
; _this$ = ecx
; File c:\projects\gsl\include\gsl\gsl_assert
; Line 93
	push	ebp
	mov	ebp, esp
	sub	esp, 8
; File c:\program files (x86)\microsoft visual studio 14.0\vc\include\vcruntime_exception.h
; Line 54
	mov	eax, DWORD PTR _message$[ebp]
	xorps	xmm0, xmm0
	push	esi
; File c:\projects\gsl\include\gsl\gsl_assert
; Line 93
	mov	esi, ecx
	mov	DWORD PTR _this$[ebp], esi
; File c:\program files (x86)\microsoft visual studio 14.0\vc\include\vcruntime_exception.h
; Line 52
	lea	edx, DWORD PTR [esi+4]
; Line 54
	mov	DWORD PTR __InitData$1[ebp], eax
; Line 55
	lea	eax, DWORD PTR __InitData$1[ebp]
	push	edx
	mov	DWORD PTR [esi], OFFSET ??_7exception@std@@6B@
	push	eax
	movq	QWORD PTR [edx], xmm0
	mov	BYTE PTR __InitData$1[ebp+4], 1
	call	DWORD PTR __imp____std_exception_copy
	add	esp, 8
; File c:\projects\gsl\include\gsl\gsl_assert
; Line 93
	mov	DWORD PTR [esi], OFFSET ??_7fail_fast@gsl@@6B@
	mov	eax, esi
	pop	esi
	mov	esp, ebp
	pop	ebp
	ret	4
??0fail_fast@gsl@@QAE@QBD@Z ENDP			; gsl::fail_fast::fail_fast
_TEXT	ENDS
; Function compile flags: /Ogtp
;	COMDAT ?makeUnaryExpr@?$ExprLhs@_N@Catch@@QBE?AV?$UnaryExpr@_N@2@XZ
_TEXT	SEGMENT
$T1 = -4						; size = 4
___$ReturnUdt$ = 8					; size = 4
?makeUnaryExpr@?$ExprLhs@_N@Catch@@QBE?AV?$UnaryExpr@_N@2@XZ PROC ; Catch::ExprLhs<bool>::makeUnaryExpr, COMDAT
; _this$ = ecx
; File c:\projects\gsl\build\external\include\catch\catch.hpp
; Line 1100
	push	ebp
	mov	ebp, esp
	push	ecx
; Line 1035
	mov	eax, DWORD PTR ___$ReturnUdt$[ebp]
	mov	cl, BYTE PTR [ecx]
	mov	DWORD PTR $T1[ebp], 0
	mov	DWORD PTR [eax], OFFSET ??_7?$UnaryExpr@_N@Catch@@6B@
	mov	BYTE PTR [eax+4], cl
; Line 1102
	mov	esp, ebp
	pop	ebp
	ret	4
?makeUnaryExpr@?$ExprLhs@_N@Catch@@QBE?AV?$UnaryExpr@_N@2@XZ ENDP ; Catch::ExprLhs<bool>::makeUnaryExpr
_TEXT	ENDS
; Function compile flags: /Ogtp
;	COMDAT ??0?$ExprLhs@_N@Catch@@QAE@_N@Z
_TEXT	SEGMENT
_lhs$ = 8						; size = 1
??0?$ExprLhs@_N@Catch@@QAE@_N@Z PROC			; Catch::ExprLhs<bool>::ExprLhs<bool>, COMDAT
; _this$ = ecx
; File c:\projects\gsl\build\external\include\catch\catch.hpp
; Line 1065
	push	ebp
	mov	ebp, esp
	mov	al, BYTE PTR _lhs$[ebp]
	mov	BYTE PTR [ecx], al
	mov	eax, ecx
	pop	ebp
	ret	4
??0?$ExprLhs@_N@Catch@@QAE@_N@Z ENDP			; Catch::ExprLhs<bool>::ExprLhs<bool>
_TEXT	ENDS
; Function compile flags: /Ogtp
;	COMDAT ??NDecomposer@Catch@@QAE?AV?$ExprLhs@_N@1@_N@Z
_TEXT	SEGMENT
___$ReturnUdt$ = 8					; size = 4
_value$ = 12						; size = 1
??NDecomposer@Catch@@QAE?AV?$ExprLhs@_N@1@_N@Z PROC	; Catch::Decomposer::operator<=, COMDAT
; _this$ = ecx
; File c:\projects\gsl\build\external\include\catch\catch.hpp
; Line 1117
	push	ebp
	mov	ebp, esp
; Line 1065
	mov	eax, DWORD PTR ___$ReturnUdt$[ebp]
	mov	cl, BYTE PTR _value$[ebp]
	mov	BYTE PTR [eax], cl
; Line 1119
	pop	ebp
	ret	8
??NDecomposer@Catch@@QAE?AV?$ExprLhs@_N@1@_N@Z ENDP	; Catch::Decomposer::operator<=
_TEXT	ENDS
; Function compile flags: /Ogtp
;	COMDAT ??_GITransientExpression@Catch@@UAEPAXI@Z
_TEXT	SEGMENT
___flags$ = 8						; size = 4
??_GITransientExpression@Catch@@UAEPAXI@Z PROC		; Catch::ITransientExpression::`scalar deleting destructor', COMDAT
; _this$ = ecx
	push	ebp
	mov	ebp, esp
	push	esi
	mov	esi, ecx
	call	??1ITransientExpression@Catch@@UAE@XZ	; Catch::ITransientExpression::~ITransientExpression
	test	BYTE PTR ___flags$[ebp], 1
	je	SHORT $LN4@scalar
	push	4
	push	esi
	call	??3@YAXPAXI@Z				; operator delete
	add	esp, 8
$LN4@scalar:
	mov	eax, esi
	pop	esi
	pop	ebp
	ret	4
??_GITransientExpression@Catch@@UAEPAXI@Z ENDP		; Catch::ITransientExpression::`scalar deleting destructor'
_TEXT	ENDS
; Function compile flags: /Ogtp
;	COMDAT ??0ITransientExpression@Catch@@QAE@XZ
_TEXT	SEGMENT
??0ITransientExpression@Catch@@QAE@XZ PROC		; Catch::ITransientExpression::ITransientExpression, COMDAT
; _this$ = ecx
	mov	DWORD PTR [ecx], OFFSET ??_7ITransientExpression@Catch@@6B@
	mov	eax, ecx
	ret	0
??0ITransientExpression@Catch@@QAE@XZ ENDP		; Catch::ITransientExpression::ITransientExpression
_TEXT	ENDS
; Function compile flags: /Ogtp
;	COMDAT ??1NameAndTags@Catch@@QAE@XZ
_TEXT	SEGMENT
??1NameAndTags@Catch@@QAE@XZ PROC			; Catch::NameAndTags::~NameAndTags, COMDAT
; _this$ = ecx
	push	esi
	mov	esi, ecx
	lea	ecx, DWORD PTR [esi+12]
	call	??1StringRef@Catch@@QAE@XZ		; Catch::StringRef::~StringRef
	mov	ecx, esi
	pop	esi
	jmp	??1StringRef@Catch@@QAE@XZ		; Catch::StringRef::~StringRef
??1NameAndTags@Catch@@QAE@XZ ENDP			; Catch::NameAndTags::~NameAndTags
_TEXT	ENDS
; Function compile flags: /Ogtp
;	COMDAT ?_Tidy@?$basic_string@DU?$char_traits@D@std@@V?$allocator@D@2@@std@@QAEX_NI@Z
_TEXT	SEGMENT
__Built$ = 8						; size = 1
__Newsize$ = 12						; size = 4
?_Tidy@?$basic_string@DU?$char_traits@D@std@@V?$allocator@D@2@@std@@QAEX_NI@Z PROC ; std::basic_string<char,std::char_traits<char>,std::allocator<char> >::_Tidy, COMDAT
; _this$ = ecx
; File c:\program files (x86)\microsoft visual studio 14.0\vc\include\xstring
; Line 2248
	push	ebp
	mov	ebp, esp
; Line 2249
	cmp	BYTE PTR __Built$[ebp], 0
	push	esi
	push	edi
	mov	edi, DWORD PTR __Newsize$[ebp]
	mov	esi, ecx
	je	SHORT $LN4@Tidy
; Line 2251
	cmp	DWORD PTR [esi+20], 16			; 00000010H
	jb	SHORT $LN4@Tidy
; Line 2253
	push	ebx
	mov	ebx, DWORD PTR [esi]
; Line 2255
	test	edi, edi
	je	SHORT $LN57@Tidy
; File c:\program files (x86)\microsoft visual studio 14.0\vc\include\iosfwd
; Line 530
	push	edi
	push	ebx
	push	esi
	call	_memcpy
	add	esp, 12					; 0000000cH
$LN57@Tidy:
; File c:\program files (x86)\microsoft visual studio 14.0\vc\include\xstring
; Line 2258
	mov	eax, DWORD PTR [esi+20]
; File c:\program files (x86)\microsoft visual studio 14.0\vc\include\xmemory0
; Line 720
	push	1
; File c:\program files (x86)\microsoft visual studio 14.0\vc\include\xstring
; Line 2258
	inc	eax
; File c:\program files (x86)\microsoft visual studio 14.0\vc\include\xmemory0
; Line 720
	push	eax
	push	ebx
	call	?_Deallocate@std@@YAXPAXII@Z		; std::_Deallocate
	add	esp, 12					; 0000000cH
	pop	ebx
$LN4@Tidy:
; File c:\program files (x86)\microsoft visual studio 14.0\vc\include\xstring
; Line 2260
	mov	DWORD PTR [esi+20], 15			; 0000000fH
; Line 514
	cmp	DWORD PTR [esi+20], 16			; 00000010H
; Line 2219
	mov	DWORD PTR [esi+16], edi
; Line 514
	jb	SHORT $LN96@Tidy
; File c:\program files (x86)\microsoft visual studio 14.0\vc\include\xstddef
; Line 740
	mov	eax, DWORD PTR [esi]
; File c:\program files (x86)\microsoft visual studio 14.0\vc\include\iosfwd
; Line 565
	mov	BYTE PTR [eax+edi], 0
	pop	edi
	pop	esi
; File c:\program files (x86)\microsoft visual studio 14.0\vc\include\xstring
; Line 2262
	pop	ebp
	ret	8
$LN96@Tidy:
; File c:\program files (x86)\microsoft visual studio 14.0\vc\include\iosfwd
; Line 565
	mov	BYTE PTR [esi+edi], 0
	pop	edi
	pop	esi
; File c:\program files (x86)\microsoft visual studio 14.0\vc\include\xstring
; Line 2262
	pop	ebp
	ret	8
?_Tidy@?$basic_string@DU?$char_traits@D@std@@V?$allocator@D@2@@std@@QAEX_NI@Z ENDP ; std::basic_string<char,std::char_traits<char>,std::allocator<char> >::_Tidy
_TEXT	ENDS
; Function compile flags: /Ogtp
;	COMDAT ?_Eos@?$basic_string@DU?$char_traits@D@std@@V?$allocator@D@2@@std@@QAEXI@Z
_TEXT	SEGMENT
__Newsize$ = 8						; size = 4
?_Eos@?$basic_string@DU?$char_traits@D@std@@V?$allocator@D@2@@std@@QAEXI@Z PROC ; std::basic_string<char,std::char_traits<char>,std::allocator<char> >::_Eos, COMDAT
; _this$ = ecx
; File c:\program files (x86)\microsoft visual studio 14.0\vc\include\xstring
; Line 2217
	push	ebp
	mov	ebp, esp
; Line 514
	cmp	DWORD PTR [ecx+20], 16			; 00000010H
; Line 2219
	mov	edx, DWORD PTR __Newsize$[ebp]
	mov	DWORD PTR [ecx+16], edx
; Line 514
	jb	SHORT $LN11@Eos
; File c:\program files (x86)\microsoft visual studio 14.0\vc\include\xstddef
; Line 740
	mov	eax, DWORD PTR [ecx]
; File c:\program files (x86)\microsoft visual studio 14.0\vc\include\iosfwd
; Line 565
	mov	BYTE PTR [eax+edx], 0
; File c:\program files (x86)\microsoft visual studio 14.0\vc\include\xstring
; Line 2220
	pop	ebp
	ret	4
$LN11@Eos:
; File c:\program files (x86)\microsoft visual studio 14.0\vc\include\iosfwd
; Line 565
	mov	BYTE PTR [ecx+edx], 0
; File c:\program files (x86)\microsoft visual studio 14.0\vc\include\xstring
; Line 2220
	pop	ebp
	ret	4
?_Eos@?$basic_string@DU?$char_traits@D@std@@V?$allocator@D@2@@std@@QAEXI@Z ENDP ; std::basic_string<char,std::char_traits<char>,std::allocator<char> >::_Eos
_TEXT	ENDS
; Function compile flags: /Ogtp
;	COMDAT ?size@?$basic_string@DU?$char_traits@D@std@@V?$allocator@D@2@@std@@QBEIXZ
_TEXT	SEGMENT
?size@?$basic_string@DU?$char_traits@D@std@@V?$allocator@D@2@@std@@QBEIXZ PROC ; std::basic_string<char,std::char_traits<char>,std::allocator<char> >::size, COMDAT
; _this$ = ecx
; File c:\program files (x86)\microsoft visual studio 14.0\vc\include\xstring
; Line 1765
	mov	eax, DWORD PTR [ecx+16]
; Line 1766
	ret	0
?size@?$basic_string@DU?$char_traits@D@std@@V?$allocator@D@2@@std@@QBEIXZ ENDP ; std::basic_string<char,std::char_traits<char>,std::allocator<char> >::size
_TEXT	ENDS
; Function compile flags: /Ogtp
;	COMDAT ?c_str@?$basic_string@DU?$char_traits@D@std@@V?$allocator@D@2@@std@@QBEPBDXZ
_TEXT	SEGMENT
?c_str@?$basic_string@DU?$char_traits@D@std@@V?$allocator@D@2@@std@@QBEPBDXZ PROC ; std::basic_string<char,std::char_traits<char>,std::allocator<char> >::c_str, COMDAT
; _this$ = ecx
; File c:\program files (x86)\microsoft visual studio 14.0\vc\include\xstring
; Line 521
	cmp	DWORD PTR [ecx+20], 16			; 00000010H
	jb	SHORT $LN13@c_str
; Line 1743
	mov	eax, DWORD PTR [ecx]
; Line 1744
	ret	0
$LN13@c_str:
; Line 1743
	mov	eax, ecx
; Line 1744
	ret	0
?c_str@?$basic_string@DU?$char_traits@D@std@@V?$allocator@D@2@@std@@QBEPBDXZ ENDP ; std::basic_string<char,std::char_traits<char>,std::allocator<char> >::c_str
_TEXT	ENDS
; Function compile flags: /Ogtp
;	COMDAT ??1?$basic_string@DU?$char_traits@D@std@@V?$allocator@D@2@@std@@QAE@XZ
_TEXT	SEGMENT
??1?$basic_string@DU?$char_traits@D@std@@V?$allocator@D@2@@std@@QAE@XZ PROC ; std::basic_string<char,std::char_traits<char>,std::allocator<char> >::~basic_string<char,std::char_traits<char>,std::allocator<char> >, COMDAT
; _this$ = ecx
; File c:\program files (x86)\microsoft visual studio 14.0\vc\include\xstring
; Line 1016
	push	esi
	mov	esi, ecx
; Line 2251
	mov	eax, DWORD PTR [esi+20]
	cmp	eax, 16					; 00000010H
	jb	SHORT $LN6@basic_stri
; File c:\program files (x86)\microsoft visual studio 14.0\vc\include\xmemory0
; Line 720
	push	1
; File c:\program files (x86)\microsoft visual studio 14.0\vc\include\xstring
; Line 2258
	inc	eax
; File c:\program files (x86)\microsoft visual studio 14.0\vc\include\xmemory0
; Line 720
	push	eax
	push	DWORD PTR [esi]
	call	?_Deallocate@std@@YAXPAXII@Z		; std::_Deallocate
	add	esp, 12					; 0000000cH
$LN6@basic_stri:
; File c:\program files (x86)\microsoft visual studio 14.0\vc\include\xstring
; Line 2260
	mov	DWORD PTR [esi+20], 15			; 0000000fH
; Line 514
	cmp	DWORD PTR [esi+20], 16			; 00000010H
; Line 2219
	mov	DWORD PTR [esi+16], 0
; Line 514
	jb	SHORT $LN98@basic_stri
; File c:\program files (x86)\microsoft visual studio 14.0\vc\include\xstddef
; Line 740
	mov	eax, DWORD PTR [esi]
	pop	esi
; File c:\program files (x86)\microsoft visual studio 14.0\vc\include\iosfwd
; Line 565
	mov	BYTE PTR [eax], 0
; File c:\program files (x86)\microsoft visual studio 14.0\vc\include\xstring
; Line 1018
	ret	0
$LN98@basic_stri:
; File c:\program files (x86)\microsoft visual studio 14.0\vc\include\iosfwd
; Line 565
	mov	BYTE PTR [esi], 0
	pop	esi
; File c:\program files (x86)\microsoft visual studio 14.0\vc\include\xstring
; Line 1018
	ret	0
??1?$basic_string@DU?$char_traits@D@std@@V?$allocator@D@2@@std@@QAE@XZ ENDP ; std::basic_string<char,std::char_traits<char>,std::allocator<char> >::~basic_string<char,std::char_traits<char>,std::allocator<char> >
_TEXT	ENDS
; Function compile flags: /Ogtp
;	COMDAT ??1?$_String_alloc@U?$_String_base_types@DV?$allocator@D@std@@@std@@@std@@QAE@XZ
_TEXT	SEGMENT
??1?$_String_alloc@U?$_String_base_types@DV?$allocator@D@std@@@std@@@std@@QAE@XZ PROC ; std::_String_alloc<std::_String_base_types<char,std::allocator<char> > >::~_String_alloc<std::_String_base_types<char,std::allocator<char> > >, COMDAT
; _this$ = ecx
	ret	0
??1?$_String_alloc@U?$_String_base_types@DV?$allocator@D@std@@@std@@@std@@QAE@XZ ENDP ; std::_String_alloc<std::_String_base_types<char,std::allocator<char> > >::~_String_alloc<std::_String_base_types<char,std::allocator<char> > >
_TEXT	ENDS
; Function compile flags: /Ogtp
;	COMDAT ??1?$_Compressed_pair@U?$_Wrap_alloc@V?$allocator@D@std@@@std@@V?$_String_val@U?$_Simple_types@D@std@@@2@$00@std@@QAE@XZ
_TEXT	SEGMENT
??1?$_Compressed_pair@U?$_Wrap_alloc@V?$allocator@D@std@@@std@@V?$_String_val@U?$_Simple_types@D@std@@@2@$00@std@@QAE@XZ PROC ; std::_Compressed_pair<std::_Wrap_alloc<std::allocator<char> >,std::_String_val<std::_Simple_types<char> >,1>::~_Compressed_pair<std::_Wrap_alloc<std::allocator<char> >,std::_String_val<std::_Simple_types<char> >,1>, COMDAT
; _this$ = ecx
	ret	0
??1?$_Compressed_pair@U?$_Wrap_alloc@V?$allocator@D@std@@@std@@V?$_String_val@U?$_Simple_types@D@std@@@2@$00@std@@QAE@XZ ENDP ; std::_Compressed_pair<std::_Wrap_alloc<std::allocator<char> >,std::_String_val<std::_Simple_types<char> >,1>::~_Compressed_pair<std::_Wrap_alloc<std::allocator<char> >,std::_String_val<std::_Simple_types<char> >,1>
_TEXT	ENDS
; Function compile flags: /Ogtp
;	COMDAT ?_Get_second@?$_Compressed_pair@U?$_Wrap_alloc@V?$allocator@D@std@@@std@@V?$_String_val@U?$_Simple_types@D@std@@@2@$00@std@@QBEABV?$_String_val@U?$_Simple_types@D@std@@@2@XZ
_TEXT	SEGMENT
?_Get_second@?$_Compressed_pair@U?$_Wrap_alloc@V?$allocator@D@std@@@std@@V?$_String_val@U?$_Simple_types@D@std@@@2@$00@std@@QBEABV?$_String_val@U?$_Simple_types@D@std@@@2@XZ PROC ; std::_Compressed_pair<std::_Wrap_alloc<std::allocator<char> >,std::_String_val<std::_Simple_types<char> >,1>::_Get_second, COMDAT
; _this$ = ecx
; File c:\program files (x86)\microsoft visual studio 14.0\vc\include\xutility
; Line 320
	mov	eax, ecx
; Line 321
	ret	0
?_Get_second@?$_Compressed_pair@U?$_Wrap_alloc@V?$allocator@D@std@@@std@@V?$_String_val@U?$_Simple_types@D@std@@@2@$00@std@@QBEABV?$_String_val@U?$_Simple_types@D@std@@@2@XZ ENDP ; std::_Compressed_pair<std::_Wrap_alloc<std::allocator<char> >,std::_String_val<std::_Simple_types<char> >,1>::_Get_second
_TEXT	ENDS
; Function compile flags: /Ogtp
;	COMDAT ?_Get_second@?$_Compressed_pair@U?$_Wrap_alloc@V?$allocator@D@std@@@std@@V?$_String_val@U?$_Simple_types@D@std@@@2@$00@std@@QAEAAV?$_String_val@U?$_Simple_types@D@std@@@2@XZ
_TEXT	SEGMENT
?_Get_second@?$_Compressed_pair@U?$_Wrap_alloc@V?$allocator@D@std@@@std@@V?$_String_val@U?$_Simple_types@D@std@@@2@$00@std@@QAEAAV?$_String_val@U?$_Simple_types@D@std@@@2@XZ PROC ; std::_Compressed_pair<std::_Wrap_alloc<std::allocator<char> >,std::_String_val<std::_Simple_types<char> >,1>::_Get_second, COMDAT
; _this$ = ecx
; File c:\program files (x86)\microsoft visual studio 14.0\vc\include\xutility
; Line 315
	mov	eax, ecx
; Line 316
	ret	0
?_Get_second@?$_Compressed_pair@U?$_Wrap_alloc@V?$allocator@D@std@@@std@@V?$_String_val@U?$_Simple_types@D@std@@@2@$00@std@@QAEAAV?$_String_val@U?$_Simple_types@D@std@@@2@XZ ENDP ; std::_Compressed_pair<std::_Wrap_alloc<std::allocator<char> >,std::_String_val<std::_Simple_types<char> >,1>::_Get_second
_TEXT	ENDS
; Function compile flags: /Ogtp
;	COMDAT ?_Get_first@?$_Compressed_pair@U?$_Wrap_alloc@V?$allocator@D@std@@@std@@V?$_String_val@U?$_Simple_types@D@std@@@2@$00@std@@QAEAAU?$_Wrap_alloc@V?$allocator@D@std@@@2@XZ
_TEXT	SEGMENT
?_Get_first@?$_Compressed_pair@U?$_Wrap_alloc@V?$allocator@D@std@@@std@@V?$_String_val@U?$_Simple_types@D@std@@@2@$00@std@@QAEAAU?$_Wrap_alloc@V?$allocator@D@std@@@2@XZ PROC ; std::_Compressed_pair<std::_Wrap_alloc<std::allocator<char> >,std::_String_val<std::_Simple_types<char> >,1>::_Get_first, COMDAT
; _this$ = ecx
; File c:\program files (x86)\microsoft visual studio 14.0\vc\include\xutility
; Line 295
	mov	eax, ecx
; Line 296
	ret	0
?_Get_first@?$_Compressed_pair@U?$_Wrap_alloc@V?$allocator@D@std@@@std@@V?$_String_val@U?$_Simple_types@D@std@@@2@$00@std@@QAEAAU?$_Wrap_alloc@V?$allocator@D@std@@@2@XZ ENDP ; std::_Compressed_pair<std::_Wrap_alloc<std::allocator<char> >,std::_String_val<std::_Simple_types<char> >,1>::_Get_first
_TEXT	ENDS
; Function compile flags: /Ogtp
;	COMDAT ?_Myres@?$_String_alloc@U?$_String_base_types@DV?$allocator@D@std@@@std@@@std@@QAEAAIXZ
_TEXT	SEGMENT
?_Myres@?$_String_alloc@U?$_String_base_types@DV?$allocator@D@std@@@std@@@std@@QAEAAIXZ PROC ; std::_String_alloc<std::_String_base_types<char,std::allocator<char> > >::_Myres, COMDAT
; _this$ = ecx
; File c:\program files (x86)\microsoft visual studio 14.0\vc\include\xstring
; Line 734
	lea	eax, DWORD PTR [ecx+20]
; Line 735
	ret	0
?_Myres@?$_String_alloc@U?$_String_base_types@DV?$allocator@D@std@@@std@@@std@@QAEAAIXZ ENDP ; std::_String_alloc<std::_String_base_types<char,std::allocator<char> > >::_Myres
_TEXT	ENDS
; Function compile flags: /Ogtp
;	COMDAT ?_Mysize@?$_String_alloc@U?$_String_base_types@DV?$allocator@D@std@@@std@@@std@@QBEABIXZ
_TEXT	SEGMENT
?_Mysize@?$_String_alloc@U?$_String_base_types@DV?$allocator@D@std@@@std@@@std@@QBEABIXZ PROC ; std::_String_alloc<std::_String_base_types<char,std::allocator<char> > >::_Mysize, COMDAT
; _this$ = ecx
; File c:\program files (x86)\microsoft visual studio 14.0\vc\include\xstring
; Line 729
	lea	eax, DWORD PTR [ecx+16]
; Line 730
	ret	0
?_Mysize@?$_String_alloc@U?$_String_base_types@DV?$allocator@D@std@@@std@@@std@@QBEABIXZ ENDP ; std::_String_alloc<std::_String_base_types<char,std::allocator<char> > >::_Mysize
_TEXT	ENDS
; Function compile flags: /Ogtp
;	COMDAT ?_Bx@?$_String_alloc@U?$_String_base_types@DV?$allocator@D@std@@@std@@@std@@QAEAAT_Bxty@?$_String_val@U?$_Simple_types@D@std@@@2@XZ
_TEXT	SEGMENT
?_Bx@?$_String_alloc@U?$_String_base_types@DV?$allocator@D@std@@@std@@@std@@QAEAAT_Bxty@?$_String_val@U?$_Simple_types@D@std@@@2@XZ PROC ; std::_String_alloc<std::_String_base_types<char,std::allocator<char> > >::_Bx, COMDAT
; _this$ = ecx
; File c:\program files (x86)\microsoft visual studio 14.0\vc\include\xstring
; Line 714
	mov	eax, ecx
; Line 715
	ret	0
?_Bx@?$_String_alloc@U?$_String_base_types@DV?$allocator@D@std@@@std@@@std@@QAEAAT_Bxty@?$_String_val@U?$_Simple_types@D@std@@@2@XZ ENDP ; std::_String_alloc<std::_String_base_types<char,std::allocator<char> > >::_Bx
_TEXT	ENDS
; Function compile flags: /Ogtp
;	COMDAT ?_Get_data@?$_String_alloc@U?$_String_base_types@DV?$allocator@D@std@@@std@@@std@@QBEABV?$_String_val@U?$_Simple_types@D@std@@@2@XZ
_TEXT	SEGMENT
?_Get_data@?$_String_alloc@U?$_String_base_types@DV?$allocator@D@std@@@std@@@std@@QBEABV?$_String_val@U?$_Simple_types@D@std@@@2@XZ PROC ; std::_String_alloc<std::_String_base_types<char,std::allocator<char> > >::_Get_data, COMDAT
; _this$ = ecx
; File c:\program files (x86)\microsoft visual studio 14.0\vc\include\xstring
; Line 707
	mov	eax, ecx
; Line 708
	ret	0
?_Get_data@?$_String_alloc@U?$_String_base_types@DV?$allocator@D@std@@@std@@@std@@QBEABV?$_String_val@U?$_Simple_types@D@std@@@2@XZ ENDP ; std::_String_alloc<std::_String_base_types<char,std::allocator<char> > >::_Get_data
_TEXT	ENDS
; Function compile flags: /Ogtp
;	COMDAT ?_Get_data@?$_String_alloc@U?$_String_base_types@DV?$allocator@D@std@@@std@@@std@@QAEAAV?$_String_val@U?$_Simple_types@D@std@@@2@XZ
_TEXT	SEGMENT
?_Get_data@?$_String_alloc@U?$_String_base_types@DV?$allocator@D@std@@@std@@@std@@QAEAAV?$_String_val@U?$_Simple_types@D@std@@@2@XZ PROC ; std::_String_alloc<std::_String_base_types<char,std::allocator<char> > >::_Get_data, COMDAT
; _this$ = ecx
; File c:\program files (x86)\microsoft visual studio 14.0\vc\include\xstring
; Line 702
	mov	eax, ecx
; Line 703
	ret	0
?_Get_data@?$_String_alloc@U?$_String_base_types@DV?$allocator@D@std@@@std@@@std@@QAEAAV?$_String_val@U?$_Simple_types@D@std@@@2@XZ ENDP ; std::_String_alloc<std::_String_base_types<char,std::allocator<char> > >::_Get_data
_TEXT	ENDS
; Function compile flags: /Ogtp
;	COMDAT ?_Getal@?$_String_alloc@U?$_String_base_types@DV?$allocator@D@std@@@std@@@std@@QAEAAU?$_Wrap_alloc@V?$allocator@D@std@@@2@XZ
_TEXT	SEGMENT
?_Getal@?$_String_alloc@U?$_String_base_types@DV?$allocator@D@std@@@std@@@std@@QAEAAU?$_Wrap_alloc@V?$allocator@D@std@@@2@XZ PROC ; std::_String_alloc<std::_String_base_types<char,std::allocator<char> > >::_Getal, COMDAT
; _this$ = ecx
; File c:\program files (x86)\microsoft visual studio 14.0\vc\include\xstring
; Line 692
	mov	eax, ecx
; Line 693
	ret	0
?_Getal@?$_String_alloc@U?$_String_base_types@DV?$allocator@D@std@@@std@@@std@@QAEAAU?$_Wrap_alloc@V?$allocator@D@std@@@2@XZ ENDP ; std::_String_alloc<std::_String_base_types<char,std::allocator<char> > >::_Getal
_TEXT	ENDS
; Function compile flags: /Ogtp
;	COMDAT ?_Myptr@?$_String_alloc@U?$_String_base_types@DV?$allocator@D@std@@@std@@@std@@QBEPBDXZ
_TEXT	SEGMENT
?_Myptr@?$_String_alloc@U?$_String_base_types@DV?$allocator@D@std@@@std@@@std@@QBEPBDXZ PROC ; std::_String_alloc<std::_String_base_types<char,std::allocator<char> > >::_Myptr, COMDAT
; _this$ = ecx
; File c:\program files (x86)\microsoft visual studio 14.0\vc\include\xstring
; Line 521
	cmp	DWORD PTR [ecx+20], 16			; 00000010H
	jb	SHORT $LN11@Myptr
; Line 583
	mov	eax, DWORD PTR [ecx]
; Line 584
	ret	0
$LN11@Myptr:
; Line 583
	mov	eax, ecx
; Line 584
	ret	0
?_Myptr@?$_String_alloc@U?$_String_base_types@DV?$allocator@D@std@@@std@@@std@@QBEPBDXZ ENDP ; std::_String_alloc<std::_String_base_types<char,std::allocator<char> > >::_Myptr
_TEXT	ENDS
; Function compile flags: /Ogtp
;	COMDAT ??1?$_String_val@U?$_Simple_types@D@std@@@std@@QAE@XZ
_TEXT	SEGMENT
??1?$_String_val@U?$_Simple_types@D@std@@@std@@QAE@XZ PROC ; std::_String_val<std::_Simple_types<char> >::~_String_val<std::_Simple_types<char> >, COMDAT
; _this$ = ecx
	ret	0
??1?$_String_val@U?$_Simple_types@D@std@@@std@@QAE@XZ ENDP ; std::_String_val<std::_Simple_types<char> >::~_String_val<std::_Simple_types<char> >
_TEXT	ENDS
; Function compile flags: /Ogtp
;	COMDAT ??1_Bxty@?$_String_val@U?$_Simple_types@D@std@@@std@@QAE@XZ
_TEXT	SEGMENT
??1_Bxty@?$_String_val@U?$_Simple_types@D@std@@@std@@QAE@XZ PROC ; std::_String_val<std::_Simple_types<char> >::_Bxty::~_Bxty, COMDAT
; _this$ = ecx
; File c:\program files (x86)\microsoft visual studio 14.0\vc\include\xstring
; Line 534
	ret	0
??1_Bxty@?$_String_val@U?$_Simple_types@D@std@@@std@@QAE@XZ ENDP ; std::_String_val<std::_Simple_types<char> >::_Bxty::~_Bxty
_TEXT	ENDS
; Function compile flags: /Ogtp
;	COMDAT ?_Myptr@?$_String_val@U?$_Simple_types@D@std@@@std@@QBEPBDXZ
_TEXT	SEGMENT
?_Myptr@?$_String_val@U?$_Simple_types@D@std@@@std@@QBEPBDXZ PROC ; std::_String_val<std::_Simple_types<char> >::_Myptr, COMDAT
; _this$ = ecx
; File c:\program files (x86)\microsoft visual studio 14.0\vc\include\xstring
; Line 521
	cmp	DWORD PTR [ecx+20], 16			; 00000010H
	jb	SHORT $LN3@Myptr
	mov	eax, DWORD PTR [ecx]
; Line 524
	ret	0
$LN3@Myptr:
; Line 521
	mov	eax, ecx
; Line 524
	ret	0
?_Myptr@?$_String_val@U?$_Simple_types@D@std@@@std@@QBEPBDXZ ENDP ; std::_String_val<std::_Simple_types<char> >::_Myptr
_TEXT	ENDS
; Function compile flags: /Ogtp
;	COMDAT ?_Myptr@?$_String_val@U?$_Simple_types@D@std@@@std@@QAEPADXZ
_TEXT	SEGMENT
?_Myptr@?$_String_val@U?$_Simple_types@D@std@@@std@@QAEPADXZ PROC ; std::_String_val<std::_Simple_types<char> >::_Myptr, COMDAT
; _this$ = ecx
; File c:\program files (x86)\microsoft visual studio 14.0\vc\include\xstring
; Line 514
	cmp	DWORD PTR [ecx+20], 16			; 00000010H
	jb	SHORT $LN3@Myptr
	mov	eax, DWORD PTR [ecx]
; Line 517
	ret	0
$LN3@Myptr:
; Line 514
	mov	eax, ecx
; Line 517
	ret	0
?_Myptr@?$_String_val@U?$_Simple_types@D@std@@@std@@QAEPADXZ ENDP ; std::_String_val<std::_Simple_types<char> >::_Myptr
_TEXT	ENDS
; Function compile flags: /Ogtp
;	COMDAT ?deallocate@?$_Wrap_alloc@V?$allocator@D@std@@@std@@QAEXPADI@Z
_TEXT	SEGMENT
__Ptr$ = 8						; size = 4
__Count$ = 12						; size = 4
?deallocate@?$_Wrap_alloc@V?$allocator@D@std@@@std@@QAEXPADI@Z PROC ; std::_Wrap_alloc<std::allocator<char> >::deallocate, COMDAT
; _this$ = ecx
; File c:\program files (x86)\microsoft visual studio 14.0\vc\include\xmemory0
; Line 986
	push	ebp
	mov	ebp, esp
; Line 720
	push	1
	push	DWORD PTR __Count$[ebp]
	push	DWORD PTR __Ptr$[ebp]
	call	?_Deallocate@std@@YAXPAXII@Z		; std::_Deallocate
	add	esp, 12					; 0000000cH
; Line 988
	pop	ebp
	ret	8
?deallocate@?$_Wrap_alloc@V?$allocator@D@std@@@std@@QAEXPADI@Z ENDP ; std::_Wrap_alloc<std::allocator<char> >::deallocate
_TEXT	ENDS
; Function compile flags: /Ogtp
;	COMDAT ?deallocate@?$allocator@D@std@@QAEXPADI@Z
_TEXT	SEGMENT
__Ptr$ = 8						; size = 4
__Count$ = 12						; size = 4
?deallocate@?$allocator@D@std@@QAEXPADI@Z PROC		; std::allocator<char>::deallocate, COMDAT
; _this$ = ecx
; File c:\program files (x86)\microsoft visual studio 14.0\vc\include\xmemory0
; Line 719
	push	ebp
	mov	ebp, esp
; Line 720
	push	1
	push	DWORD PTR __Count$[ebp]
	push	DWORD PTR __Ptr$[ebp]
	call	?_Deallocate@std@@YAXPAXII@Z		; std::_Deallocate
	add	esp, 12					; 0000000cH
; Line 721
	pop	ebp
	ret	8
?deallocate@?$allocator@D@std@@QAEXPADI@Z ENDP		; std::allocator<char>::deallocate
_TEXT	ENDS
; Function compile flags: /Ogtp
;	COMDAT ??_Glogic_error@std@@UAEPAXI@Z
_TEXT	SEGMENT
___flags$ = 8						; size = 4
??_Glogic_error@std@@UAEPAXI@Z PROC			; std::logic_error::`scalar deleting destructor', COMDAT
; _this$ = ecx
	push	ebp
	mov	ebp, esp
	push	esi
	mov	esi, ecx
; File c:\program files (x86)\microsoft visual studio 14.0\vc\include\vcruntime_exception.h
; Line 84
	lea	eax, DWORD PTR [esi+4]
	mov	DWORD PTR [esi], OFFSET ??_7exception@std@@6B@
	push	eax
	call	DWORD PTR __imp____std_exception_destroy
	add	esp, 4
	test	BYTE PTR ___flags$[ebp], 1
	je	SHORT $LN9@scalar
	push	12					; 0000000cH
	push	esi
	call	??3@YAXPAXI@Z				; operator delete
	add	esp, 8
$LN9@scalar:
	mov	eax, esi
	pop	esi
	pop	ebp
	ret	4
??_Glogic_error@std@@UAEPAXI@Z ENDP			; std::logic_error::`scalar deleting destructor'
_TEXT	ENDS
; Function compile flags: /Ogtp
;	COMDAT ??0logic_error@std@@QAE@$$QAV01@@Z
_TEXT	SEGMENT
___that$ = 8						; size = 4
??0logic_error@std@@QAE@$$QAV01@@Z PROC			; std::logic_error::logic_error, COMDAT
; _this$ = ecx
	push	ebp
	mov	ebp, esp
	push	esi
	mov	esi, ecx
	xorps	xmm0, xmm0
; File c:\program files (x86)\microsoft visual studio 14.0\vc\include\vcruntime_exception.h
; Line 65
	lea	eax, DWORD PTR [esi+4]
; Line 67
	push	eax
	mov	DWORD PTR [esi], OFFSET ??_7exception@std@@6B@
	movq	QWORD PTR [eax], xmm0
	mov	eax, DWORD PTR ___that$[ebp]
	add	eax, 4
	push	eax
	call	DWORD PTR __imp____std_exception_copy
	add	esp, 8
	mov	DWORD PTR [esi], OFFSET ??_7logic_error@std@@6B@
	mov	eax, esi
	pop	esi
	pop	ebp
	ret	4
??0logic_error@std@@QAE@$$QAV01@@Z ENDP			; std::logic_error::logic_error
_TEXT	ENDS
; Function compile flags: /Ogtp
;	COMDAT ??0logic_error@std@@QAE@ABV01@@Z
_TEXT	SEGMENT
___that$ = 8						; size = 4
??0logic_error@std@@QAE@ABV01@@Z PROC			; std::logic_error::logic_error, COMDAT
; _this$ = ecx
	push	ebp
	mov	ebp, esp
	push	esi
	mov	esi, ecx
	xorps	xmm0, xmm0
; File c:\program files (x86)\microsoft visual studio 14.0\vc\include\vcruntime_exception.h
; Line 65
	lea	eax, DWORD PTR [esi+4]
; Line 67
	push	eax
	mov	DWORD PTR [esi], OFFSET ??_7exception@std@@6B@
	movq	QWORD PTR [eax], xmm0
	mov	eax, DWORD PTR ___that$[ebp]
	add	eax, 4
	push	eax
	call	DWORD PTR __imp____std_exception_copy
	add	esp, 8
	mov	DWORD PTR [esi], OFFSET ??_7logic_error@std@@6B@
	mov	eax, esi
	pop	esi
	pop	ebp
	ret	4
??0logic_error@std@@QAE@ABV01@@Z ENDP			; std::logic_error::logic_error
_TEXT	ENDS
; Function compile flags: /Ogtp
;	COMDAT ??1logic_error@std@@UAE@XZ
_TEXT	SEGMENT
??1logic_error@std@@UAE@XZ PROC				; std::logic_error::~logic_error, COMDAT
; _this$ = ecx
; File c:\program files (x86)\microsoft visual studio 14.0\vc\include\vcruntime_exception.h
; Line 84
	lea	eax, DWORD PTR [ecx+4]
	mov	DWORD PTR [ecx], OFFSET ??_7exception@std@@6B@
	push	eax
	call	DWORD PTR __imp____std_exception_destroy
	pop	ecx
	ret	0
??1logic_error@std@@UAE@XZ ENDP				; std::logic_error::~logic_error
_TEXT	ENDS
; Function compile flags: /Ogtp
;	COMDAT ??0logic_error@std@@QAE@PBD@Z
_TEXT	SEGMENT
__InitData$1 = -8					; size = 8
_this$ = -4						; size = 4
__Message$ = 8						; size = 4
??0logic_error@std@@QAE@PBD@Z PROC			; std::logic_error::logic_error, COMDAT
; _this$ = ecx
; File c:\program files (x86)\microsoft visual studio 14.0\vc\include\stdexcept
; Line 28
	push	ebp
	mov	ebp, esp
	sub	esp, 8
; File c:\program files (x86)\microsoft visual studio 14.0\vc\include\vcruntime_exception.h
; Line 54
	mov	eax, DWORD PTR __Message$[ebp]
	xorps	xmm0, xmm0
	push	esi
; File c:\program files (x86)\microsoft visual studio 14.0\vc\include\stdexcept
; Line 28
	mov	esi, ecx
	mov	DWORD PTR _this$[ebp], esi
; File c:\program files (x86)\microsoft visual studio 14.0\vc\include\vcruntime_exception.h
; Line 52
	lea	edx, DWORD PTR [esi+4]
; Line 54
	mov	DWORD PTR __InitData$1[ebp], eax
; Line 55
	lea	eax, DWORD PTR __InitData$1[ebp]
	push	edx
	mov	DWORD PTR [esi], OFFSET ??_7exception@std@@6B@
	push	eax
	movq	QWORD PTR [edx], xmm0
	mov	BYTE PTR __InitData$1[ebp+4], 1
	call	DWORD PTR __imp____std_exception_copy
	add	esp, 8
; File c:\program files (x86)\microsoft visual studio 14.0\vc\include\stdexcept
; Line 28
	mov	DWORD PTR [esi], OFFSET ??_7logic_error@std@@6B@
; Line 29
	mov	eax, esi
	pop	esi
	mov	esp, ebp
	pop	ebp
	ret	4
??0logic_error@std@@QAE@PBD@Z ENDP			; std::logic_error::logic_error
_TEXT	ENDS
; Function compile flags: /Ogtp
;	COMDAT ?_Deallocate@std@@YAXPAXII@Z
_TEXT	SEGMENT
__Ptr$ = 8						; size = 4
__Count$ = 12						; size = 4
__Sz$ = 16						; size = 4
?_Deallocate@std@@YAXPAXII@Z PROC			; std::_Deallocate, COMDAT
; File c:\program files (x86)\microsoft visual studio 14.0\vc\include\xmemory0
; Line 92
	push	ebp
	mov	ebp, esp
; Line 94
	or	eax, -1
	mov	ecx, DWORD PTR __Count$[ebp]
	xor	edx, edx
	div	DWORD PTR __Sz$[ebp]
	cmp	ecx, eax
	jbe	SHORT $LN2@Deallocate
	jmp	DWORD PTR __imp___invalid_parameter_noinfo_noreturn
$LN2@Deallocate:
; Line 95
	imul	ecx, DWORD PTR __Sz$[ebp]
; Line 96
	cmp	ecx, 4096				; 00001000H
	jb	SHORT $LN9@Deallocate
; Line 99
	mov	eax, DWORD PTR __Ptr$[ebp]
	test	al, 31					; 0000001fH
	je	SHORT $LN4@Deallocate
	jmp	DWORD PTR __imp___invalid_parameter_noinfo_noreturn
$LN4@Deallocate:
; Line 103
	mov	ecx, DWORD PTR [eax-4]
; Line 114
	cmp	ecx, eax
	jb	SHORT $LN5@Deallocate
	jmp	DWORD PTR __imp___invalid_parameter_noinfo_noreturn
$LN5@Deallocate:
; Line 121
	sub	eax, ecx
	cmp	eax, 4
	jae	SHORT $LN6@Deallocate
	jmp	DWORD PTR __imp___invalid_parameter_noinfo_noreturn
$LN6@Deallocate:
; Line 125
	cmp	eax, 35					; 00000023H
	jbe	SHORT $LN3@Deallocate
	jmp	DWORD PTR __imp___invalid_parameter_noinfo_noreturn
$LN9@Deallocate:
; Line 128
	mov	ecx, DWORD PTR __Ptr$[ebp]
$LN3@Deallocate:
; Line 132
	push	ecx
	call	??3@YAXPAX@Z				; operator delete
	add	esp, 4
; Line 133
	pop	ebp
	ret	0
?_Deallocate@std@@YAXPAXII@Z ENDP			; std::_Deallocate
_TEXT	ENDS
; Function compile flags: /Ogtp
;	COMDAT ??_Gexception@std@@UAEPAXI@Z
_TEXT	SEGMENT
___flags$ = 8						; size = 4
??_Gexception@std@@UAEPAXI@Z PROC			; std::exception::`scalar deleting destructor', COMDAT
; _this$ = ecx
	push	ebp
	mov	ebp, esp
	push	esi
	mov	esi, ecx
; File c:\program files (x86)\microsoft visual studio 14.0\vc\include\vcruntime_exception.h
; Line 84
	lea	eax, DWORD PTR [esi+4]
	mov	DWORD PTR [esi], OFFSET ??_7exception@std@@6B@
	push	eax
	call	DWORD PTR __imp____std_exception_destroy
	add	esp, 4
	test	BYTE PTR ___flags$[ebp], 1
	je	SHORT $LN6@scalar
	push	12					; 0000000cH
	push	esi
	call	??3@YAXPAXI@Z				; operator delete
	add	esp, 8
$LN6@scalar:
	mov	eax, esi
	pop	esi
	pop	ebp
	ret	4
??_Gexception@std@@UAEPAXI@Z ENDP			; std::exception::`scalar deleting destructor'
_TEXT	ENDS
; Function compile flags: /Ogtp
;	COMDAT ?what@exception@std@@UBEPBDXZ
_TEXT	SEGMENT
?what@exception@std@@UBEPBDXZ PROC			; std::exception::what, COMDAT
; _this$ = ecx
; File c:\program files (x86)\microsoft visual studio 14.0\vc\include\vcruntime_exception.h
; Line 89
	mov	ecx, DWORD PTR [ecx+4]
	mov	eax, OFFSET ??_C@_0BC@EOODALEL@Unknown?5exception?$AA@
	test	ecx, ecx
	cmovne	eax, ecx
; Line 90
	ret	0
?what@exception@std@@UBEPBDXZ ENDP			; std::exception::what
_TEXT	ENDS
; Function compile flags: /Ogtp
;	COMDAT ??1exception@std@@UAE@XZ
_TEXT	SEGMENT
??1exception@std@@UAE@XZ PROC				; std::exception::~exception, COMDAT
; _this$ = ecx
; File c:\program files (x86)\microsoft visual studio 14.0\vc\include\vcruntime_exception.h
; Line 84
	lea	eax, DWORD PTR [ecx+4]
	mov	DWORD PTR [ecx], OFFSET ??_7exception@std@@6B@
	push	eax
	call	DWORD PTR __imp____std_exception_destroy
	pop	ecx
; Line 85
	ret	0
??1exception@std@@UAE@XZ ENDP				; std::exception::~exception
_TEXT	ENDS
; Function compile flags: /Ogtp
;	COMDAT ??0exception@std@@QAE@ABV01@@Z
_TEXT	SEGMENT
__Other$ = 8						; size = 4
??0exception@std@@QAE@ABV01@@Z PROC			; std::exception::exception, COMDAT
; _this$ = ecx
; File c:\program files (x86)\microsoft visual studio 14.0\vc\include\vcruntime_exception.h
; Line 66
	push	ebp
	mov	ebp, esp
	push	esi
	mov	esi, ecx
	xorps	xmm0, xmm0
	lea	eax, DWORD PTR [esi+4]
; Line 67
	push	eax
	mov	DWORD PTR [esi], OFFSET ??_7exception@std@@6B@
	movq	QWORD PTR [eax], xmm0
	mov	eax, DWORD PTR __Other$[ebp]
	add	eax, 4
	push	eax
	call	DWORD PTR __imp____std_exception_copy
	add	esp, 8
; Line 68
	mov	eax, esi
	pop	esi
	pop	ebp
	ret	4
??0exception@std@@QAE@ABV01@@Z ENDP			; std::exception::exception
_TEXT	ENDS
; Function compile flags: /Ogtp
;	COMDAT ??0exception@std@@QAE@QBD@Z
_TEXT	SEGMENT
__InitData$ = -8					; size = 8
__Message$ = 8						; size = 4
??0exception@std@@QAE@QBD@Z PROC			; std::exception::exception, COMDAT
; _this$ = ecx
; File c:\program files (x86)\microsoft visual studio 14.0\vc\include\vcruntime_exception.h
; Line 53
	push	ebp
	mov	ebp, esp
	sub	esp, 8
; Line 54
	mov	eax, DWORD PTR __Message$[ebp]
	xorps	xmm0, xmm0
	push	esi
	mov	esi, ecx
	mov	DWORD PTR __InitData$[ebp], eax
	lea	edx, DWORD PTR [esi+4]
	mov	BYTE PTR __InitData$[ebp+4], 1
; Line 55
	push	edx
	lea	eax, DWORD PTR __InitData$[ebp]
	mov	DWORD PTR [esi], OFFSET ??_7exception@std@@6B@
	push	eax
	movq	QWORD PTR [edx], xmm0
	call	DWORD PTR __imp____std_exception_copy
	add	esp, 8
; Line 56
	mov	eax, esi
	pop	esi
	mov	esp, ebp
	pop	ebp
	ret	4
??0exception@std@@QAE@QBD@Z ENDP			; std::exception::exception
_TEXT	ENDS
; Function compile flags: /Ogtp
;	COMDAT ?eof@?$char_traits@D@std@@SAHXZ
_TEXT	SEGMENT
?eof@?$char_traits@D@std@@SAHXZ PROC			; std::char_traits<char>::eof, COMDAT
; File c:\program files (x86)\microsoft visual studio 14.0\vc\include\iosfwd
; Line 606
	or	eax, -1
; Line 607
	ret	0
?eof@?$char_traits@D@std@@SAHXZ ENDP			; std::char_traits<char>::eof
_TEXT	ENDS
; Function compile flags: /Ogtp
;	COMDAT ?eq_int_type@?$char_traits@D@std@@SA_NABH0@Z
_TEXT	SEGMENT
__Left$ = 8						; size = 4
__Right$ = 12						; size = 4
?eq_int_type@?$char_traits@D@std@@SA_NABH0@Z PROC	; std::char_traits<char>::eq_int_type, COMDAT
; File c:\program files (x86)\microsoft visual studio 14.0\vc\include\iosfwd
; Line 594
	push	ebp
	mov	ebp, esp
	mov	eax, DWORD PTR __Left$[ebp]
	mov	ecx, DWORD PTR [eax]
	mov	eax, DWORD PTR __Right$[ebp]
	cmp	ecx, DWORD PTR [eax]
	sete	al
; Line 596
	pop	ebp
	ret	0
?eq_int_type@?$char_traits@D@std@@SA_NABH0@Z ENDP	; std::char_traits<char>::eq_int_type
_TEXT	ENDS
; Function compile flags: /Ogtp
;	COMDAT ?assign@?$char_traits@D@std@@SAXAADABD@Z
_TEXT	SEGMENT
__Left$ = 8						; size = 4
__Right$ = 12						; size = 4
?assign@?$char_traits@D@std@@SAXAADABD@Z PROC		; std::char_traits<char>::assign, COMDAT
; File c:\program files (x86)\microsoft visual studio 14.0\vc\include\iosfwd
; Line 564
	push	ebp
	mov	ebp, esp
; Line 565
	mov	eax, DWORD PTR __Right$[ebp]
	mov	cl, BYTE PTR [eax]
	mov	eax, DWORD PTR __Left$[ebp]
	mov	BYTE PTR [eax], cl
; Line 566
	pop	ebp
	ret	0
?assign@?$char_traits@D@std@@SAXAADABD@Z ENDP		; std::char_traits<char>::assign
_TEXT	ENDS
; Function compile flags: /Ogtp
;	COMDAT ?copy@?$char_traits@D@std@@SAPADPADPBDI@Z
_TEXT	SEGMENT
__First1$ = 8						; size = 4
__First2$ = 12						; size = 4
__Count$ = 16						; size = 4
?copy@?$char_traits@D@std@@SAPADPADPBDI@Z PROC		; std::char_traits<char>::copy, COMDAT
; File c:\program files (x86)\microsoft visual studio 14.0\vc\include\iosfwd
; Line 529
	push	ebp
	mov	ebp, esp
; Line 530
	mov	eax, DWORD PTR __Count$[ebp]
	test	eax, eax
	jne	SHORT $LN3@copy
	mov	eax, DWORD PTR __First1$[ebp]
; Line 532
	pop	ebp
	ret	0
$LN3@copy:
; Line 530
	mov	DWORD PTR __Count$[ebp], eax
; Line 532
	pop	ebp
; Line 530
	jmp	_memcpy
?copy@?$char_traits@D@std@@SAPADPADPBDI@Z ENDP		; std::char_traits<char>::copy
_TEXT	ENDS
END
