	.text
	.intel_syntax noprefix
	.def	 "?foo@@YA_NXZ";
	.scl	2;
	.type	32;
	.endef
	.globl	"?foo@@YA_NXZ"          # -- Begin function ?foo@@YA_NXZ
	.p2align	4, 0x90
"?foo@@YA_NXZ":                         # @"?foo@@YA_NXZ"
.Lfunc_begin0:
	.cv_func_id 0
	.cv_file	1 "C:\\projects\\gsl\\tests\\span_compile_only.cpp" "317CC843E234C2A315F9B75D90CA64C5" 1
	.cv_loc	0 1 42 0 is_stmt 0      # ..\tests\span_compile_only.cpp:42:0
.seh_proc "?foo@@YA_NXZ"
# %bb.0:
	sub	rsp, 120
	.seh_stackalloc 120
	.seh_endprologue
	mov	rax, qword ptr [rip + __security_cookie]
	xor	rax, rsp
	mov	qword ptr [rsp + 112], rax
.Ltmp0:
	.cv_loc	0 1 44 0                # ..\tests\span_compile_only.cpp:44:0
	mov	byte ptr [rsp + 79], 1
	.cv_loc	0 1 45 0                # ..\tests\span_compile_only.cpp:45:0
	lea	rcx, [rsp + 96]
.Ltmp1:
	#DEBUG_VALUE: s <- [$rcx+0]
	call	"??$?0$0A@X@?$span@H$0?0@gsl@@QEAA@XZ"
.Ltmp2:
	.cv_loc	0 1 46 0                # ..\tests\span_compile_only.cpp:46:0
	test	byte ptr [rsp + 79], 1
	mov	dl, 1
	mov	qword ptr [rsp + 64], rax # 8-byte Spill
	mov	byte ptr [rsp + 63], dl # 1-byte Spill
	jne	.LBB0_4
# %bb.1:
	lea	rcx, [rsp + 96]
	call	"?size@?$span@H$0?0@gsl@@QEBA_JXZ"
	xor	edx, edx
	mov	r8b, dl
	cmp	rax, 0
	mov	byte ptr [rsp + 62], r8b # 1-byte Spill
	jne	.LBB0_3
# %bb.2:
	lea	rcx, [rsp + 96]
	call	"?data@?$span@H$0?0@gsl@@QEBAPEAHXZ"
	cmp	rax, 0
	sete	dl
	mov	byte ptr [rsp + 62], dl # 1-byte Spill
.LBB0_3:
	mov	al, byte ptr [rsp + 62] # 1-byte Reload
	mov	byte ptr [rsp + 63], al # 1-byte Spill
.LBB0_4:
	mov	al, byte ptr [rsp + 63] # 1-byte Reload
	and	al, 1
	mov	byte ptr [rsp + 79], al
	.cv_loc	0 1 48 0                # ..\tests\span_compile_only.cpp:48:0
	lea	rcx, [rsp + 80]
.Ltmp3:
	#DEBUG_VALUE: cs <- [$rcx+0]
	call	"??$?0$0A@X@?$span@$$CBH$0?0@gsl@@QEAA@XZ"
.Ltmp4:
	.cv_loc	0 1 49 0                # ..\tests\span_compile_only.cpp:49:0
	test	byte ptr [rsp + 79], 1
	mov	dl, 1
	mov	qword ptr [rsp + 48], rax # 8-byte Spill
	mov	byte ptr [rsp + 47], dl # 1-byte Spill
	jne	.LBB0_8
# %bb.5:
	lea	rcx, [rsp + 80]
	call	"?size@?$span@$$CBH$0?0@gsl@@QEBA_JXZ"
	xor	edx, edx
	mov	r8b, dl
	cmp	rax, 0
	mov	byte ptr [rsp + 46], r8b # 1-byte Spill
	jne	.LBB0_7
# %bb.6:
	lea	rcx, [rsp + 80]
	call	"?data@?$span@$$CBH$0?0@gsl@@QEBAPEBHXZ"
	cmp	rax, 0
	sete	dl
	mov	byte ptr [rsp + 46], dl # 1-byte Spill
.LBB0_7:
	mov	al, byte ptr [rsp + 46] # 1-byte Reload
	mov	byte ptr [rsp + 47], al # 1-byte Spill
.LBB0_8:
	mov	al, byte ptr [rsp + 47] # 1-byte Reload
	and	al, 1
	mov	byte ptr [rsp + 79], al
	.cv_loc	0 1 51 0                # ..\tests\span_compile_only.cpp:51:0
	mov	al, byte ptr [rsp + 79]
	and	al, 1
	movzx	eax, al
	mov	rcx, qword ptr [rsp + 112]
	xor	rcx, rsp
	mov	dword ptr [rsp + 40], eax # 4-byte Spill
	call	__security_check_cookie
	mov	eax, dword ptr [rsp + 40] # 4-byte Reload
	add	rsp, 120
	ret
.Ltmp5:
.Lfunc_end0:
	.seh_handlerdata
	.text
	.seh_endproc
                                        # -- End function
	.def	 "??$?0$0A@X@?$span@H$0?0@gsl@@QEAA@XZ";
	.scl	2;
	.type	32;
	.endef
	.section	.text,"xr",discard,"??$?0$0A@X@?$span@H$0?0@gsl@@QEAA@XZ"
	.globl	"??$?0$0A@X@?$span@H$0?0@gsl@@QEAA@XZ" # -- Begin function ??$?0$0A@X@?$span@H$0?0@gsl@@QEAA@XZ
	.p2align	4, 0x90
"??$?0$0A@X@?$span@H$0?0@gsl@@QEAA@XZ": # @"??$?0$0A@X@?$span@H$0?0@gsl@@QEAA@XZ"
.Lfunc_begin1:
	.cv_func_id 1
	.cv_file	2 "C:\\projects\\gsl\\include\\gsl\\span" "3BAA3FB91BA159E545E305706709D4CE" 1
	.cv_loc	1 2 384 0               # ..\include\gsl/span:384:0
.seh_proc "??$?0$0A@X@?$span@H$0?0@gsl@@QEAA@XZ"
	.seh_handler __CxxFrameHandler3, @unwind, @except
# %bb.0:
	push	rbp
	.seh_pushreg 5
	sub	rsp, 80
	.seh_stackalloc 80
	lea	rbp, [rsp + 80]
	.seh_setframe 5, 80
	.seh_endprologue
	mov	qword ptr [rbp - 8], -2
	mov	qword ptr [rbp - 16], rcx
	mov	rcx, qword ptr [rbp - 16]
	lea	rax, [rbp - 24]
.Ltmp8:
	mov	qword ptr [rbp - 32], rcx # 8-byte Spill
	mov	rcx, rax
	call	"??0?$extent_type@$0A@@details@gsl@@QEAA@XZ"
	mov	r8b, byte ptr [rbp - 24]
.Ltmp6:
	xor	edx, edx
                                        # kill: def $rdx killed $edx
	mov	rcx, qword ptr [rbp - 32] # 8-byte Reload
	mov	qword ptr [rbp - 40], rax # 8-byte Spill
	call	"??$?0V?$extent_type@$0A@@details@gsl@@@?$storage_type@V?$extent_type@$0?0@details@gsl@@@?$span@H$0?0@gsl@@QEAA@PEAHV?$extent_type@$0A@@details@2@@Z"
.Ltmp7:
	mov	qword ptr [rbp - 48], rax # 8-byte Spill
	jmp	.LBB1_1
.LBB1_1:
	mov	rax, qword ptr [rbp - 32] # 8-byte Reload
	add	rsp, 80
	pop	rbp
	ret
	.seh_handlerdata
	.long	("$cppxdata$??$?0$0A@X@?$span@H$0?0@gsl@@QEAA@XZ")@IMGREL
	.section	.text,"xr",discard,"??$?0$0A@X@?$span@H$0?0@gsl@@QEAA@XZ"
	.seh_endproc
	.def	 "?dtor$2@?0???$?0$0A@X@?$span@H$0?0@gsl@@QEAA@XZ@4HA";
	.scl	3;
	.type	32;
	.endef
	.p2align	4, 0x90
"?dtor$2@?0???$?0$0A@X@?$span@H$0?0@gsl@@QEAA@XZ@4HA":
.seh_proc "?dtor$2@?0???$?0$0A@X@?$span@H$0?0@gsl@@QEAA@XZ@4HA"
.LBB1_2:
	mov	qword ptr [rsp + 16], rdx
	push	rbp
	.seh_pushreg 5
	sub	rsp, 32
	.seh_stackalloc 32
	lea	rbp, [rdx + 80]
	.seh_endprologue
	mov	rax, qword ptr [rip + __imp___std_terminate]
	call	rax
	ud2
.Ltmp9:
.Lfunc_end1:
	.seh_handlerdata
	.section	.text,"xr",discard,"??$?0$0A@X@?$span@H$0?0@gsl@@QEAA@XZ"
	.seh_endproc
	.section	.xdata,"dr",associative,"??$?0$0A@X@?$span@H$0?0@gsl@@QEAA@XZ"
	.p2align	2
"$cppxdata$??$?0$0A@X@?$span@H$0?0@gsl@@QEAA@XZ":
	.long	429065506               # MagicNumber
	.long	1                       # MaxState
	.long	("$stateUnwindMap$??$?0$0A@X@?$span@H$0?0@gsl@@QEAA@XZ")@IMGREL # UnwindMap
	.long	0                       # NumTryBlocks
	.long	0                       # TryBlockMap
	.long	3                       # IPMapEntries
	.long	("$ip2state$??$?0$0A@X@?$span@H$0?0@gsl@@QEAA@XZ")@IMGREL # IPToStateXData
	.long	72                      # UnwindHelp
	.long	0                       # ESTypeList
	.long	1                       # EHFlags
"$stateUnwindMap$??$?0$0A@X@?$span@H$0?0@gsl@@QEAA@XZ":
	.long	-1                      # ToState
	.long	"?dtor$2@?0???$?0$0A@X@?$span@H$0?0@gsl@@QEAA@XZ@4HA"@IMGREL # Action
"$ip2state$??$?0$0A@X@?$span@H$0?0@gsl@@QEAA@XZ":
	.long	.Lfunc_begin1@IMGREL    # IP
	.long	-1                      # ToState
	.long	.Ltmp6@IMGREL+1         # IP
	.long	0                       # ToState
	.long	.Ltmp7@IMGREL+1         # IP
	.long	-1                      # ToState
	.section	.text,"xr",discard,"??$?0$0A@X@?$span@H$0?0@gsl@@QEAA@XZ"
                                        # -- End function
	.def	 "?size@?$span@H$0?0@gsl@@QEBA_JXZ";
	.scl	2;
	.type	32;
	.endef
	.section	.text,"xr",discard,"?size@?$span@H$0?0@gsl@@QEBA_JXZ"
	.globl	"?size@?$span@H$0?0@gsl@@QEBA_JXZ" # -- Begin function ?size@?$span@H$0?0@gsl@@QEBA_JXZ
	.p2align	4, 0x90
"?size@?$span@H$0?0@gsl@@QEBA_JXZ":     # @"?size@?$span@H$0?0@gsl@@QEBA_JXZ"
.Lfunc_begin2:
	.cv_func_id 2
	.cv_loc	2 2 498 0               # ..\include\gsl/span:498:0
.seh_proc "?size@?$span@H$0?0@gsl@@QEBA_JXZ"
# %bb.0:
	sub	rsp, 40
	.seh_stackalloc 40
	.seh_endprologue
	mov	qword ptr [rsp + 32], rcx
	mov	rcx, qword ptr [rsp + 32]
.Ltmp10:
	call	"?size@?$extent_type@$0?0@details@gsl@@QEBA_JXZ"
	nop
	add	rsp, 40
	ret
.Ltmp11:
.Lfunc_end2:
	.seh_handlerdata
	.section	.text,"xr",discard,"?size@?$span@H$0?0@gsl@@QEBA_JXZ"
	.seh_endproc
                                        # -- End function
	.def	 "?data@?$span@H$0?0@gsl@@QEBAPEAHXZ";
	.scl	2;
	.type	32;
	.endef
	.section	.text,"xr",discard,"?data@?$span@H$0?0@gsl@@QEBAPEAHXZ"
	.globl	"?data@?$span@H$0?0@gsl@@QEBAPEAHXZ" # -- Begin function ?data@?$span@H$0?0@gsl@@QEBAPEAHXZ
	.p2align	4, 0x90
"?data@?$span@H$0?0@gsl@@QEBAPEAHXZ":   # @"?data@?$span@H$0?0@gsl@@QEBAPEAHXZ"
.Lfunc_begin3:
	.cv_func_id 3
	.cv_loc	3 2 515 0               # ..\include\gsl/span:515:0
.seh_proc "?data@?$span@H$0?0@gsl@@QEBAPEAHXZ"
# %bb.0:
	sub	rsp, 40
	.seh_stackalloc 40
	.seh_endprologue
	mov	qword ptr [rsp + 32], rcx
	mov	rcx, qword ptr [rsp + 32]
.Ltmp12:
	call	"?data@?$storage_type@V?$extent_type@$0?0@details@gsl@@@?$span@H$0?0@gsl@@QEBAPEAHXZ"
	nop
	add	rsp, 40
	ret
.Ltmp13:
.Lfunc_end3:
	.seh_handlerdata
	.section	.text,"xr",discard,"?data@?$span@H$0?0@gsl@@QEBAPEAHXZ"
	.seh_endproc
                                        # -- End function
	.def	 "??$?0$0A@X@?$span@$$CBH$0?0@gsl@@QEAA@XZ";
	.scl	2;
	.type	32;
	.endef
	.section	.text,"xr",discard,"??$?0$0A@X@?$span@$$CBH$0?0@gsl@@QEAA@XZ"
	.globl	"??$?0$0A@X@?$span@$$CBH$0?0@gsl@@QEAA@XZ" # -- Begin function ??$?0$0A@X@?$span@$$CBH$0?0@gsl@@QEAA@XZ
	.p2align	4, 0x90
"??$?0$0A@X@?$span@$$CBH$0?0@gsl@@QEAA@XZ": # @"??$?0$0A@X@?$span@$$CBH$0?0@gsl@@QEAA@XZ"
.Lfunc_begin4:
	.cv_func_id 4
	.cv_loc	4 2 384 0               # ..\include\gsl/span:384:0
.seh_proc "??$?0$0A@X@?$span@$$CBH$0?0@gsl@@QEAA@XZ"
	.seh_handler __CxxFrameHandler3, @unwind, @except
# %bb.0:
	push	rbp
	.seh_pushreg 5
	sub	rsp, 80
	.seh_stackalloc 80
	lea	rbp, [rsp + 80]
	.seh_setframe 5, 80
	.seh_endprologue
	mov	qword ptr [rbp - 8], -2
	mov	qword ptr [rbp - 16], rcx
	mov	rcx, qword ptr [rbp - 16]
	lea	rax, [rbp - 24]
.Ltmp16:
	mov	qword ptr [rbp - 32], rcx # 8-byte Spill
	mov	rcx, rax
	call	"??0?$extent_type@$0A@@details@gsl@@QEAA@XZ"
	mov	r8b, byte ptr [rbp - 24]
.Ltmp14:
	xor	edx, edx
                                        # kill: def $rdx killed $edx
	mov	rcx, qword ptr [rbp - 32] # 8-byte Reload
	mov	qword ptr [rbp - 40], rax # 8-byte Spill
	call	"??$?0V?$extent_type@$0A@@details@gsl@@@?$storage_type@V?$extent_type@$0?0@details@gsl@@@?$span@$$CBH$0?0@gsl@@QEAA@PEBHV?$extent_type@$0A@@details@2@@Z"
.Ltmp15:
	mov	qword ptr [rbp - 48], rax # 8-byte Spill
	jmp	.LBB4_1
.LBB4_1:
	mov	rax, qword ptr [rbp - 32] # 8-byte Reload
	add	rsp, 80
	pop	rbp
	ret
	.seh_handlerdata
	.long	("$cppxdata$??$?0$0A@X@?$span@$$CBH$0?0@gsl@@QEAA@XZ")@IMGREL
	.section	.text,"xr",discard,"??$?0$0A@X@?$span@$$CBH$0?0@gsl@@QEAA@XZ"
	.seh_endproc
	.def	 "?dtor$2@?0???$?0$0A@X@?$span@$$CBH$0?0@gsl@@QEAA@XZ@4HA";
	.scl	3;
	.type	32;
	.endef
	.p2align	4, 0x90
"?dtor$2@?0???$?0$0A@X@?$span@$$CBH$0?0@gsl@@QEAA@XZ@4HA":
.seh_proc "?dtor$2@?0???$?0$0A@X@?$span@$$CBH$0?0@gsl@@QEAA@XZ@4HA"
.LBB4_2:
	mov	qword ptr [rsp + 16], rdx
	push	rbp
	.seh_pushreg 5
	sub	rsp, 32
	.seh_stackalloc 32
	lea	rbp, [rdx + 80]
	.seh_endprologue
	mov	rax, qword ptr [rip + __imp___std_terminate]
	call	rax
	ud2
.Ltmp17:
.Lfunc_end4:
	.seh_handlerdata
	.section	.text,"xr",discard,"??$?0$0A@X@?$span@$$CBH$0?0@gsl@@QEAA@XZ"
	.seh_endproc
	.section	.xdata,"dr",associative,"??$?0$0A@X@?$span@$$CBH$0?0@gsl@@QEAA@XZ"
	.p2align	2
"$cppxdata$??$?0$0A@X@?$span@$$CBH$0?0@gsl@@QEAA@XZ":
	.long	429065506               # MagicNumber
	.long	1                       # MaxState
	.long	("$stateUnwindMap$??$?0$0A@X@?$span@$$CBH$0?0@gsl@@QEAA@XZ")@IMGREL # UnwindMap
	.long	0                       # NumTryBlocks
	.long	0                       # TryBlockMap
	.long	3                       # IPMapEntries
	.long	("$ip2state$??$?0$0A@X@?$span@$$CBH$0?0@gsl@@QEAA@XZ")@IMGREL # IPToStateXData
	.long	72                      # UnwindHelp
	.long	0                       # ESTypeList
	.long	1                       # EHFlags
"$stateUnwindMap$??$?0$0A@X@?$span@$$CBH$0?0@gsl@@QEAA@XZ":
	.long	-1                      # ToState
	.long	"?dtor$2@?0???$?0$0A@X@?$span@$$CBH$0?0@gsl@@QEAA@XZ@4HA"@IMGREL # Action
"$ip2state$??$?0$0A@X@?$span@$$CBH$0?0@gsl@@QEAA@XZ":
	.long	.Lfunc_begin4@IMGREL    # IP
	.long	-1                      # ToState
	.long	.Ltmp14@IMGREL+1        # IP
	.long	0                       # ToState
	.long	.Ltmp15@IMGREL+1        # IP
	.long	-1                      # ToState
	.section	.text,"xr",discard,"??$?0$0A@X@?$span@$$CBH$0?0@gsl@@QEAA@XZ"
                                        # -- End function
	.def	 "?size@?$span@$$CBH$0?0@gsl@@QEBA_JXZ";
	.scl	2;
	.type	32;
	.endef
	.section	.text,"xr",discard,"?size@?$span@$$CBH$0?0@gsl@@QEBA_JXZ"
	.globl	"?size@?$span@$$CBH$0?0@gsl@@QEBA_JXZ" # -- Begin function ?size@?$span@$$CBH$0?0@gsl@@QEBA_JXZ
	.p2align	4, 0x90
"?size@?$span@$$CBH$0?0@gsl@@QEBA_JXZ": # @"?size@?$span@$$CBH$0?0@gsl@@QEBA_JXZ"
.Lfunc_begin5:
	.cv_func_id 5
	.cv_loc	5 2 498 0               # ..\include\gsl/span:498:0
.seh_proc "?size@?$span@$$CBH$0?0@gsl@@QEBA_JXZ"
# %bb.0:
	sub	rsp, 40
	.seh_stackalloc 40
	.seh_endprologue
	mov	qword ptr [rsp + 32], rcx
	mov	rcx, qword ptr [rsp + 32]
.Ltmp18:
	call	"?size@?$extent_type@$0?0@details@gsl@@QEBA_JXZ"
	nop
	add	rsp, 40
	ret
.Ltmp19:
.Lfunc_end5:
	.seh_handlerdata
	.section	.text,"xr",discard,"?size@?$span@$$CBH$0?0@gsl@@QEBA_JXZ"
	.seh_endproc
                                        # -- End function
	.def	 "?data@?$span@$$CBH$0?0@gsl@@QEBAPEBHXZ";
	.scl	2;
	.type	32;
	.endef
	.section	.text,"xr",discard,"?data@?$span@$$CBH$0?0@gsl@@QEBAPEBHXZ"
	.globl	"?data@?$span@$$CBH$0?0@gsl@@QEBAPEBHXZ" # -- Begin function ?data@?$span@$$CBH$0?0@gsl@@QEBAPEBHXZ
	.p2align	4, 0x90
"?data@?$span@$$CBH$0?0@gsl@@QEBAPEBHXZ": # @"?data@?$span@$$CBH$0?0@gsl@@QEBAPEBHXZ"
.Lfunc_begin6:
	.cv_func_id 6
	.cv_loc	6 2 515 0               # ..\include\gsl/span:515:0
.seh_proc "?data@?$span@$$CBH$0?0@gsl@@QEBAPEBHXZ"
# %bb.0:
	sub	rsp, 40
	.seh_stackalloc 40
	.seh_endprologue
	mov	qword ptr [rsp + 32], rcx
	mov	rcx, qword ptr [rsp + 32]
.Ltmp20:
	call	"?data@?$storage_type@V?$extent_type@$0?0@details@gsl@@@?$span@$$CBH$0?0@gsl@@QEBAPEBHXZ"
	nop
	add	rsp, 40
	ret
.Ltmp21:
.Lfunc_end6:
	.seh_handlerdata
	.section	.text,"xr",discard,"?data@?$span@$$CBH$0?0@gsl@@QEBAPEBHXZ"
	.seh_endproc
                                        # -- End function
	.def	 "??0?$extent_type@$0A@@details@gsl@@QEAA@XZ";
	.scl	2;
	.type	32;
	.endef
	.section	.text,"xr",discard,"??0?$extent_type@$0A@@details@gsl@@QEAA@XZ"
	.globl	"??0?$extent_type@$0A@@details@gsl@@QEAA@XZ" # -- Begin function ??0?$extent_type@$0A@@details@gsl@@QEAA@XZ
	.p2align	4, 0x90
"??0?$extent_type@$0A@@details@gsl@@QEAA@XZ": # @"??0?$extent_type@$0A@@details@gsl@@QEAA@XZ"
.Lfunc_begin7:
	.cv_func_id 7
	.cv_loc	7 2 311 0               # ..\include\gsl/span:311:0
.seh_proc "??0?$extent_type@$0A@@details@gsl@@QEAA@XZ"
# %bb.0:
	push	rax
	.seh_stackalloc 8
	.seh_endprologue
	mov	qword ptr [rsp], rcx
	mov	rax, qword ptr [rsp]
.Ltmp22:
	pop	rcx
	ret
.Ltmp23:
.Lfunc_end7:
	.seh_handlerdata
	.section	.text,"xr",discard,"??0?$extent_type@$0A@@details@gsl@@QEAA@XZ"
	.seh_endproc
                                        # -- End function
	.def	 "??$?0V?$extent_type@$0A@@details@gsl@@@?$storage_type@V?$extent_type@$0?0@details@gsl@@@?$span@H$0?0@gsl@@QEAA@PEAHV?$extent_type@$0A@@details@2@@Z";
	.scl	2;
	.type	32;
	.endef
	.section	.text,"xr",discard,"??$?0V?$extent_type@$0A@@details@gsl@@@?$storage_type@V?$extent_type@$0?0@details@gsl@@@?$span@H$0?0@gsl@@QEAA@PEAHV?$extent_type@$0A@@details@2@@Z"
	.globl	"??$?0V?$extent_type@$0A@@details@gsl@@@?$storage_type@V?$extent_type@$0?0@details@gsl@@@?$span@H$0?0@gsl@@QEAA@PEAHV?$extent_type@$0A@@details@2@@Z" # -- Begin function ??$?0V?$extent_type@$0A@@details@gsl@@@?$storage_type@V?$extent_type@$0?0@details@gsl@@@?$span@H$0?0@gsl@@QEAA@PEAHV?$extent_type@$0A@@details@2@@Z
	.p2align	4, 0x90
"??$?0V?$extent_type@$0A@@details@gsl@@@?$storage_type@V?$extent_type@$0?0@details@gsl@@@?$span@H$0?0@gsl@@QEAA@PEAHV?$extent_type@$0A@@details@2@@Z": # @"??$?0V?$extent_type@$0A@@details@gsl@@@?$storage_type@V?$extent_type@$0?0@details@gsl@@@?$span@H$0?0@gsl@@QEAA@PEAHV?$extent_type@$0A@@details@2@@Z"
.Lfunc_begin8:
	.cv_func_id 8
	.cv_loc	8 2 597 0               # ..\include\gsl/span:597:0
.seh_proc "??$?0V?$extent_type@$0A@@details@gsl@@@?$storage_type@V?$extent_type@$0?0@details@gsl@@@?$span@H$0?0@gsl@@QEAA@PEAHV?$extent_type@$0A@@details@2@@Z"
	.seh_handler __CxxFrameHandler3, @unwind, @except
# %bb.0:
	push	rbp
	.seh_pushreg 5
	sub	rsp, 208
	.seh_stackalloc 208
	lea	rbp, [rsp + 128]
	.seh_setframe 5, 128
	.seh_endprologue
	mov	qword ptr [rbp + 72], -2
	mov	byte ptr [rbp + 56], r8b
	mov	qword ptr [rbp + 48], rdx
	mov	qword ptr [rbp + 40], rcx
	mov	rcx, qword ptr [rbp + 40]
	mov	qword ptr [rbp + 64], rcx
.Ltmp28:
	mov	rdx, rcx
	mov	r8b, byte ptr [rbp + 32]
	mov	qword ptr [rbp - 40], rcx # 8-byte Spill
	mov	rcx, rdx
	mov	dl, r8b
	call	"??$?0$0A@@?$extent_type@$0?0@details@gsl@@QEAA@V?$extent_type@$0A@@12@@Z"
	mov	rcx, qword ptr [rbp + 48]
	mov	r9, qword ptr [rbp - 40] # 8-byte Reload
	mov	qword ptr [r9 + 8], rcx
.Ltmp29:
	.cv_loc	8 2 598 0               # ..\include\gsl/span:598:0
	mov	rcx, r9
	mov	qword ptr [rbp - 48], rax # 8-byte Spill
	call	"?size@?$extent_type@$0?0@details@gsl@@QEBA_JXZ"
	cmp	rax, 0
	setge	dl
	mov	byte ptr [rbp + 7], 0
	test	dl, 1
	jne	.LBB8_1
	jmp	.LBB8_2
.LBB8_1:
	test	byte ptr [rbp + 7], 1
	jne	.LBB8_4
	jmp	.LBB8_5
.LBB8_2:
	lea	rdx, [rip + "??_C@_0DG@PPPKJHO@GSL?3?5Precondition?5failure?5at?5?4?4?2@"]
	lea	rax, [rbp + 8]
	mov	rcx, rax
	mov	qword ptr [rbp - 56], rax # 8-byte Spill
	call	"??0fail_fast@gsl@@QEAA@QEBD@Z"
	mov	byte ptr [rbp + 7], 1
.Ltmp24:
	mov	rcx, qword ptr [rbp - 56] # 8-byte Reload
	mov	qword ptr [rbp - 64], rax # 8-byte Spill
	call	"??$throw_exception@Ufail_fast@gsl@@@details@gsl@@YAX$$QEAUfail_fast@1@@Z"
.Ltmp25:
	jmp	.LBB8_3
.LBB8_3:
	ud2
.LBB8_4:
	lea	rcx, [rbp + 8]
	call	"??1fail_fast@gsl@@UEAA@XZ"
.LBB8_5:
	.cv_loc	8 2 599 0               # ..\include\gsl/span:599:0
	mov	rax, qword ptr [rbp + 48]
	mov	byte ptr [rbp - 25], 0
	cmp	rax, 0
	mov	cl, 1
	mov	byte ptr [rbp - 65], cl # 1-byte Spill
	jne	.LBB8_7
# %bb.6:
	mov	rax, qword ptr [rbp - 40] # 8-byte Reload
	mov	rcx, rax
	call	"?size@?$extent_type@$0?0@details@gsl@@QEBA_JXZ"
	cmp	rax, 0
	sete	dl
	mov	byte ptr [rbp - 65], dl # 1-byte Spill
.LBB8_7:
	mov	al, byte ptr [rbp - 65] # 1-byte Reload
	test	al, 1
	jne	.LBB8_8
	jmp	.LBB8_9
.LBB8_8:
	test	byte ptr [rbp - 25], 1
	jne	.LBB8_14
	jmp	.LBB8_15
.LBB8_9:
	lea	rdx, [rip + "??_C@_0DG@BGOEJIDP@GSL?3?5Precondition?5failure?5at?5?4?4?2@"]
	lea	rax, [rbp - 24]
	mov	rcx, rax
	mov	qword ptr [rbp - 80], rax # 8-byte Spill
	call	"??0fail_fast@gsl@@QEAA@QEBD@Z"
	mov	byte ptr [rbp - 25], 1
.Ltmp26:
	mov	rcx, qword ptr [rbp - 80] # 8-byte Reload
	mov	qword ptr [rbp - 88], rax # 8-byte Spill
	call	"??$throw_exception@Ufail_fast@gsl@@@details@gsl@@YAX$$QEAUfail_fast@1@@Z"
.Ltmp27:
	jmp	.LBB8_10
.LBB8_10:
	ud2
.LBB8_14:
	lea	rcx, [rbp - 24]
	call	"??1fail_fast@gsl@@UEAA@XZ"
.Ltmp30:
.LBB8_15:
	.cv_loc	8 2 600 0               # ..\include\gsl/span:600:0
	mov	rax, qword ptr [rbp + 64]
	add	rsp, 208
	pop	rbp
	ret
	.seh_handlerdata
	.long	("$cppxdata$??$?0V?$extent_type@$0A@@details@gsl@@@?$storage_type@V?$extent_type@$0?0@details@gsl@@@?$span@H$0?0@gsl@@QEAA@PEAHV?$extent_type@$0A@@details@2@@Z")@IMGREL
	.section	.text,"xr",discard,"??$?0V?$extent_type@$0A@@details@gsl@@@?$storage_type@V?$extent_type@$0?0@details@gsl@@@?$span@H$0?0@gsl@@QEAA@PEAHV?$extent_type@$0A@@details@2@@Z"
	.seh_endproc
	.def	 "?dtor$11@?0???$?0V?$extent_type@$0A@@details@gsl@@@?$storage_type@V?$extent_type@$0?0@details@gsl@@@?$span@H$0?0@gsl@@QEAA@PEAHV?$extent_type@$0A@@details@2@@Z@4HA";
	.scl	3;
	.type	32;
	.endef
	.p2align	4, 0x90
"?dtor$11@?0???$?0V?$extent_type@$0A@@details@gsl@@@?$storage_type@V?$extent_type@$0?0@details@gsl@@@?$span@H$0?0@gsl@@QEAA@PEAHV?$extent_type@$0A@@details@2@@Z@4HA":
.seh_proc "?dtor$11@?0???$?0V?$extent_type@$0A@@details@gsl@@@?$storage_type@V?$extent_type@$0?0@details@gsl@@@?$span@H$0?0@gsl@@QEAA@PEAHV?$extent_type@$0A@@details@2@@Z@4HA"
.LBB8_11:
	mov	qword ptr [rsp + 16], rdx
	push	rbp
	.seh_pushreg 5
	sub	rsp, 32
	.seh_stackalloc 32
	lea	rbp, [rdx + 128]
	.seh_endprologue
.Ltmp31:
	.cv_loc	8 2 598 0               # ..\include\gsl/span:598:0
	test	byte ptr [rbp + 7], 1
	jne	.LBB8_12
	jmp	.LBB8_13
.LBB8_12:
	lea	rcx, [rbp + 8]
	call	"??1fail_fast@gsl@@UEAA@XZ"
.LBB8_13:
	nop
	add	rsp, 32
	pop	rbp
	ret                             # CLEANUPRET
	.seh_handlerdata
	.section	.text,"xr",discard,"??$?0V?$extent_type@$0A@@details@gsl@@@?$storage_type@V?$extent_type@$0?0@details@gsl@@@?$span@H$0?0@gsl@@QEAA@PEAHV?$extent_type@$0A@@details@2@@Z"
	.seh_endproc
	.def	 "?dtor$16@?0???$?0V?$extent_type@$0A@@details@gsl@@@?$storage_type@V?$extent_type@$0?0@details@gsl@@@?$span@H$0?0@gsl@@QEAA@PEAHV?$extent_type@$0A@@details@2@@Z@4HA";
	.scl	3;
	.type	32;
	.endef
	.p2align	4, 0x90
"?dtor$16@?0???$?0V?$extent_type@$0A@@details@gsl@@@?$storage_type@V?$extent_type@$0?0@details@gsl@@@?$span@H$0?0@gsl@@QEAA@PEAHV?$extent_type@$0A@@details@2@@Z@4HA":
.seh_proc "?dtor$16@?0???$?0V?$extent_type@$0A@@details@gsl@@@?$storage_type@V?$extent_type@$0?0@details@gsl@@@?$span@H$0?0@gsl@@QEAA@PEAHV?$extent_type@$0A@@details@2@@Z@4HA"
.LBB8_16:
	mov	qword ptr [rsp + 16], rdx
	push	rbp
	.seh_pushreg 5
	sub	rsp, 32
	.seh_stackalloc 32
	lea	rbp, [rdx + 128]
	.seh_endprologue
	.cv_loc	8 2 599 0               # ..\include\gsl/span:599:0
	test	byte ptr [rbp - 25], 1
	jne	.LBB8_17
	jmp	.LBB8_18
.LBB8_17:
	lea	rcx, [rbp - 24]
	call	"??1fail_fast@gsl@@UEAA@XZ"
.LBB8_18:
	nop
	add	rsp, 32
	pop	rbp
	ret                             # CLEANUPRET
.Ltmp32:
.Lfunc_end8:
	.seh_handlerdata
	.section	.text,"xr",discard,"??$?0V?$extent_type@$0A@@details@gsl@@@?$storage_type@V?$extent_type@$0?0@details@gsl@@@?$span@H$0?0@gsl@@QEAA@PEAHV?$extent_type@$0A@@details@2@@Z"
	.seh_endproc
	.section	.xdata,"dr",associative,"??$?0V?$extent_type@$0A@@details@gsl@@@?$storage_type@V?$extent_type@$0?0@details@gsl@@@?$span@H$0?0@gsl@@QEAA@PEAHV?$extent_type@$0A@@details@2@@Z"
	.p2align	2
"$cppxdata$??$?0V?$extent_type@$0A@@details@gsl@@@?$storage_type@V?$extent_type@$0?0@details@gsl@@@?$span@H$0?0@gsl@@QEAA@PEAHV?$extent_type@$0A@@details@2@@Z":
	.long	429065506               # MagicNumber
	.long	2                       # MaxState
	.long	("$stateUnwindMap$??$?0V?$extent_type@$0A@@details@gsl@@@?$storage_type@V?$extent_type@$0?0@details@gsl@@@?$span@H$0?0@gsl@@QEAA@PEAHV?$extent_type@$0A@@details@2@@Z")@IMGREL # UnwindMap
	.long	0                       # NumTryBlocks
	.long	0                       # TryBlockMap
	.long	5                       # IPMapEntries
	.long	("$ip2state$??$?0V?$extent_type@$0A@@details@gsl@@@?$storage_type@V?$extent_type@$0?0@details@gsl@@@?$span@H$0?0@gsl@@QEAA@PEAHV?$extent_type@$0A@@details@2@@Z")@IMGREL # IPToStateXData
	.long	200                     # UnwindHelp
	.long	0                       # ESTypeList
	.long	1                       # EHFlags
"$stateUnwindMap$??$?0V?$extent_type@$0A@@details@gsl@@@?$storage_type@V?$extent_type@$0?0@details@gsl@@@?$span@H$0?0@gsl@@QEAA@PEAHV?$extent_type@$0A@@details@2@@Z":
	.long	-1                      # ToState
	.long	"?dtor$11@?0???$?0V?$extent_type@$0A@@details@gsl@@@?$storage_type@V?$extent_type@$0?0@details@gsl@@@?$span@H$0?0@gsl@@QEAA@PEAHV?$extent_type@$0A@@details@2@@Z@4HA"@IMGREL # Action
	.long	-1                      # ToState
	.long	"?dtor$16@?0???$?0V?$extent_type@$0A@@details@gsl@@@?$storage_type@V?$extent_type@$0?0@details@gsl@@@?$span@H$0?0@gsl@@QEAA@PEAHV?$extent_type@$0A@@details@2@@Z@4HA"@IMGREL # Action
"$ip2state$??$?0V?$extent_type@$0A@@details@gsl@@@?$storage_type@V?$extent_type@$0?0@details@gsl@@@?$span@H$0?0@gsl@@QEAA@PEAHV?$extent_type@$0A@@details@2@@Z":
	.long	.Lfunc_begin8@IMGREL    # IP
	.long	-1                      # ToState
	.long	.Ltmp24@IMGREL+1        # IP
	.long	0                       # ToState
	.long	.Ltmp25@IMGREL+1        # IP
	.long	-1                      # ToState
	.long	.Ltmp26@IMGREL+1        # IP
	.long	1                       # ToState
	.long	.Ltmp27@IMGREL+1        # IP
	.long	-1                      # ToState
	.section	.text,"xr",discard,"??$?0V?$extent_type@$0A@@details@gsl@@@?$storage_type@V?$extent_type@$0?0@details@gsl@@@?$span@H$0?0@gsl@@QEAA@PEAHV?$extent_type@$0A@@details@2@@Z"
                                        # -- End function
	.def	 "??$?0$0A@@?$extent_type@$0?0@details@gsl@@QEAA@V?$extent_type@$0A@@12@@Z";
	.scl	2;
	.type	32;
	.endef
	.section	.text,"xr",discard,"??$?0$0A@@?$extent_type@$0?0@details@gsl@@QEAA@V?$extent_type@$0A@@12@@Z"
	.globl	"??$?0$0A@@?$extent_type@$0?0@details@gsl@@QEAA@V?$extent_type@$0A@@12@@Z" # -- Begin function ??$?0$0A@@?$extent_type@$0?0@details@gsl@@QEAA@V?$extent_type@$0A@@12@@Z
	.p2align	4, 0x90
"??$?0$0A@@?$extent_type@$0?0@details@gsl@@QEAA@V?$extent_type@$0A@@12@@Z": # @"??$?0$0A@@?$extent_type@$0?0@details@gsl@@QEAA@V?$extent_type@$0A@@12@@Z"
.Lfunc_begin9:
	.cv_func_id 9
	.cv_loc	9 2 334 0               # ..\include\gsl/span:334:0
.seh_proc "??$?0$0A@@?$extent_type@$0?0@details@gsl@@QEAA@V?$extent_type@$0A@@12@@Z"
# %bb.0:
	sub	rsp, 72
	.seh_stackalloc 72
	.seh_endprologue
	mov	rax, qword ptr [rip + __security_cookie]
	xor	rax, rsp
	mov	qword ptr [rsp + 64], rax
	mov	byte ptr [rsp + 56], dl
	mov	qword ptr [rsp + 48], rcx
	mov	rax, qword ptr [rsp + 48]
.Ltmp33:
	lea	rcx, [rsp + 56]
	#DEBUG_VALUE: extent_type<0>:ext <- [$rcx+0]
	mov	qword ptr [rsp + 40], rax # 8-byte Spill
	call	"?size@?$extent_type@$0A@@details@gsl@@QEBA_JXZ"
.Ltmp34:
	mov	rcx, qword ptr [rsp + 40] # 8-byte Reload
	mov	qword ptr [rcx], rax
	mov	rax, qword ptr [rsp + 64]
	xor	rax, rsp
	mov	rcx, rax
	call	__security_check_cookie
	mov	rax, qword ptr [rsp + 40] # 8-byte Reload
	add	rsp, 72
	ret
.Ltmp35:
.Lfunc_end9:
	.seh_handlerdata
	.section	.text,"xr",discard,"??$?0$0A@@?$extent_type@$0?0@details@gsl@@QEAA@V?$extent_type@$0A@@12@@Z"
	.seh_endproc
                                        # -- End function
	.def	 "?size@?$extent_type@$0?0@details@gsl@@QEBA_JXZ";
	.scl	2;
	.type	32;
	.endef
	.section	.text,"xr",discard,"?size@?$extent_type@$0?0@details@gsl@@QEBA_JXZ"
	.globl	"?size@?$extent_type@$0?0@details@gsl@@QEBA_JXZ" # -- Begin function ?size@?$extent_type@$0?0@details@gsl@@QEBA_JXZ
	.p2align	4, 0x90
"?size@?$extent_type@$0?0@details@gsl@@QEBA_JXZ": # @"?size@?$extent_type@$0?0@details@gsl@@QEBA_JXZ"
.Lfunc_begin10:
	.cv_func_id 10
	.cv_loc	10 2 338 0              # ..\include\gsl/span:338:0
.seh_proc "?size@?$extent_type@$0?0@details@gsl@@QEBA_JXZ"
# %bb.0:
	push	rax
	.seh_stackalloc 8
	.seh_endprologue
	mov	qword ptr [rsp], rcx
	mov	rcx, qword ptr [rsp]
.Ltmp36:
	mov	rax, qword ptr [rcx]
	pop	rcx
	ret
.Ltmp37:
.Lfunc_end10:
	.seh_handlerdata
	.section	.text,"xr",discard,"?size@?$extent_type@$0?0@details@gsl@@QEBA_JXZ"
	.seh_endproc
                                        # -- End function
	.def	 "??$throw_exception@Ufail_fast@gsl@@@details@gsl@@YAX$$QEAUfail_fast@1@@Z";
	.scl	2;
	.type	32;
	.endef
	.section	.text,"xr",discard,"??$throw_exception@Ufail_fast@gsl@@@details@gsl@@YAX$$QEAUfail_fast@1@@Z"
	.globl	"??$throw_exception@Ufail_fast@gsl@@@details@gsl@@YAX$$QEAUfail_fast@1@@Z" # -- Begin function ??$throw_exception@Ufail_fast@gsl@@@details@gsl@@YAX$$QEAUfail_fast@1@@Z
	.p2align	4, 0x90
"??$throw_exception@Ufail_fast@gsl@@@details@gsl@@YAX$$QEAUfail_fast@1@@Z": # @"??$throw_exception@Ufail_fast@gsl@@@details@gsl@@YAX$$QEAUfail_fast@1@@Z"
.Lfunc_begin11:
	.cv_func_id 11
	.cv_file	3 "C:\\projects\\gsl\\include\\gsl\\gsl_assert" "DC2D278DC08DD14FC7E736FCD7722B8E" 1
	.cv_loc	11 3 143 0              # ..\include\gsl/gsl_assert:143:0
.seh_proc "??$throw_exception@Ufail_fast@gsl@@@details@gsl@@YAX$$QEAUfail_fast@1@@Z"
# %bb.0:
	sub	rsp, 88
	.seh_stackalloc 88
	.seh_endprologue
	mov	qword ptr [rsp + 80], rcx
.Ltmp38:
	.cv_loc	11 3 144 0              # ..\include\gsl/gsl_assert:144:0
	mov	rcx, qword ptr [rsp + 80]
	call	"??$forward@Ufail_fast@gsl@@@std@@YA$$QEAUfail_fast@gsl@@AEAU12@@Z"
	lea	rcx, [rsp + 56]
	mov	qword ptr [rsp + 48], rcx # 8-byte Spill
	mov	rdx, rax
	call	"??0fail_fast@gsl@@QEAA@$$QEAU01@@Z"
	lea	rdx, [rip + "_TI3?AUfail_fast@gsl@@"]
	mov	rcx, qword ptr [rip + __imp__CxxThrowException]
	mov	r8, qword ptr [rsp + 48] # 8-byte Reload
	mov	qword ptr [rsp + 40], rcx # 8-byte Spill
	mov	rcx, r8
	mov	r9, qword ptr [rsp + 40] # 8-byte Reload
	mov	qword ptr [rsp + 32], rax # 8-byte Spill
	call	r9
	ud2
.Ltmp39:
.Lfunc_end11:
	.seh_handlerdata
	.section	.text,"xr",discard,"??$throw_exception@Ufail_fast@gsl@@@details@gsl@@YAX$$QEAUfail_fast@1@@Z"
	.seh_endproc
                                        # -- End function
	.def	 "??0fail_fast@gsl@@QEAA@QEBD@Z";
	.scl	2;
	.type	32;
	.endef
	.section	.text,"xr",discard,"??0fail_fast@gsl@@QEAA@QEBD@Z"
	.globl	"??0fail_fast@gsl@@QEAA@QEBD@Z" # -- Begin function ??0fail_fast@gsl@@QEAA@QEBD@Z
	.p2align	4, 0x90
"??0fail_fast@gsl@@QEAA@QEBD@Z":        # @"??0fail_fast@gsl@@QEAA@QEBD@Z"
.Lfunc_begin12:
	.cv_func_id 12
	.cv_loc	12 3 99 0               # ..\include\gsl/gsl_assert:99:0
.seh_proc "??0fail_fast@gsl@@QEAA@QEBD@Z"
# %bb.0:
	sub	rsp, 72
	.seh_stackalloc 72
	.seh_endprologue
	mov	qword ptr [rsp + 64], rdx
	mov	qword ptr [rsp + 56], rcx
	mov	rcx, qword ptr [rsp + 56]
.Ltmp40:
	mov	rdx, rcx
	mov	rax, qword ptr [rsp + 64]
	mov	qword ptr [rsp + 48], rcx # 8-byte Spill
	mov	rcx, rdx
	mov	rdx, rax
	call	"??0logic_error@std@@QEAA@PEBD@Z"
	lea	rcx, [rip + "??_7fail_fast@gsl@@6B@"]
	mov	rdx, qword ptr [rsp + 48] # 8-byte Reload
	mov	qword ptr [rdx], rcx
	mov	qword ptr [rsp + 40], rax # 8-byte Spill
	mov	rax, rdx
	add	rsp, 72
	ret
.Ltmp41:
.Lfunc_end12:
	.seh_handlerdata
	.section	.text,"xr",discard,"??0fail_fast@gsl@@QEAA@QEBD@Z"
	.seh_endproc
                                        # -- End function
	.def	 "??1fail_fast@gsl@@UEAA@XZ";
	.scl	2;
	.type	32;
	.endef
	.section	.text,"xr",discard,"??1fail_fast@gsl@@UEAA@XZ"
	.globl	"??1fail_fast@gsl@@UEAA@XZ" # -- Begin function ??1fail_fast@gsl@@UEAA@XZ
	.p2align	4, 0x90
"??1fail_fast@gsl@@UEAA@XZ":            # @"??1fail_fast@gsl@@UEAA@XZ"
.Lfunc_begin13:
	.cv_func_id 13
	.cv_loc	13 3 97 0               # ..\include\gsl/gsl_assert:97:0
.seh_proc "??1fail_fast@gsl@@UEAA@XZ"
# %bb.0:
	sub	rsp, 40
	.seh_stackalloc 40
	.seh_endprologue
	mov	qword ptr [rsp + 32], rcx
	mov	rcx, qword ptr [rsp + 32]
.Ltmp42:
	.cv_loc	13 3 97 0               # ..\include\gsl/gsl_assert:97:0
	call	"??1logic_error@std@@UEAA@XZ"
.Ltmp43:
	.cv_loc	13 3 97 0               # ..\include\gsl/gsl_assert:97:0
	nop
	add	rsp, 40
	ret
.Ltmp44:
.Lfunc_end13:
	.seh_handlerdata
	.section	.text,"xr",discard,"??1fail_fast@gsl@@UEAA@XZ"
	.seh_endproc
                                        # -- End function
	.def	 "?size@?$extent_type@$0A@@details@gsl@@QEBA_JXZ";
	.scl	2;
	.type	32;
	.endef
	.section	.text,"xr",discard,"?size@?$extent_type@$0A@@details@gsl@@QEBA_JXZ"
	.globl	"?size@?$extent_type@$0A@@details@gsl@@QEBA_JXZ" # -- Begin function ?size@?$extent_type@$0A@@details@gsl@@QEBA_JXZ
	.p2align	4, 0x90
"?size@?$extent_type@$0A@@details@gsl@@QEBA_JXZ": # @"?size@?$extent_type@$0A@@details@gsl@@QEBA_JXZ"
.Lfunc_begin14:
	.cv_func_id 14
	.cv_loc	14 2 323 0              # ..\include\gsl/span:323:0
.seh_proc "?size@?$extent_type@$0A@@details@gsl@@QEBA_JXZ"
# %bb.0:
	push	rax
	.seh_stackalloc 8
	.seh_endprologue
	xor	eax, eax
                                        # kill: def $rax killed $eax
	mov	qword ptr [rsp], rcx
.Ltmp45:
	pop	rcx
	ret
.Ltmp46:
.Lfunc_end14:
	.seh_handlerdata
	.section	.text,"xr",discard,"?size@?$extent_type@$0A@@details@gsl@@QEBA_JXZ"
	.seh_endproc
                                        # -- End function
	.def	 "??$forward@Ufail_fast@gsl@@@std@@YA$$QEAUfail_fast@gsl@@AEAU12@@Z";
	.scl	2;
	.type	32;
	.endef
	.section	.text,"xr",discard,"??$forward@Ufail_fast@gsl@@@std@@YA$$QEAUfail_fast@gsl@@AEAU12@@Z"
	.globl	"??$forward@Ufail_fast@gsl@@@std@@YA$$QEAUfail_fast@gsl@@AEAU12@@Z" # -- Begin function ??$forward@Ufail_fast@gsl@@@std@@YA$$QEAUfail_fast@gsl@@AEAU12@@Z
	.p2align	4, 0x90
"??$forward@Ufail_fast@gsl@@@std@@YA$$QEAUfail_fast@gsl@@AEAU12@@Z": # @"??$forward@Ufail_fast@gsl@@@std@@YA$$QEAUfail_fast@gsl@@AEAU12@@Z"
.Lfunc_begin15:
	.cv_func_id 15
	.cv_file	4 "C:\\Program Files (x86)\\Microsoft Visual Studio\\2017\\Community\\VC\\Tools\\MSVC\\14.16.27023\\include\\type_traits" "31392DB14D6313D8182AD771AA06F210" 1
	.cv_loc	15 4 1573 0             # C:\Program Files (x86)\Microsoft Visual Studio\2017\Community\VC\Tools\MSVC\14.16.27023\include\type_traits:1573:0
.seh_proc "??$forward@Ufail_fast@gsl@@@std@@YA$$QEAUfail_fast@gsl@@AEAU12@@Z"
# %bb.0:
	push	rax
	.seh_stackalloc 8
	.seh_endprologue
	mov	qword ptr [rsp], rcx
.Ltmp47:
	.cv_loc	15 4 1574 0             # C:\Program Files (x86)\Microsoft Visual Studio\2017\Community\VC\Tools\MSVC\14.16.27023\include\type_traits:1574:0
	mov	rax, qword ptr [rsp]
	pop	rcx
	ret
.Ltmp48:
.Lfunc_end15:
	.seh_handlerdata
	.section	.text,"xr",discard,"??$forward@Ufail_fast@gsl@@@std@@YA$$QEAUfail_fast@gsl@@AEAU12@@Z"
	.seh_endproc
                                        # -- End function
	.def	 "??0fail_fast@gsl@@QEAA@$$QEAU01@@Z";
	.scl	2;
	.type	32;
	.endef
	.section	.text,"xr",discard,"??0fail_fast@gsl@@QEAA@$$QEAU01@@Z"
	.globl	"??0fail_fast@gsl@@QEAA@$$QEAU01@@Z" # -- Begin function ??0fail_fast@gsl@@QEAA@$$QEAU01@@Z
	.p2align	4, 0x90
"??0fail_fast@gsl@@QEAA@$$QEAU01@@Z":   # @"??0fail_fast@gsl@@QEAA@$$QEAU01@@Z"
.Lfunc_begin16:
	.cv_func_id 16
	.cv_loc	16 3 97 0               # ..\include\gsl/gsl_assert:97:0
.seh_proc "??0fail_fast@gsl@@QEAA@$$QEAU01@@Z"
# %bb.0:
	sub	rsp, 72
	.seh_stackalloc 72
	.seh_endprologue
	mov	qword ptr [rsp + 64], rdx
	mov	qword ptr [rsp + 56], rcx
	mov	rcx, qword ptr [rsp + 56]
.Ltmp49:
	mov	rdx, rcx
	mov	rax, qword ptr [rsp + 64]
	mov	qword ptr [rsp + 48], rcx # 8-byte Spill
	mov	rcx, rdx
	mov	rdx, rax
	call	"??0logic_error@std@@QEAA@$$QEAV01@@Z"
	lea	rcx, [rip + "??_7fail_fast@gsl@@6B@"]
	mov	rdx, qword ptr [rsp + 48] # 8-byte Reload
	mov	qword ptr [rdx], rcx
	mov	qword ptr [rsp + 40], rax # 8-byte Spill
	mov	rax, rdx
	add	rsp, 72
	ret
.Ltmp50:
.Lfunc_end16:
	.seh_handlerdata
	.section	.text,"xr",discard,"??0fail_fast@gsl@@QEAA@$$QEAU01@@Z"
	.seh_endproc
                                        # -- End function
	.def	 "??0fail_fast@gsl@@QEAA@AEBU01@@Z";
	.scl	2;
	.type	32;
	.endef
	.section	.text,"xr",discard,"??0fail_fast@gsl@@QEAA@AEBU01@@Z"
	.globl	"??0fail_fast@gsl@@QEAA@AEBU01@@Z" # -- Begin function ??0fail_fast@gsl@@QEAA@AEBU01@@Z
	.p2align	4, 0x90
"??0fail_fast@gsl@@QEAA@AEBU01@@Z":     # @"??0fail_fast@gsl@@QEAA@AEBU01@@Z"
.Lfunc_begin17:
	.cv_func_id 17
	.cv_loc	17 3 97 0               # ..\include\gsl/gsl_assert:97:0
.seh_proc "??0fail_fast@gsl@@QEAA@AEBU01@@Z"
# %bb.0:
	sub	rsp, 72
	.seh_stackalloc 72
	.seh_endprologue
	mov	qword ptr [rsp + 64], rdx
	mov	qword ptr [rsp + 56], rcx
	mov	rcx, qword ptr [rsp + 56]
.Ltmp51:
	mov	rdx, rcx
	mov	rax, qword ptr [rsp + 64]
	mov	qword ptr [rsp + 48], rcx # 8-byte Spill
	mov	rcx, rdx
	mov	rdx, rax
	call	"??0logic_error@std@@QEAA@AEBV01@@Z"
	lea	rcx, [rip + "??_7fail_fast@gsl@@6B@"]
	mov	rdx, qword ptr [rsp + 48] # 8-byte Reload
	mov	qword ptr [rdx], rcx
	mov	qword ptr [rsp + 40], rax # 8-byte Spill
	mov	rax, rdx
	add	rsp, 72
	ret
.Ltmp52:
.Lfunc_end17:
	.seh_handlerdata
	.section	.text,"xr",discard,"??0fail_fast@gsl@@QEAA@AEBU01@@Z"
	.seh_endproc
                                        # -- End function
	.def	 "??0logic_error@std@@QEAA@AEBV01@@Z";
	.scl	2;
	.type	32;
	.endef
	.section	.text,"xr",discard,"??0logic_error@std@@QEAA@AEBV01@@Z"
	.globl	"??0logic_error@std@@QEAA@AEBV01@@Z" # -- Begin function ??0logic_error@std@@QEAA@AEBV01@@Z
	.p2align	4, 0x90
"??0logic_error@std@@QEAA@AEBV01@@Z":   # @"??0logic_error@std@@QEAA@AEBV01@@Z"
.Lfunc_begin18:
	.cv_func_id 18
	.cv_file	5 "C:\\Program Files (x86)\\Microsoft Visual Studio\\2017\\Community\\VC\\Tools\\MSVC\\14.16.27023\\include\\stdexcept" "2FE06AF7EACFB232C6FF033DBFC4412E" 1
	.cv_loc	18 5 17 0               # C:\Program Files (x86)\Microsoft Visual Studio\2017\Community\VC\Tools\MSVC\14.16.27023\include\stdexcept:17:0
.seh_proc "??0logic_error@std@@QEAA@AEBV01@@Z"
# %bb.0:
	sub	rsp, 72
	.seh_stackalloc 72
	.seh_endprologue
	mov	qword ptr [rsp + 64], rdx
	mov	qword ptr [rsp + 56], rcx
	mov	rcx, qword ptr [rsp + 56]
.Ltmp53:
	mov	rdx, rcx
	mov	rax, qword ptr [rsp + 64]
	mov	qword ptr [rsp + 48], rcx # 8-byte Spill
	mov	rcx, rdx
	mov	rdx, rax
	call	"??0exception@std@@QEAA@AEBV01@@Z"
	lea	rcx, [rip + "??_7logic_error@std@@6B@"]
	mov	rdx, qword ptr [rsp + 48] # 8-byte Reload
	mov	qword ptr [rdx], rcx
	mov	qword ptr [rsp + 40], rax # 8-byte Spill
	mov	rax, rdx
	add	rsp, 72
	ret
.Ltmp54:
.Lfunc_end18:
	.seh_handlerdata
	.section	.text,"xr",discard,"??0logic_error@std@@QEAA@AEBV01@@Z"
	.seh_endproc
                                        # -- End function
	.def	 "??0exception@std@@QEAA@AEBV01@@Z";
	.scl	2;
	.type	32;
	.endef
	.section	.text,"xr",discard,"??0exception@std@@QEAA@AEBV01@@Z"
	.globl	"??0exception@std@@QEAA@AEBV01@@Z" # -- Begin function ??0exception@std@@QEAA@AEBV01@@Z
	.p2align	4, 0x90
"??0exception@std@@QEAA@AEBV01@@Z":     # @"??0exception@std@@QEAA@AEBV01@@Z"
.Lfunc_begin19:
	.cv_func_id 19
	.cv_file	6 "C:\\Program Files (x86)\\Microsoft Visual Studio\\2017\\Community\\VC\\Tools\\MSVC\\14.16.27023\\include\\vcruntime_exception.h" "6C163BAA92D5C81892AD5480D109CCEE" 1
	.cv_loc	19 6 68 0               # C:\Program Files (x86)\Microsoft Visual Studio\2017\Community\VC\Tools\MSVC\14.16.27023\include\vcruntime_exception.h:68:0
.seh_proc "??0exception@std@@QEAA@AEBV01@@Z"
# %bb.0:
	sub	rsp, 72
	.seh_stackalloc 72
	.seh_endprologue
	xor	eax, eax
	mov	r8d, 16
                                        # kill: def $r8 killed $r8d
	lea	r9, [rip + "??_7exception@std@@6B@"]
	mov	qword ptr [rsp + 64], rdx
	mov	qword ptr [rsp + 56], rcx
	mov	rcx, qword ptr [rsp + 56]
.Ltmp55:
	mov	qword ptr [rcx], r9
	mov	rdx, rcx
	add	rdx, 8
	mov	qword ptr [rsp + 48], rcx # 8-byte Spill
	mov	rcx, rdx
	mov	edx, eax
	call	memset
.Ltmp56:
	.cv_loc	19 6 69 0               # C:\Program Files (x86)\Microsoft Visual Studio\2017\Community\VC\Tools\MSVC\14.16.27023\include\vcruntime_exception.h:69:0
	mov	rcx, qword ptr [rsp + 48] # 8-byte Reload
	add	rcx, 8
	mov	r8, qword ptr [rsp + 64]
	add	r8, 8
	mov	qword ptr [rsp + 40], rcx # 8-byte Spill
	mov	rcx, r8
	mov	rdx, qword ptr [rsp + 40] # 8-byte Reload
	call	__std_exception_copy
.Ltmp57:
	.cv_loc	19 6 70 0               # C:\Program Files (x86)\Microsoft Visual Studio\2017\Community\VC\Tools\MSVC\14.16.27023\include\vcruntime_exception.h:70:0
	mov	rax, qword ptr [rsp + 48] # 8-byte Reload
	add	rsp, 72
	ret
.Ltmp58:
.Lfunc_end19:
	.seh_handlerdata
	.section	.text,"xr",discard,"??0exception@std@@QEAA@AEBV01@@Z"
	.seh_endproc
                                        # -- End function
	.def	 "??0logic_error@std@@QEAA@$$QEAV01@@Z";
	.scl	2;
	.type	32;
	.endef
	.section	.text,"xr",discard,"??0logic_error@std@@QEAA@$$QEAV01@@Z"
	.globl	"??0logic_error@std@@QEAA@$$QEAV01@@Z" # -- Begin function ??0logic_error@std@@QEAA@$$QEAV01@@Z
	.p2align	4, 0x90
"??0logic_error@std@@QEAA@$$QEAV01@@Z": # @"??0logic_error@std@@QEAA@$$QEAV01@@Z"
.Lfunc_begin20:
	.cv_func_id 20
	.cv_loc	20 5 17 0               # C:\Program Files (x86)\Microsoft Visual Studio\2017\Community\VC\Tools\MSVC\14.16.27023\include\stdexcept:17:0
.seh_proc "??0logic_error@std@@QEAA@$$QEAV01@@Z"
# %bb.0:
	sub	rsp, 72
	.seh_stackalloc 72
	.seh_endprologue
	mov	qword ptr [rsp + 64], rdx
	mov	qword ptr [rsp + 56], rcx
	mov	rcx, qword ptr [rsp + 56]
.Ltmp59:
	mov	rdx, rcx
	mov	rax, qword ptr [rsp + 64]
	mov	qword ptr [rsp + 48], rcx # 8-byte Spill
	mov	rcx, rdx
	mov	rdx, rax
	call	"??0exception@std@@QEAA@AEBV01@@Z"
	lea	rcx, [rip + "??_7logic_error@std@@6B@"]
	mov	rdx, qword ptr [rsp + 48] # 8-byte Reload
	mov	qword ptr [rdx], rcx
	mov	qword ptr [rsp + 40], rax # 8-byte Spill
	mov	rax, rdx
	add	rsp, 72
	ret
.Ltmp60:
.Lfunc_end20:
	.seh_handlerdata
	.section	.text,"xr",discard,"??0logic_error@std@@QEAA@$$QEAV01@@Z"
	.seh_endproc
                                        # -- End function
	.def	 "??_Gfail_fast@gsl@@UEAAPEAXI@Z";
	.scl	2;
	.type	32;
	.endef
	.section	.text,"xr",discard,"??_Gfail_fast@gsl@@UEAAPEAXI@Z"
	.globl	"??_Gfail_fast@gsl@@UEAAPEAXI@Z" # -- Begin function ??_Gfail_fast@gsl@@UEAAPEAXI@Z
	.p2align	4, 0x90
"??_Gfail_fast@gsl@@UEAAPEAXI@Z":       # @"??_Gfail_fast@gsl@@UEAAPEAXI@Z"
.Lfunc_begin21:
	.cv_func_id 21
	.cv_loc	21 3 97 0               # ..\include\gsl/gsl_assert:97:0
.seh_proc "??_Gfail_fast@gsl@@UEAAPEAXI@Z"
# %bb.0:
	sub	rsp, 72
	.seh_stackalloc 72
	.seh_endprologue
	mov	dword ptr [rsp + 60], edx
	mov	qword ptr [rsp + 48], rcx
	mov	rcx, qword ptr [rsp + 48]
	mov	rax, rcx
	mov	qword ptr [rsp + 64], rax
	mov	edx, dword ptr [rsp + 60]
.Ltmp61:
	mov	qword ptr [rsp + 40], rcx # 8-byte Spill
	mov	dword ptr [rsp + 36], edx # 4-byte Spill
	call	"??1fail_fast@gsl@@UEAA@XZ"
	mov	edx, dword ptr [rsp + 36] # 4-byte Reload
	cmp	edx, 0
	je	.LBB21_2
# %bb.1:
	mov	rax, qword ptr [rsp + 40] # 8-byte Reload
	mov	rcx, rax
	call	"??3@YAXPEAX@Z"
.LBB21_2:
	mov	rax, qword ptr [rsp + 64]
	add	rsp, 72
	ret
.Ltmp62:
.Lfunc_end21:
	.seh_handlerdata
	.section	.text,"xr",discard,"??_Gfail_fast@gsl@@UEAAPEAXI@Z"
	.seh_endproc
                                        # -- End function
	.def	 "?what@exception@std@@UEBAPEBDXZ";
	.scl	2;
	.type	32;
	.endef
	.section	.text,"xr",discard,"?what@exception@std@@UEBAPEBDXZ"
	.globl	"?what@exception@std@@UEBAPEBDXZ" # -- Begin function ?what@exception@std@@UEBAPEBDXZ
	.p2align	4, 0x90
"?what@exception@std@@UEBAPEBDXZ":      # @"?what@exception@std@@UEBAPEBDXZ"
.Lfunc_begin22:
	.cv_func_id 22
	.cv_loc	22 6 90 0               # C:\Program Files (x86)\Microsoft Visual Studio\2017\Community\VC\Tools\MSVC\14.16.27023\include\vcruntime_exception.h:90:0
.seh_proc "?what@exception@std@@UEBAPEBDXZ"
# %bb.0:
	sub	rsp, 24
	.seh_stackalloc 24
	.seh_endprologue
	mov	qword ptr [rsp + 16], rcx
	mov	rcx, qword ptr [rsp + 16]
.Ltmp63:
	.cv_loc	22 6 91 0               # C:\Program Files (x86)\Microsoft Visual Studio\2017\Community\VC\Tools\MSVC\14.16.27023\include\vcruntime_exception.h:91:0
	cmp	qword ptr [rcx + 8], 0
	mov	qword ptr [rsp + 8], rcx # 8-byte Spill
	je	.LBB22_2
# %bb.1:
	mov	rax, qword ptr [rsp + 8] # 8-byte Reload
	mov	rcx, qword ptr [rax + 8]
	mov	qword ptr [rsp], rcx    # 8-byte Spill
	jmp	.LBB22_3
.LBB22_2:
	lea	rax, [rip + "??_C@_0BC@EOODALEL@Unknown?5exception?$AA@"]
	mov	qword ptr [rsp], rax    # 8-byte Spill
	jmp	.LBB22_3
.LBB22_3:
	mov	rax, qword ptr [rsp]    # 8-byte Reload
	add	rsp, 24
	ret
.Ltmp64:
.Lfunc_end22:
	.seh_handlerdata
	.section	.text,"xr",discard,"?what@exception@std@@UEBAPEBDXZ"
	.seh_endproc
                                        # -- End function
	.def	 "??_Glogic_error@std@@UEAAPEAXI@Z";
	.scl	2;
	.type	32;
	.endef
	.section	.text,"xr",discard,"??_Glogic_error@std@@UEAAPEAXI@Z"
	.globl	"??_Glogic_error@std@@UEAAPEAXI@Z" # -- Begin function ??_Glogic_error@std@@UEAAPEAXI@Z
	.p2align	4, 0x90
"??_Glogic_error@std@@UEAAPEAXI@Z":     # @"??_Glogic_error@std@@UEAAPEAXI@Z"
.Lfunc_begin23:
	.cv_func_id 23
	.cv_loc	23 5 17 0               # C:\Program Files (x86)\Microsoft Visual Studio\2017\Community\VC\Tools\MSVC\14.16.27023\include\stdexcept:17:0
.seh_proc "??_Glogic_error@std@@UEAAPEAXI@Z"
# %bb.0:
	sub	rsp, 72
	.seh_stackalloc 72
	.seh_endprologue
	mov	dword ptr [rsp + 60], edx
	mov	qword ptr [rsp + 48], rcx
	mov	rcx, qword ptr [rsp + 48]
	mov	rax, rcx
	mov	qword ptr [rsp + 64], rax
	mov	edx, dword ptr [rsp + 60]
.Ltmp65:
	mov	qword ptr [rsp + 40], rcx # 8-byte Spill
	mov	dword ptr [rsp + 36], edx # 4-byte Spill
	call	"??1logic_error@std@@UEAA@XZ"
	mov	edx, dword ptr [rsp + 36] # 4-byte Reload
	cmp	edx, 0
	je	.LBB23_2
# %bb.1:
	mov	rax, qword ptr [rsp + 40] # 8-byte Reload
	mov	rcx, rax
	call	"??3@YAXPEAX@Z"
.LBB23_2:
	mov	rax, qword ptr [rsp + 64]
	add	rsp, 72
	ret
.Ltmp66:
.Lfunc_end23:
	.seh_handlerdata
	.section	.text,"xr",discard,"??_Glogic_error@std@@UEAAPEAXI@Z"
	.seh_endproc
                                        # -- End function
	.def	 "??1logic_error@std@@UEAA@XZ";
	.scl	2;
	.type	32;
	.endef
	.section	.text,"xr",discard,"??1logic_error@std@@UEAA@XZ"
	.globl	"??1logic_error@std@@UEAA@XZ" # -- Begin function ??1logic_error@std@@UEAA@XZ
	.p2align	4, 0x90
"??1logic_error@std@@UEAA@XZ":          # @"??1logic_error@std@@UEAA@XZ"
.Lfunc_begin24:
	.cv_func_id 24
	.cv_loc	24 5 17 0               # C:\Program Files (x86)\Microsoft Visual Studio\2017\Community\VC\Tools\MSVC\14.16.27023\include\stdexcept:17:0
.seh_proc "??1logic_error@std@@UEAA@XZ"
# %bb.0:
	sub	rsp, 40
	.seh_stackalloc 40
	.seh_endprologue
	mov	qword ptr [rsp + 32], rcx
	mov	rcx, qword ptr [rsp + 32]
.Ltmp67:
	.cv_loc	24 5 17 0               # C:\Program Files (x86)\Microsoft Visual Studio\2017\Community\VC\Tools\MSVC\14.16.27023\include\stdexcept:17:0
	call	"??1exception@std@@UEAA@XZ"
.Ltmp68:
	.cv_loc	24 5 17 0               # C:\Program Files (x86)\Microsoft Visual Studio\2017\Community\VC\Tools\MSVC\14.16.27023\include\stdexcept:17:0
	nop
	add	rsp, 40
	ret
.Ltmp69:
.Lfunc_end24:
	.seh_handlerdata
	.section	.text,"xr",discard,"??1logic_error@std@@UEAA@XZ"
	.seh_endproc
                                        # -- End function
	.def	 "??1exception@std@@UEAA@XZ";
	.scl	2;
	.type	32;
	.endef
	.section	.text,"xr",discard,"??1exception@std@@UEAA@XZ"
	.globl	"??1exception@std@@UEAA@XZ" # -- Begin function ??1exception@std@@UEAA@XZ
	.p2align	4, 0x90
"??1exception@std@@UEAA@XZ":            # @"??1exception@std@@UEAA@XZ"
.Lfunc_begin25:
	.cv_func_id 25
	.cv_loc	25 6 85 0               # C:\Program Files (x86)\Microsoft Visual Studio\2017\Community\VC\Tools\MSVC\14.16.27023\include\vcruntime_exception.h:85:0
.seh_proc "??1exception@std@@UEAA@XZ"
# %bb.0:
	sub	rsp, 40
	.seh_stackalloc 40
	.seh_endprologue
	lea	rax, [rip + "??_7exception@std@@6B@"]
	mov	qword ptr [rsp + 32], rcx
	mov	rcx, qword ptr [rsp + 32]
.Ltmp70:
	mov	qword ptr [rcx], rax
.Ltmp71:
	.cv_loc	25 6 86 0               # C:\Program Files (x86)\Microsoft Visual Studio\2017\Community\VC\Tools\MSVC\14.16.27023\include\vcruntime_exception.h:86:0
	add	rcx, 8
	call	__std_exception_destroy
.Ltmp72:
	.cv_loc	25 6 87 0               # C:\Program Files (x86)\Microsoft Visual Studio\2017\Community\VC\Tools\MSVC\14.16.27023\include\vcruntime_exception.h:87:0
	nop
	add	rsp, 40
	ret
.Ltmp73:
.Lfunc_end25:
	.seh_handlerdata
	.section	.text,"xr",discard,"??1exception@std@@UEAA@XZ"
	.seh_endproc
                                        # -- End function
	.def	 "??_Gexception@std@@UEAAPEAXI@Z";
	.scl	2;
	.type	32;
	.endef
	.section	.text,"xr",discard,"??_Gexception@std@@UEAAPEAXI@Z"
	.globl	"??_Gexception@std@@UEAAPEAXI@Z" # -- Begin function ??_Gexception@std@@UEAAPEAXI@Z
	.p2align	4, 0x90
"??_Gexception@std@@UEAAPEAXI@Z":       # @"??_Gexception@std@@UEAAPEAXI@Z"
.Lfunc_begin26:
	.cv_func_id 26
	.cv_loc	26 6 85 0               # C:\Program Files (x86)\Microsoft Visual Studio\2017\Community\VC\Tools\MSVC\14.16.27023\include\vcruntime_exception.h:85:0
.seh_proc "??_Gexception@std@@UEAAPEAXI@Z"
# %bb.0:
	sub	rsp, 72
	.seh_stackalloc 72
	.seh_endprologue
	mov	dword ptr [rsp + 60], edx
	mov	qword ptr [rsp + 48], rcx
	mov	rcx, qword ptr [rsp + 48]
	mov	rax, rcx
	mov	qword ptr [rsp + 64], rax
	mov	edx, dword ptr [rsp + 60]
.Ltmp74:
	mov	qword ptr [rsp + 40], rcx # 8-byte Spill
	mov	dword ptr [rsp + 36], edx # 4-byte Spill
	call	"??1exception@std@@UEAA@XZ"
	mov	edx, dword ptr [rsp + 36] # 4-byte Reload
	cmp	edx, 0
	je	.LBB26_2
# %bb.1:
	mov	rax, qword ptr [rsp + 40] # 8-byte Reload
	mov	rcx, rax
	call	"??3@YAXPEAX@Z"
.LBB26_2:
	.cv_loc	26 6 87 0               # C:\Program Files (x86)\Microsoft Visual Studio\2017\Community\VC\Tools\MSVC\14.16.27023\include\vcruntime_exception.h:87:0
	mov	rax, qword ptr [rsp + 64]
	add	rsp, 72
	ret
.Ltmp75:
.Lfunc_end26:
	.seh_handlerdata
	.section	.text,"xr",discard,"??_Gexception@std@@UEAAPEAXI@Z"
	.seh_endproc
                                        # -- End function
	.def	 "??0logic_error@std@@QEAA@PEBD@Z";
	.scl	2;
	.type	32;
	.endef
	.section	.text,"xr",discard,"??0logic_error@std@@QEAA@PEBD@Z"
	.globl	"??0logic_error@std@@QEAA@PEBD@Z" # -- Begin function ??0logic_error@std@@QEAA@PEBD@Z
	.p2align	4, 0x90
"??0logic_error@std@@QEAA@PEBD@Z":      # @"??0logic_error@std@@QEAA@PEBD@Z"
.Lfunc_begin27:
	.cv_func_id 27
	.cv_loc	27 5 30 0               # C:\Program Files (x86)\Microsoft Visual Studio\2017\Community\VC\Tools\MSVC\14.16.27023\include\stdexcept:30:0
.seh_proc "??0logic_error@std@@QEAA@PEBD@Z"
# %bb.0:
	sub	rsp, 72
	.seh_stackalloc 72
	.seh_endprologue
	mov	qword ptr [rsp + 64], rdx
	mov	qword ptr [rsp + 56], rcx
	mov	rcx, qword ptr [rsp + 56]
.Ltmp76:
	mov	rdx, rcx
	mov	rax, qword ptr [rsp + 64]
	mov	qword ptr [rsp + 48], rcx # 8-byte Spill
	mov	rcx, rdx
	mov	rdx, rax
	call	"??0exception@std@@QEAA@QEBD@Z"
	lea	rcx, [rip + "??_7logic_error@std@@6B@"]
	mov	rdx, qword ptr [rsp + 48] # 8-byte Reload
	mov	qword ptr [rdx], rcx
	.cv_loc	27 5 31 0               # C:\Program Files (x86)\Microsoft Visual Studio\2017\Community\VC\Tools\MSVC\14.16.27023\include\stdexcept:31:0
	mov	qword ptr [rsp + 40], rax # 8-byte Spill
	mov	rax, rdx
	add	rsp, 72
	ret
.Ltmp77:
.Lfunc_end27:
	.seh_handlerdata
	.section	.text,"xr",discard,"??0logic_error@std@@QEAA@PEBD@Z"
	.seh_endproc
                                        # -- End function
	.def	 "??0exception@std@@QEAA@QEBD@Z";
	.scl	2;
	.type	32;
	.endef
	.section	.text,"xr",discard,"??0exception@std@@QEAA@QEBD@Z"
	.globl	"??0exception@std@@QEAA@QEBD@Z" # -- Begin function ??0exception@std@@QEAA@QEBD@Z
	.p2align	4, 0x90
"??0exception@std@@QEAA@QEBD@Z":        # @"??0exception@std@@QEAA@QEBD@Z"
.Lfunc_begin28:
	.cv_func_id 28
	.cv_loc	28 6 55 0               # C:\Program Files (x86)\Microsoft Visual Studio\2017\Community\VC\Tools\MSVC\14.16.27023\include\vcruntime_exception.h:55:0
.seh_proc "??0exception@std@@QEAA@QEBD@Z"
# %bb.0:
	sub	rsp, 88
	.seh_stackalloc 88
	.seh_endprologue
	xor	eax, eax
	mov	r8d, 16
                                        # kill: def $r8 killed $r8d
	lea	r9, [rip + "??_7exception@std@@6B@"]
	mov	r10, qword ptr [rip + __security_cookie]
	xor	r10, rsp
	mov	qword ptr [rsp + 80], r10
	mov	qword ptr [rsp + 56], rdx
	mov	qword ptr [rsp + 48], rcx
	mov	rcx, qword ptr [rsp + 48]
.Ltmp78:
	mov	qword ptr [rcx], r9
	mov	rdx, rcx
	add	rdx, 8
	mov	qword ptr [rsp + 40], rcx # 8-byte Spill
	mov	rcx, rdx
	mov	edx, eax
	call	memset
.Ltmp79:
	.cv_loc	28 6 56 0               # C:\Program Files (x86)\Microsoft Visual Studio\2017\Community\VC\Tools\MSVC\14.16.27023\include\vcruntime_exception.h:56:0
	mov	rcx, qword ptr [rsp + 56]
	mov	qword ptr [rsp + 64], rcx
	mov	byte ptr [rsp + 72], 1
	.cv_loc	28 6 57 0               # C:\Program Files (x86)\Microsoft Visual Studio\2017\Community\VC\Tools\MSVC\14.16.27023\include\vcruntime_exception.h:57:0
	mov	rcx, qword ptr [rsp + 40] # 8-byte Reload
	add	rcx, 8
	lea	r8, [rsp + 64]
.Ltmp80:
	#DEBUG_VALUE: _InitData <- [$r8+0]
	mov	qword ptr [rsp + 32], rcx # 8-byte Spill
	mov	rcx, r8
	mov	rdx, qword ptr [rsp + 32] # 8-byte Reload
	call	__std_exception_copy
.Ltmp81:
	mov	rcx, qword ptr [rsp + 80]
	xor	rcx, rsp
	call	__security_check_cookie
.Ltmp82:
	.cv_loc	28 6 58 0               # C:\Program Files (x86)\Microsoft Visual Studio\2017\Community\VC\Tools\MSVC\14.16.27023\include\vcruntime_exception.h:58:0
	mov	rax, qword ptr [rsp + 40] # 8-byte Reload
	add	rsp, 88
	ret
.Ltmp83:
.Lfunc_end28:
	.seh_handlerdata
	.section	.text,"xr",discard,"??0exception@std@@QEAA@QEBD@Z"
	.seh_endproc
                                        # -- End function
	.def	 "?data@?$storage_type@V?$extent_type@$0?0@details@gsl@@@?$span@H$0?0@gsl@@QEBAPEAHXZ";
	.scl	2;
	.type	32;
	.endef
	.section	.text,"xr",discard,"?data@?$storage_type@V?$extent_type@$0?0@details@gsl@@@?$span@H$0?0@gsl@@QEBAPEAHXZ"
	.globl	"?data@?$storage_type@V?$extent_type@$0?0@details@gsl@@@?$span@H$0?0@gsl@@QEBAPEAHXZ" # -- Begin function ?data@?$storage_type@V?$extent_type@$0?0@details@gsl@@@?$span@H$0?0@gsl@@QEBAPEAHXZ
	.p2align	4, 0x90
"?data@?$storage_type@V?$extent_type@$0?0@details@gsl@@@?$span@H$0?0@gsl@@QEBAPEAHXZ": # @"?data@?$storage_type@V?$extent_type@$0?0@details@gsl@@@?$span@H$0?0@gsl@@QEBAPEAHXZ"
.Lfunc_begin29:
	.cv_func_id 29
	.cv_loc	29 2 602 0              # ..\include\gsl/span:602:0
.seh_proc "?data@?$storage_type@V?$extent_type@$0?0@details@gsl@@@?$span@H$0?0@gsl@@QEBAPEAHXZ"
# %bb.0:
	push	rax
	.seh_stackalloc 8
	.seh_endprologue
	mov	qword ptr [rsp], rcx
	mov	rcx, qword ptr [rsp]
.Ltmp84:
	mov	rax, qword ptr [rcx + 8]
	pop	rcx
	ret
.Ltmp85:
.Lfunc_end29:
	.seh_handlerdata
	.section	.text,"xr",discard,"?data@?$storage_type@V?$extent_type@$0?0@details@gsl@@@?$span@H$0?0@gsl@@QEBAPEAHXZ"
	.seh_endproc
                                        # -- End function
	.def	 "??$?0V?$extent_type@$0A@@details@gsl@@@?$storage_type@V?$extent_type@$0?0@details@gsl@@@?$span@$$CBH$0?0@gsl@@QEAA@PEBHV?$extent_type@$0A@@details@2@@Z";
	.scl	2;
	.type	32;
	.endef
	.section	.text,"xr",discard,"??$?0V?$extent_type@$0A@@details@gsl@@@?$storage_type@V?$extent_type@$0?0@details@gsl@@@?$span@$$CBH$0?0@gsl@@QEAA@PEBHV?$extent_type@$0A@@details@2@@Z"
	.globl	"??$?0V?$extent_type@$0A@@details@gsl@@@?$storage_type@V?$extent_type@$0?0@details@gsl@@@?$span@$$CBH$0?0@gsl@@QEAA@PEBHV?$extent_type@$0A@@details@2@@Z" # -- Begin function ??$?0V?$extent_type@$0A@@details@gsl@@@?$storage_type@V?$extent_type@$0?0@details@gsl@@@?$span@$$CBH$0?0@gsl@@QEAA@PEBHV?$extent_type@$0A@@details@2@@Z
	.p2align	4, 0x90
"??$?0V?$extent_type@$0A@@details@gsl@@@?$storage_type@V?$extent_type@$0?0@details@gsl@@@?$span@$$CBH$0?0@gsl@@QEAA@PEBHV?$extent_type@$0A@@details@2@@Z": # @"??$?0V?$extent_type@$0A@@details@gsl@@@?$storage_type@V?$extent_type@$0?0@details@gsl@@@?$span@$$CBH$0?0@gsl@@QEAA@PEBHV?$extent_type@$0A@@details@2@@Z"
.Lfunc_begin30:
	.cv_func_id 30
	.cv_loc	30 2 597 0              # ..\include\gsl/span:597:0
.seh_proc "??$?0V?$extent_type@$0A@@details@gsl@@@?$storage_type@V?$extent_type@$0?0@details@gsl@@@?$span@$$CBH$0?0@gsl@@QEAA@PEBHV?$extent_type@$0A@@details@2@@Z"
	.seh_handler __CxxFrameHandler3, @unwind, @except
# %bb.0:
	push	rbp
	.seh_pushreg 5
	sub	rsp, 208
	.seh_stackalloc 208
	lea	rbp, [rsp + 128]
	.seh_setframe 5, 128
	.seh_endprologue
	mov	qword ptr [rbp + 72], -2
	mov	byte ptr [rbp + 56], r8b
	mov	qword ptr [rbp + 48], rdx
	mov	qword ptr [rbp + 40], rcx
	mov	rcx, qword ptr [rbp + 40]
	mov	qword ptr [rbp + 64], rcx
.Ltmp90:
	mov	rdx, rcx
	mov	r8b, byte ptr [rbp + 32]
	mov	qword ptr [rbp - 40], rcx # 8-byte Spill
	mov	rcx, rdx
	mov	dl, r8b
	call	"??$?0$0A@@?$extent_type@$0?0@details@gsl@@QEAA@V?$extent_type@$0A@@12@@Z"
	mov	rcx, qword ptr [rbp + 48]
	mov	r9, qword ptr [rbp - 40] # 8-byte Reload
	mov	qword ptr [r9 + 8], rcx
.Ltmp91:
	.cv_loc	30 2 598 0              # ..\include\gsl/span:598:0
	mov	rcx, r9
	mov	qword ptr [rbp - 48], rax # 8-byte Spill
	call	"?size@?$extent_type@$0?0@details@gsl@@QEBA_JXZ"
	cmp	rax, 0
	setge	dl
	mov	byte ptr [rbp + 7], 0
	test	dl, 1
	jne	.LBB30_1
	jmp	.LBB30_2
.LBB30_1:
	test	byte ptr [rbp + 7], 1
	jne	.LBB30_4
	jmp	.LBB30_5
.LBB30_2:
	lea	rdx, [rip + "??_C@_0DG@PPPKJHO@GSL?3?5Precondition?5failure?5at?5?4?4?2@"]
	lea	rax, [rbp + 8]
	mov	rcx, rax
	mov	qword ptr [rbp - 56], rax # 8-byte Spill
	call	"??0fail_fast@gsl@@QEAA@QEBD@Z"
	mov	byte ptr [rbp + 7], 1
.Ltmp86:
	mov	rcx, qword ptr [rbp - 56] # 8-byte Reload
	mov	qword ptr [rbp - 64], rax # 8-byte Spill
	call	"??$throw_exception@Ufail_fast@gsl@@@details@gsl@@YAX$$QEAUfail_fast@1@@Z"
.Ltmp87:
	jmp	.LBB30_3
.LBB30_3:
	ud2
.LBB30_4:
	lea	rcx, [rbp + 8]
	call	"??1fail_fast@gsl@@UEAA@XZ"
.LBB30_5:
	.cv_loc	30 2 599 0              # ..\include\gsl/span:599:0
	mov	rax, qword ptr [rbp + 48]
	mov	byte ptr [rbp - 25], 0
	cmp	rax, 0
	mov	cl, 1
	mov	byte ptr [rbp - 65], cl # 1-byte Spill
	jne	.LBB30_7
# %bb.6:
	mov	rax, qword ptr [rbp - 40] # 8-byte Reload
	mov	rcx, rax
	call	"?size@?$extent_type@$0?0@details@gsl@@QEBA_JXZ"
	cmp	rax, 0
	sete	dl
	mov	byte ptr [rbp - 65], dl # 1-byte Spill
.LBB30_7:
	mov	al, byte ptr [rbp - 65] # 1-byte Reload
	test	al, 1
	jne	.LBB30_8
	jmp	.LBB30_9
.LBB30_8:
	test	byte ptr [rbp - 25], 1
	jne	.LBB30_14
	jmp	.LBB30_15
.LBB30_9:
	lea	rdx, [rip + "??_C@_0DG@BGOEJIDP@GSL?3?5Precondition?5failure?5at?5?4?4?2@"]
	lea	rax, [rbp - 24]
	mov	rcx, rax
	mov	qword ptr [rbp - 80], rax # 8-byte Spill
	call	"??0fail_fast@gsl@@QEAA@QEBD@Z"
	mov	byte ptr [rbp - 25], 1
.Ltmp88:
	mov	rcx, qword ptr [rbp - 80] # 8-byte Reload
	mov	qword ptr [rbp - 88], rax # 8-byte Spill
	call	"??$throw_exception@Ufail_fast@gsl@@@details@gsl@@YAX$$QEAUfail_fast@1@@Z"
.Ltmp89:
	jmp	.LBB30_10
.LBB30_10:
	ud2
.LBB30_14:
	lea	rcx, [rbp - 24]
	call	"??1fail_fast@gsl@@UEAA@XZ"
.Ltmp92:
.LBB30_15:
	.cv_loc	30 2 600 0              # ..\include\gsl/span:600:0
	mov	rax, qword ptr [rbp + 64]
	add	rsp, 208
	pop	rbp
	ret
	.seh_handlerdata
	.long	("$cppxdata$??$?0V?$extent_type@$0A@@details@gsl@@@?$storage_type@V?$extent_type@$0?0@details@gsl@@@?$span@$$CBH$0?0@gsl@@QEAA@PEBHV?$extent_type@$0A@@details@2@@Z")@IMGREL
	.section	.text,"xr",discard,"??$?0V?$extent_type@$0A@@details@gsl@@@?$storage_type@V?$extent_type@$0?0@details@gsl@@@?$span@$$CBH$0?0@gsl@@QEAA@PEBHV?$extent_type@$0A@@details@2@@Z"
	.seh_endproc
	.def	 "?dtor$11@?0???$?0V?$extent_type@$0A@@details@gsl@@@?$storage_type@V?$extent_type@$0?0@details@gsl@@@?$span@$$CBH$0?0@gsl@@QEAA@PEBHV?$extent_type@$0A@@details@2@@Z@4HA";
	.scl	3;
	.type	32;
	.endef
	.p2align	4, 0x90
"?dtor$11@?0???$?0V?$extent_type@$0A@@details@gsl@@@?$storage_type@V?$extent_type@$0?0@details@gsl@@@?$span@$$CBH$0?0@gsl@@QEAA@PEBHV?$extent_type@$0A@@details@2@@Z@4HA":
.seh_proc "?dtor$11@?0???$?0V?$extent_type@$0A@@details@gsl@@@?$storage_type@V?$extent_type@$0?0@details@gsl@@@?$span@$$CBH$0?0@gsl@@QEAA@PEBHV?$extent_type@$0A@@details@2@@Z@4HA"
.LBB30_11:
	mov	qword ptr [rsp + 16], rdx
	push	rbp
	.seh_pushreg 5
	sub	rsp, 32
	.seh_stackalloc 32
	lea	rbp, [rdx + 128]
	.seh_endprologue
.Ltmp93:
	.cv_loc	30 2 598 0              # ..\include\gsl/span:598:0
	test	byte ptr [rbp + 7], 1
	jne	.LBB30_12
	jmp	.LBB30_13
.LBB30_12:
	lea	rcx, [rbp + 8]
	call	"??1fail_fast@gsl@@UEAA@XZ"
.LBB30_13:
	nop
	add	rsp, 32
	pop	rbp
	ret                             # CLEANUPRET
	.seh_handlerdata
	.section	.text,"xr",discard,"??$?0V?$extent_type@$0A@@details@gsl@@@?$storage_type@V?$extent_type@$0?0@details@gsl@@@?$span@$$CBH$0?0@gsl@@QEAA@PEBHV?$extent_type@$0A@@details@2@@Z"
	.seh_endproc
	.def	 "?dtor$16@?0???$?0V?$extent_type@$0A@@details@gsl@@@?$storage_type@V?$extent_type@$0?0@details@gsl@@@?$span@$$CBH$0?0@gsl@@QEAA@PEBHV?$extent_type@$0A@@details@2@@Z@4HA";
	.scl	3;
	.type	32;
	.endef
	.p2align	4, 0x90
"?dtor$16@?0???$?0V?$extent_type@$0A@@details@gsl@@@?$storage_type@V?$extent_type@$0?0@details@gsl@@@?$span@$$CBH$0?0@gsl@@QEAA@PEBHV?$extent_type@$0A@@details@2@@Z@4HA":
.seh_proc "?dtor$16@?0???$?0V?$extent_type@$0A@@details@gsl@@@?$storage_type@V?$extent_type@$0?0@details@gsl@@@?$span@$$CBH$0?0@gsl@@QEAA@PEBHV?$extent_type@$0A@@details@2@@Z@4HA"
.LBB30_16:
	mov	qword ptr [rsp + 16], rdx
	push	rbp
	.seh_pushreg 5
	sub	rsp, 32
	.seh_stackalloc 32
	lea	rbp, [rdx + 128]
	.seh_endprologue
	.cv_loc	30 2 599 0              # ..\include\gsl/span:599:0
	test	byte ptr [rbp - 25], 1
	jne	.LBB30_17
	jmp	.LBB30_18
.LBB30_17:
	lea	rcx, [rbp - 24]
	call	"??1fail_fast@gsl@@UEAA@XZ"
.LBB30_18:
	nop
	add	rsp, 32
	pop	rbp
	ret                             # CLEANUPRET
.Ltmp94:
.Lfunc_end30:
	.seh_handlerdata
	.section	.text,"xr",discard,"??$?0V?$extent_type@$0A@@details@gsl@@@?$storage_type@V?$extent_type@$0?0@details@gsl@@@?$span@$$CBH$0?0@gsl@@QEAA@PEBHV?$extent_type@$0A@@details@2@@Z"
	.seh_endproc
	.section	.xdata,"dr",associative,"??$?0V?$extent_type@$0A@@details@gsl@@@?$storage_type@V?$extent_type@$0?0@details@gsl@@@?$span@$$CBH$0?0@gsl@@QEAA@PEBHV?$extent_type@$0A@@details@2@@Z"
	.p2align	2
"$cppxdata$??$?0V?$extent_type@$0A@@details@gsl@@@?$storage_type@V?$extent_type@$0?0@details@gsl@@@?$span@$$CBH$0?0@gsl@@QEAA@PEBHV?$extent_type@$0A@@details@2@@Z":
	.long	429065506               # MagicNumber
	.long	2                       # MaxState
	.long	("$stateUnwindMap$??$?0V?$extent_type@$0A@@details@gsl@@@?$storage_type@V?$extent_type@$0?0@details@gsl@@@?$span@$$CBH$0?0@gsl@@QEAA@PEBHV?$extent_type@$0A@@details@2@@Z")@IMGREL # UnwindMap
	.long	0                       # NumTryBlocks
	.long	0                       # TryBlockMap
	.long	5                       # IPMapEntries
	.long	("$ip2state$??$?0V?$extent_type@$0A@@details@gsl@@@?$storage_type@V?$extent_type@$0?0@details@gsl@@@?$span@$$CBH$0?0@gsl@@QEAA@PEBHV?$extent_type@$0A@@details@2@@Z")@IMGREL # IPToStateXData
	.long	200                     # UnwindHelp
	.long	0                       # ESTypeList
	.long	1                       # EHFlags
"$stateUnwindMap$??$?0V?$extent_type@$0A@@details@gsl@@@?$storage_type@V?$extent_type@$0?0@details@gsl@@@?$span@$$CBH$0?0@gsl@@QEAA@PEBHV?$extent_type@$0A@@details@2@@Z":
	.long	-1                      # ToState
	.long	"?dtor$11@?0???$?0V?$extent_type@$0A@@details@gsl@@@?$storage_type@V?$extent_type@$0?0@details@gsl@@@?$span@$$CBH$0?0@gsl@@QEAA@PEBHV?$extent_type@$0A@@details@2@@Z@4HA"@IMGREL # Action
	.long	-1                      # ToState
	.long	"?dtor$16@?0???$?0V?$extent_type@$0A@@details@gsl@@@?$storage_type@V?$extent_type@$0?0@details@gsl@@@?$span@$$CBH$0?0@gsl@@QEAA@PEBHV?$extent_type@$0A@@details@2@@Z@4HA"@IMGREL # Action
"$ip2state$??$?0V?$extent_type@$0A@@details@gsl@@@?$storage_type@V?$extent_type@$0?0@details@gsl@@@?$span@$$CBH$0?0@gsl@@QEAA@PEBHV?$extent_type@$0A@@details@2@@Z":
	.long	.Lfunc_begin30@IMGREL   # IP
	.long	-1                      # ToState
	.long	.Ltmp86@IMGREL+1        # IP
	.long	0                       # ToState
	.long	.Ltmp87@IMGREL+1        # IP
	.long	-1                      # ToState
	.long	.Ltmp88@IMGREL+1        # IP
	.long	1                       # ToState
	.long	.Ltmp89@IMGREL+1        # IP
	.long	-1                      # ToState
	.section	.text,"xr",discard,"??$?0V?$extent_type@$0A@@details@gsl@@@?$storage_type@V?$extent_type@$0?0@details@gsl@@@?$span@$$CBH$0?0@gsl@@QEAA@PEBHV?$extent_type@$0A@@details@2@@Z"
                                        # -- End function
	.def	 "?data@?$storage_type@V?$extent_type@$0?0@details@gsl@@@?$span@$$CBH$0?0@gsl@@QEBAPEBHXZ";
	.scl	2;
	.type	32;
	.endef
	.section	.text,"xr",discard,"?data@?$storage_type@V?$extent_type@$0?0@details@gsl@@@?$span@$$CBH$0?0@gsl@@QEBAPEBHXZ"
	.globl	"?data@?$storage_type@V?$extent_type@$0?0@details@gsl@@@?$span@$$CBH$0?0@gsl@@QEBAPEBHXZ" # -- Begin function ?data@?$storage_type@V?$extent_type@$0?0@details@gsl@@@?$span@$$CBH$0?0@gsl@@QEBAPEBHXZ
	.p2align	4, 0x90
"?data@?$storage_type@V?$extent_type@$0?0@details@gsl@@@?$span@$$CBH$0?0@gsl@@QEBAPEBHXZ": # @"?data@?$storage_type@V?$extent_type@$0?0@details@gsl@@@?$span@$$CBH$0?0@gsl@@QEBAPEBHXZ"
.Lfunc_begin31:
	.cv_func_id 31
	.cv_loc	31 2 602 0              # ..\include\gsl/span:602:0
.seh_proc "?data@?$storage_type@V?$extent_type@$0?0@details@gsl@@@?$span@$$CBH$0?0@gsl@@QEBAPEBHXZ"
# %bb.0:
	push	rax
	.seh_stackalloc 8
	.seh_endprologue
	mov	qword ptr [rsp], rcx
	mov	rcx, qword ptr [rsp]
.Ltmp95:
	mov	rax, qword ptr [rcx + 8]
	pop	rcx
	ret
.Ltmp96:
.Lfunc_end31:
	.seh_handlerdata
	.section	.text,"xr",discard,"?data@?$storage_type@V?$extent_type@$0?0@details@gsl@@@?$span@$$CBH$0?0@gsl@@QEBAPEBHXZ"
	.seh_endproc
                                        # -- End function
	.section	.rdata,"dr",discard,"??_C@_0DG@PPPKJHO@GSL?3?5Precondition?5failure?5at?5?4?4?2@"
	.globl	"??_C@_0DG@PPPKJHO@GSL?3?5Precondition?5failure?5at?5?4?4?2@" # @"??_C@_0DG@PPPKJHO@GSL?3?5Precondition?5failure?5at?5?4?4?2@"
"??_C@_0DG@PPPKJHO@GSL?3?5Precondition?5failure?5at?5?4?4?2@":
	.asciz	"GSL: Precondition failure at ..\\include\\gsl/span: 598"

	.section	.rdata,"dr",discard,"??_C@_0DG@BGOEJIDP@GSL?3?5Precondition?5failure?5at?5?4?4?2@"
	.globl	"??_C@_0DG@BGOEJIDP@GSL?3?5Precondition?5failure?5at?5?4?4?2@" # @"??_C@_0DG@BGOEJIDP@GSL?3?5Precondition?5failure?5at?5?4?4?2@"
"??_C@_0DG@BGOEJIDP@GSL?3?5Precondition?5failure?5at?5?4?4?2@":
	.asciz	"GSL: Precondition failure at ..\\include\\gsl/span: 599"

	.section	.data,"dw",discard,"??_R0?AUfail_fast@gsl@@@8"
	.globl	"??_R0?AUfail_fast@gsl@@@8" # @"??_R0?AUfail_fast@gsl@@@8"
	.p2align	4
"??_R0?AUfail_fast@gsl@@@8":
	.quad	"??_7type_info@@6B@"
	.quad	0
	.asciz	".?AUfail_fast@gsl@@"
	.zero	4

	.section	.xdata,"dr",discard,"_CT??_R0?AUfail_fast@gsl@@@824"
	.globl	"_CT??_R0?AUfail_fast@gsl@@@824" # @"_CT??_R0?AUfail_fast@gsl@@@824"
	.p2align	4
"_CT??_R0?AUfail_fast@gsl@@@824":
	.long	0                       # 0x0
	.long	"??_R0?AUfail_fast@gsl@@@8"@IMGREL
	.long	0                       # 0x0
	.long	4294967295              # 0xffffffff
	.long	0                       # 0x0
	.long	24                      # 0x18
	.long	"??0fail_fast@gsl@@QEAA@AEBU01@@Z"@IMGREL

	.section	.data,"dw",discard,"??_R0?AVlogic_error@std@@@8"
	.globl	"??_R0?AVlogic_error@std@@@8" # @"??_R0?AVlogic_error@std@@@8"
	.p2align	4
"??_R0?AVlogic_error@std@@@8":
	.quad	"??_7type_info@@6B@"
	.quad	0
	.asciz	".?AVlogic_error@std@@"
	.zero	2

	.section	.xdata,"dr",discard,"_CT??_R0?AVlogic_error@std@@@824"
	.globl	"_CT??_R0?AVlogic_error@std@@@824" # @"_CT??_R0?AVlogic_error@std@@@824"
	.p2align	4
"_CT??_R0?AVlogic_error@std@@@824":
	.long	0                       # 0x0
	.long	"??_R0?AVlogic_error@std@@@8"@IMGREL
	.long	0                       # 0x0
	.long	4294967295              # 0xffffffff
	.long	0                       # 0x0
	.long	24                      # 0x18
	.long	"??0logic_error@std@@QEAA@AEBV01@@Z"@IMGREL

	.section	.data,"dw",discard,"??_R0?AVexception@std@@@8"
	.globl	"??_R0?AVexception@std@@@8" # @"??_R0?AVexception@std@@@8"
	.p2align	4
"??_R0?AVexception@std@@@8":
	.quad	"??_7type_info@@6B@"
	.quad	0
	.asciz	".?AVexception@std@@"
	.zero	4

	.section	.xdata,"dr",discard,"_CT??_R0?AVexception@std@@@824"
	.globl	"_CT??_R0?AVexception@std@@@824" # @"_CT??_R0?AVexception@std@@@824"
	.p2align	4
"_CT??_R0?AVexception@std@@@824":
	.long	0                       # 0x0
	.long	"??_R0?AVexception@std@@@8"@IMGREL
	.long	0                       # 0x0
	.long	4294967295              # 0xffffffff
	.long	0                       # 0x0
	.long	24                      # 0x18
	.long	"??0exception@std@@QEAA@AEBV01@@Z"@IMGREL

	.section	.xdata,"dr",discard,"_CTA3?AUfail_fast@gsl@@"
	.globl	"_CTA3?AUfail_fast@gsl@@" # @"_CTA3?AUfail_fast@gsl@@"
	.p2align	3
"_CTA3?AUfail_fast@gsl@@":
	.long	3                       # 0x3
	.long	"_CT??_R0?AUfail_fast@gsl@@@824"@IMGREL
	.long	"_CT??_R0?AVlogic_error@std@@@824"@IMGREL
	.long	"_CT??_R0?AVexception@std@@@824"@IMGREL

	.section	.xdata,"dr",discard,"_TI3?AUfail_fast@gsl@@"
	.globl	"_TI3?AUfail_fast@gsl@@" # @"_TI3?AUfail_fast@gsl@@"
	.p2align	3
"_TI3?AUfail_fast@gsl@@":
	.long	0                       # 0x0
	.long	"??1fail_fast@gsl@@UEAA@XZ"@IMGREL
	.long	0                       # 0x0
	.long	"_CTA3?AUfail_fast@gsl@@"@IMGREL

	.section	.rdata,"dr",largest,"??_7fail_fast@gsl@@6B@"
	.p2align	4               # @0
.L__unnamed_1:
	.quad	"??_R4fail_fast@gsl@@6B@"
	.quad	"??_Gfail_fast@gsl@@UEAAPEAXI@Z"
	.quad	"?what@exception@std@@UEBAPEBDXZ"

	.section	.rdata,"dr",discard,"??_R4fail_fast@gsl@@6B@"
	.globl	"??_R4fail_fast@gsl@@6B@" # @"??_R4fail_fast@gsl@@6B@"
	.p2align	4
"??_R4fail_fast@gsl@@6B@":
	.long	1                       # 0x1
	.long	0                       # 0x0
	.long	0                       # 0x0
	.long	"??_R0?AUfail_fast@gsl@@@8"@IMGREL
	.long	"??_R3fail_fast@gsl@@8"@IMGREL
	.long	"??_R4fail_fast@gsl@@6B@"@IMGREL

	.section	.rdata,"dr",discard,"??_R3fail_fast@gsl@@8"
	.globl	"??_R3fail_fast@gsl@@8" # @"??_R3fail_fast@gsl@@8"
	.p2align	3
"??_R3fail_fast@gsl@@8":
	.long	0                       # 0x0
	.long	0                       # 0x0
	.long	3                       # 0x3
	.long	"??_R2fail_fast@gsl@@8"@IMGREL

	.section	.rdata,"dr",discard,"??_R2fail_fast@gsl@@8"
	.globl	"??_R2fail_fast@gsl@@8" # @"??_R2fail_fast@gsl@@8"
	.p2align	2
"??_R2fail_fast@gsl@@8":
	.long	"??_R1A@?0A@EA@fail_fast@gsl@@8"@IMGREL
	.long	"??_R1A@?0A@EA@logic_error@std@@8"@IMGREL
	.long	"??_R1A@?0A@EA@exception@std@@8"@IMGREL
	.long	0                       # 0x0

	.section	.rdata,"dr",discard,"??_R1A@?0A@EA@fail_fast@gsl@@8"
	.globl	"??_R1A@?0A@EA@fail_fast@gsl@@8" # @"??_R1A@?0A@EA@fail_fast@gsl@@8"
	.p2align	4
"??_R1A@?0A@EA@fail_fast@gsl@@8":
	.long	"??_R0?AUfail_fast@gsl@@@8"@IMGREL
	.long	2                       # 0x2
	.long	0                       # 0x0
	.long	4294967295              # 0xffffffff
	.long	0                       # 0x0
	.long	64                      # 0x40
	.long	"??_R3fail_fast@gsl@@8"@IMGREL

	.section	.rdata,"dr",discard,"??_R1A@?0A@EA@logic_error@std@@8"
	.globl	"??_R1A@?0A@EA@logic_error@std@@8" # @"??_R1A@?0A@EA@logic_error@std@@8"
	.p2align	4
"??_R1A@?0A@EA@logic_error@std@@8":
	.long	"??_R0?AVlogic_error@std@@@8"@IMGREL
	.long	1                       # 0x1
	.long	0                       # 0x0
	.long	4294967295              # 0xffffffff
	.long	0                       # 0x0
	.long	64                      # 0x40
	.long	"??_R3logic_error@std@@8"@IMGREL

	.section	.rdata,"dr",discard,"??_R3logic_error@std@@8"
	.globl	"??_R3logic_error@std@@8" # @"??_R3logic_error@std@@8"
	.p2align	3
"??_R3logic_error@std@@8":
	.long	0                       # 0x0
	.long	0                       # 0x0
	.long	2                       # 0x2
	.long	"??_R2logic_error@std@@8"@IMGREL

	.section	.rdata,"dr",discard,"??_R2logic_error@std@@8"
	.globl	"??_R2logic_error@std@@8" # @"??_R2logic_error@std@@8"
	.p2align	2
"??_R2logic_error@std@@8":
	.long	"??_R1A@?0A@EA@logic_error@std@@8"@IMGREL
	.long	"??_R1A@?0A@EA@exception@std@@8"@IMGREL
	.long	0                       # 0x0

	.section	.rdata,"dr",discard,"??_R1A@?0A@EA@exception@std@@8"
	.globl	"??_R1A@?0A@EA@exception@std@@8" # @"??_R1A@?0A@EA@exception@std@@8"
	.p2align	4
"??_R1A@?0A@EA@exception@std@@8":
	.long	"??_R0?AVexception@std@@@8"@IMGREL
	.long	0                       # 0x0
	.long	0                       # 0x0
	.long	4294967295              # 0xffffffff
	.long	0                       # 0x0
	.long	64                      # 0x40
	.long	"??_R3exception@std@@8"@IMGREL

	.section	.rdata,"dr",discard,"??_R3exception@std@@8"
	.globl	"??_R3exception@std@@8" # @"??_R3exception@std@@8"
	.p2align	3
"??_R3exception@std@@8":
	.long	0                       # 0x0
	.long	0                       # 0x0
	.long	1                       # 0x1
	.long	"??_R2exception@std@@8"@IMGREL

	.section	.rdata,"dr",discard,"??_R2exception@std@@8"
	.globl	"??_R2exception@std@@8" # @"??_R2exception@std@@8"
	.p2align	2
"??_R2exception@std@@8":
	.long	"??_R1A@?0A@EA@exception@std@@8"@IMGREL
	.long	0                       # 0x0

	.section	.rdata,"dr",largest,"??_7logic_error@std@@6B@"
	.p2align	4               # @1
.L__unnamed_2:
	.quad	"??_R4logic_error@std@@6B@"
	.quad	"??_Glogic_error@std@@UEAAPEAXI@Z"
	.quad	"?what@exception@std@@UEBAPEBDXZ"

	.section	.rdata,"dr",discard,"??_R4logic_error@std@@6B@"
	.globl	"??_R4logic_error@std@@6B@" # @"??_R4logic_error@std@@6B@"
	.p2align	4
"??_R4logic_error@std@@6B@":
	.long	1                       # 0x1
	.long	0                       # 0x0
	.long	0                       # 0x0
	.long	"??_R0?AVlogic_error@std@@@8"@IMGREL
	.long	"??_R3logic_error@std@@8"@IMGREL
	.long	"??_R4logic_error@std@@6B@"@IMGREL

	.section	.rdata,"dr",largest,"??_7exception@std@@6B@"
	.p2align	4               # @2
.L__unnamed_3:
	.quad	"??_R4exception@std@@6B@"
	.quad	"??_Gexception@std@@UEAAPEAXI@Z"
	.quad	"?what@exception@std@@UEBAPEBDXZ"

	.section	.rdata,"dr",discard,"??_R4exception@std@@6B@"
	.globl	"??_R4exception@std@@6B@" # @"??_R4exception@std@@6B@"
	.p2align	4
"??_R4exception@std@@6B@":
	.long	1                       # 0x1
	.long	0                       # 0x0
	.long	0                       # 0x0
	.long	"??_R0?AVexception@std@@@8"@IMGREL
	.long	"??_R3exception@std@@8"@IMGREL
	.long	"??_R4exception@std@@6B@"@IMGREL

	.section	.rdata,"dr",discard,"??_C@_0BC@EOODALEL@Unknown?5exception?$AA@"
	.globl	"??_C@_0BC@EOODALEL@Unknown?5exception?$AA@" # @"??_C@_0BC@EOODALEL@Unknown?5exception?$AA@"
"??_C@_0BC@EOODALEL@Unknown?5exception?$AA@":
	.asciz	"Unknown exception"

	.section	.drectve,"yn"
	.ascii	" /DEFAULTLIB:msvcrtd.lib"
	.ascii	" /DEFAULTLIB:oldnames.lib"
	.ascii	" /FAILIFMISMATCH:\"_MSC_VER=1900\""
	.ascii	" /FAILIFMISMATCH:\"_ITERATOR_DEBUG_LEVEL=2\""
	.ascii	" /FAILIFMISMATCH:\"RuntimeLibrary=MDd_DynamicDebug\""
	.ascii	" /DEFAULTLIB:msvcprtd.lib"
	.ascii	" /FAILIFMISMATCH:\"_CRT_STDIO_ISO_WIDE_SPECIFIERS=0\""