	.text
	.intel_syntax noprefix
	.def	 "?foo@@YA_NXZ";
	.scl	2;
	.type	32;
	.endef
	.globl	"?foo@@YA_NXZ"          # -- Begin function ?foo@@YA_NXZ
	.p2align	4, 0x90
"?foo@@YA_NXZ":                         # @"?foo@@YA_NXZ"
.Lfunc_begin0:
	.cv_func_id 0
	.cv_file	1 "C:\\projects\\gsl\\tests\\span_compile_only.cpp" "4624275D2F517EEFA27001688003239C" 1
	.cv_loc	0 1 42 0 is_stmt 0      # ..\tests\span_compile_only.cpp:42:0
.seh_proc "?foo@@YA_NXZ"
# %bb.0:
	sub	rsp, 152
	.seh_stackalloc 152
	.seh_endprologue
	mov	rax, qword ptr [rip + __security_cookie]
	xor	rax, rsp
	mov	qword ptr [rsp + 144], rax
.Ltmp0:
	.cv_loc	0 1 44 0                # ..\tests\span_compile_only.cpp:44:0
	mov	byte ptr [rsp + 95], 1
	.cv_loc	0 1 45 0                # ..\tests\span_compile_only.cpp:45:0
	lea	rcx, [rsp + 128]
.Ltmp1:
	#DEBUG_VALUE: s <- [$rcx+0]
	call	"??$?0$0A@X@?$span@H$0?0@gsl@@QEAA@XZ"
.Ltmp2:
	.cv_loc	0 1 46 0                # ..\tests\span_compile_only.cpp:46:0
	test	byte ptr [rsp + 95], 1
	mov	dl, 1
	mov	qword ptr [rsp + 80], rax # 8-byte Spill
	mov	byte ptr [rsp + 79], dl # 1-byte Spill
	jne	.LBB0_4
# %bb.1:
	lea	rcx, [rsp + 128]
	call	"?size@?$span@H$0?0@gsl@@QEBA_JXZ"
	xor	edx, edx
	mov	r8b, dl
	cmp	rax, 0
	mov	byte ptr [rsp + 78], r8b # 1-byte Spill
	jne	.LBB0_3
# %bb.2:
	lea	rcx, [rsp + 128]
	call	"?data@?$span@H$0?0@gsl@@QEBAPEAHXZ"
	cmp	rax, 0
	sete	dl
	mov	byte ptr [rsp + 78], dl # 1-byte Spill
.LBB0_3:
	mov	al, byte ptr [rsp + 78] # 1-byte Reload
	mov	byte ptr [rsp + 79], al # 1-byte Spill
.LBB0_4:
	mov	al, byte ptr [rsp + 79] # 1-byte Reload
	and	al, 1
	mov	byte ptr [rsp + 95], al
	.cv_loc	0 1 48 0                # ..\tests\span_compile_only.cpp:48:0
	lea	rcx, [rsp + 112]
.Ltmp3:
	#DEBUG_VALUE: cs <- [$rcx+0]
	call	"??$?0$0A@X@?$span@$$CBH$0?0@gsl@@QEAA@XZ"
.Ltmp4:
	.cv_loc	0 1 49 0                # ..\tests\span_compile_only.cpp:49:0
	test	byte ptr [rsp + 95], 1
	mov	dl, 1
	mov	qword ptr [rsp + 64], rax # 8-byte Spill
	mov	byte ptr [rsp + 63], dl # 1-byte Spill
	jne	.LBB0_8
# %bb.5:
	lea	rcx, [rsp + 112]
	call	"?size@?$span@$$CBH$0?0@gsl@@QEBA_JXZ"
	xor	edx, edx
	mov	r8b, dl
	cmp	rax, 0
	mov	byte ptr [rsp + 62], r8b # 1-byte Spill
	jne	.LBB0_7
# %bb.6:
	lea	rcx, [rsp + 112]
	call	"?data@?$span@$$CBH$0?0@gsl@@QEBAPEBHXZ"
	cmp	rax, 0
	sete	dl
	mov	byte ptr [rsp + 62], dl # 1-byte Spill
.LBB0_7:
	mov	al, byte ptr [rsp + 62] # 1-byte Reload
	mov	byte ptr [rsp + 63], al # 1-byte Spill
.LBB0_8:
	mov	al, byte ptr [rsp + 63] # 1-byte Reload
	and	al, 1
	mov	byte ptr [rsp + 95], al
	.cv_loc	0 1 51 0                # ..\tests\span_compile_only.cpp:51:0
	lea	rcx, [rsp + 96]
.Ltmp5:
	#DEBUG_VALUE: s2 <- [$rcx+0]
	call	"??$?0$0A@X@?$span@H$0?0@gsl@@QEAA@XZ"
.Ltmp6:
	.cv_loc	0 1 52 0                # ..\tests\span_compile_only.cpp:52:0
	test	byte ptr [rsp + 95], 1
	mov	dl, 1
	mov	qword ptr [rsp + 48], rax # 8-byte Spill
	mov	byte ptr [rsp + 47], dl # 1-byte Spill
	jne	.LBB0_12
# %bb.9:
	lea	rcx, [rsp + 96]
	call	"?size@?$span@H$0?0@gsl@@QEBA_JXZ"
	xor	edx, edx
	mov	r8b, dl
	cmp	rax, 0
	mov	byte ptr [rsp + 46], r8b # 1-byte Spill
	jne	.LBB0_11
# %bb.10:
	lea	rcx, [rsp + 96]
	call	"?data@?$span@H$0?0@gsl@@QEBAPEAHXZ"
	cmp	rax, 0
	sete	dl
	mov	byte ptr [rsp + 46], dl # 1-byte Spill
.LBB0_11:
	mov	al, byte ptr [rsp + 46] # 1-byte Reload
	mov	byte ptr [rsp + 47], al # 1-byte Spill
.LBB0_12:
	mov	al, byte ptr [rsp + 47] # 1-byte Reload
	and	al, 1
	mov	byte ptr [rsp + 95], al
	.cv_loc	0 1 54 0                # ..\tests\span_compile_only.cpp:54:0
	mov	al, byte ptr [rsp + 95]
	and	al, 1
	movzx	eax, al
	mov	rcx, qword ptr [rsp + 144]
	xor	rcx, rsp
	mov	dword ptr [rsp + 40], eax # 4-byte Spill
	call	__security_check_cookie
	mov	eax, dword ptr [rsp + 40] # 4-byte Reload
	add	rsp, 152
	ret
.Ltmp7:
.Lfunc_end0:
	.seh_handlerdata
	.text
	.seh_endproc
                                        # -- End function
	.def	 "??$?0$0A@X@?$span@H$0?0@gsl@@QEAA@XZ";
	.scl	2;
	.type	32;
	.endef
	.section	.text,"xr",discard,"??$?0$0A@X@?$span@H$0?0@gsl@@QEAA@XZ"
	.globl	"??$?0$0A@X@?$span@H$0?0@gsl@@QEAA@XZ" # -- Begin function ??$?0$0A@X@?$span@H$0?0@gsl@@QEAA@XZ
	.p2align	4, 0x90
"??$?0$0A@X@?$span@H$0?0@gsl@@QEAA@XZ": # @"??$?0$0A@X@?$span@H$0?0@gsl@@QEAA@XZ"
.Lfunc_begin1:
	.cv_func_id 1
	.cv_file	2 "C:\\projects\\gsl\\include\\gsl\\span" "3BAA3FB91BA159E545E305706709D4CE" 1
	.cv_loc	1 2 384 0               # ..\include\gsl/span:384:0
.seh_proc "??$?0$0A@X@?$span@H$0?0@gsl@@QEAA@XZ"
	.seh_handler __CxxFrameHandler3, @unwind, @except
# %bb.0:
	push	rbp
	.seh_pushreg 5
	sub	rsp, 80
	.seh_stackalloc 80
	lea	rbp, [rsp + 80]
	.seh_setframe 5, 80
	.seh_endprologue
	mov	qword ptr [rbp - 8], -2
	mov	qword ptr [rbp - 16], rcx
	mov	rcx, qword ptr [rbp - 16]
	lea	rax, [rbp - 24]
.Ltmp10:
	mov	qword ptr [rbp - 32], rcx # 8-byte Spill
	mov	rcx, rax
	call	"??0?$extent_type@$0A@@details@gsl@@QEAA@XZ"
	mov	r8b, byte ptr [rbp - 24]
.Ltmp8:
	xor	edx, edx
                                        # kill: def $rdx killed $edx
	mov	rcx, qword ptr [rbp - 32] # 8-byte Reload
	mov	qword ptr [rbp - 40], rax # 8-byte Spill
	call	"??$?0V?$extent_type@$0A@@details@gsl@@@?$storage_type@V?$extent_type@$0?0@details@gsl@@@?$span@H$0?0@gsl@@QEAA@PEAHV?$extent_type@$0A@@details@2@@Z"
.Ltmp9:
	mov	qword ptr [rbp - 48], rax # 8-byte Spill
	jmp	.LBB1_1
.LBB1_1:
	mov	rax, qword ptr [rbp - 32] # 8-byte Reload
	add	rsp, 80
	pop	rbp
	ret
	.seh_handlerdata
	.long	("$cppxdata$??$?0$0A@X@?$span@H$0?0@gsl@@QEAA@XZ")@IMGREL
	.section	.text,"xr",discard,"??$?0$0A@X@?$span@H$0?0@gsl@@QEAA@XZ"
	.seh_endproc
	.def	 "?dtor$2@?0???$?0$0A@X@?$span@H$0?0@gsl@@QEAA@XZ@4HA";
	.scl	3;
	.type	32;
	.endef
	.p2align	4, 0x90
"?dtor$2@?0???$?0$0A@X@?$span@H$0?0@gsl@@QEAA@XZ@4HA":
.seh_proc "?dtor$2@?0???$?0$0A@X@?$span@H$0?0@gsl@@QEAA@XZ@4HA"
.LBB1_2:
	mov	qword ptr [rsp + 16], rdx
	push	rbp
	.seh_pushreg 5
	sub	rsp, 32
	.seh_stackalloc 32
	lea	rbp, [rdx + 80]
	.seh_endprologue
	mov	rax, qword ptr [rip + __imp___std_terminate]
	call	rax
	ud2
.Ltmp11:
.Lfunc_end1:
	.seh_handlerdata
	.section	.text,"xr",discard,"??$?0$0A@X@?$span@H$0?0@gsl@@QEAA@XZ"
	.seh_endproc
	.section	.xdata,"dr",associative,"??$?0$0A@X@?$span@H$0?0@gsl@@QEAA@XZ"
	.p2align	2
"$cppxdata$??$?0$0A@X@?$span@H$0?0@gsl@@QEAA@XZ":
	.long	429065506               # MagicNumber
	.long	1                       # MaxState
	.long	("$stateUnwindMap$??$?0$0A@X@?$span@H$0?0@gsl@@QEAA@XZ")@IMGREL # UnwindMap
	.long	0                       # NumTryBlocks
	.long	0                       # TryBlockMap
	.long	3                       # IPMapEntries
	.long	("$ip2state$??$?0$0A@X@?$span@H$0?0@gsl@@QEAA@XZ")@IMGREL # IPToStateXData
	.long	72                      # UnwindHelp
	.long	0                       # ESTypeList
	.long	1                       # EHFlags
"$stateUnwindMap$??$?0$0A@X@?$span@H$0?0@gsl@@QEAA@XZ":
	.long	-1                      # ToState
	.long	"?dtor$2@?0???$?0$0A@X@?$span@H$0?0@gsl@@QEAA@XZ@4HA"@IMGREL # Action
"$ip2state$??$?0$0A@X@?$span@H$0?0@gsl@@QEAA@XZ":
	.long	.Lfunc_begin1@IMGREL    # IP
	.long	-1                      # ToState
	.long	.Ltmp8@IMGREL+1         # IP
	.long	0                       # ToState
	.long	.Ltmp9@IMGREL+1         # IP
	.long	-1                      # ToState
	.section	.text,"xr",discard,"??$?0$0A@X@?$span@H$0?0@gsl@@QEAA@XZ"
                                        # -- End function
	.def	 "?size@?$span@H$0?0@gsl@@QEBA_JXZ";
	.scl	2;
	.type	32;
	.endef
	.section	.text,"xr",discard,"?size@?$span@H$0?0@gsl@@QEBA_JXZ"
	.globl	"?size@?$span@H$0?0@gsl@@QEBA_JXZ" # -- Begin function ?size@?$span@H$0?0@gsl@@QEBA_JXZ
	.p2align	4, 0x90
"?size@?$span@H$0?0@gsl@@QEBA_JXZ":     # @"?size@?$span@H$0?0@gsl@@QEBA_JXZ"
.Lfunc_begin2:
	.cv_func_id 2
	.cv_loc	2 2 498 0               # ..\include\gsl/span:498:0
.seh_proc "?size@?$span@H$0?0@gsl@@QEBA_JXZ"
# %bb.0:
	sub	rsp, 40
	.seh_stackalloc 40
	.seh_endprologue
	mov	qword ptr [rsp + 32], rcx
	mov	rcx, qword ptr [rsp + 32]
.Ltmp12:
	call	"?size@?$extent_type@$0?0@details@gsl@@QEBA_JXZ"
	nop
	add	rsp, 40
	ret
.Ltmp13:
.Lfunc_end2:
	.seh_handlerdata
	.section	.text,"xr",discard,"?size@?$span@H$0?0@gsl@@QEBA_JXZ"
	.seh_endproc
                                        # -- End function
	.def	 "?data@?$span@H$0?0@gsl@@QEBAPEAHXZ";
	.scl	2;
	.type	32;
	.endef
	.section	.text,"xr",discard,"?data@?$span@H$0?0@gsl@@QEBAPEAHXZ"
	.globl	"?data@?$span@H$0?0@gsl@@QEBAPEAHXZ" # -- Begin function ?data@?$span@H$0?0@gsl@@QEBAPEAHXZ
	.p2align	4, 0x90
"?data@?$span@H$0?0@gsl@@QEBAPEAHXZ":   # @"?data@?$span@H$0?0@gsl@@QEBAPEAHXZ"
.Lfunc_begin3:
	.cv_func_id 3
	.cv_loc	3 2 515 0               # ..\include\gsl/span:515:0
.seh_proc "?data@?$span@H$0?0@gsl@@QEBAPEAHXZ"
# %bb.0:
	sub	rsp, 40
	.seh_stackalloc 40
	.seh_endprologue
	mov	qword ptr [rsp + 32], rcx
	mov	rcx, qword ptr [rsp + 32]
.Ltmp14:
	call	"?data@?$storage_type@V?$extent_type@$0?0@details@gsl@@@?$span@H$0?0@gsl@@QEBAPEAHXZ"
	nop
	add	rsp, 40
	ret
.Ltmp15:
.Lfunc_end3:
	.seh_handlerdata
	.section	.text,"xr",discard,"?data@?$span@H$0?0@gsl@@QEBAPEAHXZ"
	.seh_endproc
                                        # -- End function
	.def	 "??$?0$0A@X@?$span@$$CBH$0?0@gsl@@QEAA@XZ";
	.scl	2;
	.type	32;
	.endef
	.section	.text,"xr",discard,"??$?0$0A@X@?$span@$$CBH$0?0@gsl@@QEAA@XZ"
	.globl	"??$?0$0A@X@?$span@$$CBH$0?0@gsl@@QEAA@XZ" # -- Begin function ??$?0$0A@X@?$span@$$CBH$0?0@gsl@@QEAA@XZ
	.p2align	4, 0x90
"??$?0$0A@X@?$span@$$CBH$0?0@gsl@@QEAA@XZ": # @"??$?0$0A@X@?$span@$$CBH$0?0@gsl@@QEAA@XZ"
.Lfunc_begin4:
	.cv_func_id 4
	.cv_loc	4 2 384 0               # ..\include\gsl/span:384:0
.seh_proc "??$?0$0A@X@?$span@$$CBH$0?0@gsl@@QEAA@XZ"
	.seh_handler __CxxFrameHandler3, @unwind, @except
# %bb.0:
	push	rbp
	.seh_pushreg 5
	sub	rsp, 80
	.seh_stackalloc 80
	lea	rbp, [rsp + 80]
	.seh_setframe 5, 80
	.seh_endprologue
	mov	qword ptr [rbp - 8], -2
	mov	qword ptr [rbp - 16], rcx
	mov	rcx, qword ptr [rbp - 16]
	lea	rax, [rbp - 24]
.Ltmp18:
	mov	qword ptr [rbp - 32], rcx # 8-byte Spill
	mov	rcx, rax
	call	"??0?$extent_type@$0A@@details@gsl@@QEAA@XZ"
	mov	r8b, byte ptr [rbp - 24]
.Ltmp16:
	xor	edx, edx
                                        # kill: def $rdx killed $edx
	mov	rcx, qword ptr [rbp - 32] # 8-byte Reload
	mov	qword ptr [rbp - 40], rax # 8-byte Spill
	call	"??$?0V?$extent_type@$0A@@details@gsl@@@?$storage_type@V?$extent_type@$0?0@details@gsl@@@?$span@$$CBH$0?0@gsl@@QEAA@PEBHV?$extent_type@$0A@@details@2@@Z"
.Ltmp17:
	mov	qword ptr [rbp - 48], rax # 8-byte Spill
	jmp	.LBB4_1
.LBB4_1:
	mov	rax, qword ptr [rbp - 32] # 8-byte Reload
	add	rsp, 80
	pop	rbp
	ret
	.seh_handlerdata
	.long	("$cppxdata$??$?0$0A@X@?$span@$$CBH$0?0@gsl@@QEAA@XZ")@IMGREL
	.section	.text,"xr",discard,"??$?0$0A@X@?$span@$$CBH$0?0@gsl@@QEAA@XZ"
	.seh_endproc
	.def	 "?dtor$2@?0???$?0$0A@X@?$span@$$CBH$0?0@gsl@@QEAA@XZ@4HA";
	.scl	3;
	.type	32;
	.endef
	.p2align	4, 0x90
"?dtor$2@?0???$?0$0A@X@?$span@$$CBH$0?0@gsl@@QEAA@XZ@4HA":
.seh_proc "?dtor$2@?0???$?0$0A@X@?$span@$$CBH$0?0@gsl@@QEAA@XZ@4HA"
.LBB4_2:
	mov	qword ptr [rsp + 16], rdx
	push	rbp
	.seh_pushreg 5
	sub	rsp, 32
	.seh_stackalloc 32
	lea	rbp, [rdx + 80]
	.seh_endprologue
	mov	rax, qword ptr [rip + __imp___std_terminate]
	call	rax
	ud2
.Ltmp19:
.Lfunc_end4:
	.seh_handlerdata
	.section	.text,"xr",discard,"??$?0$0A@X@?$span@$$CBH$0?0@gsl@@QEAA@XZ"
	.seh_endproc
	.section	.xdata,"dr",associative,"??$?0$0A@X@?$span@$$CBH$0?0@gsl@@QEAA@XZ"
	.p2align	2
"$cppxdata$??$?0$0A@X@?$span@$$CBH$0?0@gsl@@QEAA@XZ":
	.long	429065506               # MagicNumber
	.long	1                       # MaxState
	.long	("$stateUnwindMap$??$?0$0A@X@?$span@$$CBH$0?0@gsl@@QEAA@XZ")@IMGREL # UnwindMap
	.long	0                       # NumTryBlocks
	.long	0                       # TryBlockMap
	.long	3                       # IPMapEntries
	.long	("$ip2state$??$?0$0A@X@?$span@$$CBH$0?0@gsl@@QEAA@XZ")@IMGREL # IPToStateXData
	.long	72                      # UnwindHelp
	.long	0                       # ESTypeList
	.long	1                       # EHFlags
"$stateUnwindMap$??$?0$0A@X@?$span@$$CBH$0?0@gsl@@QEAA@XZ":
	.long	-1                      # ToState
	.long	"?dtor$2@?0???$?0$0A@X@?$span@$$CBH$0?0@gsl@@QEAA@XZ@4HA"@IMGREL # Action
"$ip2state$??$?0$0A@X@?$span@$$CBH$0?0@gsl@@QEAA@XZ":
	.long	.Lfunc_begin4@IMGREL    # IP
	.long	-1                      # ToState
	.long	.Ltmp16@IMGREL+1        # IP
	.long	0                       # ToState
	.long	.Ltmp17@IMGREL+1        # IP
	.long	-1                      # ToState
	.section	.text,"xr",discard,"??$?0$0A@X@?$span@$$CBH$0?0@gsl@@QEAA@XZ"
                                        # -- End function
	.def	 "?size@?$span@$$CBH$0?0@gsl@@QEBA_JXZ";
	.scl	2;
	.type	32;
	.endef
	.section	.text,"xr",discard,"?size@?$span@$$CBH$0?0@gsl@@QEBA_JXZ"
	.globl	"?size@?$span@$$CBH$0?0@gsl@@QEBA_JXZ" # -- Begin function ?size@?$span@$$CBH$0?0@gsl@@QEBA_JXZ
	.p2align	4, 0x90
"?size@?$span@$$CBH$0?0@gsl@@QEBA_JXZ": # @"?size@?$span@$$CBH$0?0@gsl@@QEBA_JXZ"
.Lfunc_begin5:
	.cv_func_id 5
	.cv_loc	5 2 498 0               # ..\include\gsl/span:498:0
.seh_proc "?size@?$span@$$CBH$0?0@gsl@@QEBA_JXZ"
# %bb.0:
	sub	rsp, 40
	.seh_stackalloc 40
	.seh_endprologue
	mov	qword ptr [rsp + 32], rcx
	mov	rcx, qword ptr [rsp + 32]
.Ltmp20:
	call	"?size@?$extent_type@$0?0@details@gsl@@QEBA_JXZ"
	nop
	add	rsp, 40
	ret
.Ltmp21:
.Lfunc_end5:
	.seh_handlerdata
	.section	.text,"xr",discard,"?size@?$span@$$CBH$0?0@gsl@@QEBA_JXZ"
	.seh_endproc
                                        # -- End function
	.def	 "?data@?$span@$$CBH$0?0@gsl@@QEBAPEBHXZ";
	.scl	2;
	.type	32;
	.endef
	.section	.text,"xr",discard,"?data@?$span@$$CBH$0?0@gsl@@QEBAPEBHXZ"
	.globl	"?data@?$span@$$CBH$0?0@gsl@@QEBAPEBHXZ" # -- Begin function ?data@?$span@$$CBH$0?0@gsl@@QEBAPEBHXZ
	.p2align	4, 0x90
"?data@?$span@$$CBH$0?0@gsl@@QEBAPEBHXZ": # @"?data@?$span@$$CBH$0?0@gsl@@QEBAPEBHXZ"
.Lfunc_begin6:
	.cv_func_id 6
	.cv_loc	6 2 515 0               # ..\include\gsl/span:515:0
.seh_proc "?data@?$span@$$CBH$0?0@gsl@@QEBAPEBHXZ"
# %bb.0:
	sub	rsp, 40
	.seh_stackalloc 40
	.seh_endprologue
	mov	qword ptr [rsp + 32], rcx
	mov	rcx, qword ptr [rsp + 32]
.Ltmp22:
	call	"?data@?$storage_type@V?$extent_type@$0?0@details@gsl@@@?$span@$$CBH$0?0@gsl@@QEBAPEBHXZ"
	nop
	add	rsp, 40
	ret
.Ltmp23:
.Lfunc_end6:
	.seh_handlerdata
	.section	.text,"xr",discard,"?data@?$span@$$CBH$0?0@gsl@@QEBAPEBHXZ"
	.seh_endproc
                                        # -- End function
	.def	 "?bar@@YA_NXZ";
	.scl	2;
	.type	32;
	.endef
	.text
	.globl	"?bar@@YA_NXZ"          # -- Begin function ?bar@@YA_NXZ
	.p2align	4, 0x90
"?bar@@YA_NXZ":                         # @"?bar@@YA_NXZ"
.Lfunc_begin7:
	.cv_func_id 7
	.cv_loc	7 1 61 0                # ..\tests\span_compile_only.cpp:61:0
.seh_proc "?bar@@YA_NXZ"
	.seh_handler __CxxFrameHandler3, @unwind, @except
# %bb.0:
	push	rbp
	.seh_pushreg 5
	sub	rsp, 192
	.seh_stackalloc 192
	lea	rbp, [rsp + 128]
	.seh_setframe 5, 128
	.seh_endprologue
.Ltmp26:
	.cv_loc	7 1 63 0                # ..\tests\span_compile_only.cpp:63:0
	mov	qword ptr [rbp + 56], -2
	mov	byte ptr [rbp + 55], 1
	.cv_loc	7 1 64 0                # ..\tests\span_compile_only.cpp:64:0
	mov	dword ptr [rbp - 16], 0
	mov	dword ptr [rbp - 12], 1
	mov	dword ptr [rbp - 8], 2
	mov	dword ptr [rbp - 4], 3
	lea	rax, [rbp - 16]
	mov	qword ptr [rbp], rax
	lea	rax, [rbp]
	mov	qword ptr [rbp + 8], rax
	lea	rax, [rbp - 24]
	mov	rcx, rax
	mov	qword ptr [rbp - 48], rax # 8-byte Spill
	call	"??0?$allocator@H@std@@QEAA@XZ"
	lea	rcx, [rbp + 16]
	mov	rdx, rbp
	mov	qword ptr [rbp - 56], rcx # 8-byte Spill
	mov	r8, qword ptr [rbp - 48] # 8-byte Reload
	mov	qword ptr [rbp - 64], rax # 8-byte Spill
	call	"??0?$vector@HV?$allocator@H@std@@@std@@QEAA@V?$initializer_list@H@1@AEBV?$allocator@H@1@@Z"
	.cv_loc	7 1 65 0                # ..\tests\span_compile_only.cpp:65:0
.Ltmp24:
	lea	rcx, [rbp - 40]
	mov	rdx, qword ptr [rbp - 56] # 8-byte Reload
	mov	qword ptr [rbp - 72], rax # 8-byte Spill
	call	"??$?0V?$vector@HV?$allocator@H@std@@@std@@X@?$span@H$0?0@gsl@@QEAA@AEAV?$vector@HV?$allocator@H@std@@@std@@@Z"
.Ltmp25:
	mov	qword ptr [rbp - 80], rax # 8-byte Spill
	jmp	.LBB7_1
.LBB7_1:
	.cv_loc	7 1 66 0                # ..\tests\span_compile_only.cpp:66:0
	test	byte ptr [rbp + 55], 1
	mov	al, 1
	mov	byte ptr [rbp - 81], al # 1-byte Spill
	jne	.LBB7_5
# %bb.2:
	lea	rcx, [rbp - 40]
	call	"?size@?$span@H$0?0@gsl@@QEBA_JXZ"
	xor	edx, edx
	mov	r8b, dl
	cmp	rax, 4
	mov	byte ptr [rbp - 82], r8b # 1-byte Spill
	jne	.LBB7_4
# %bb.3:
	lea	rcx, [rbp - 40]
	call	"?data@?$span@H$0?0@gsl@@QEBAPEAHXZ"
	cmp	rax, 0
	setne	dl
	mov	byte ptr [rbp - 82], dl # 1-byte Spill
.LBB7_4:
	mov	al, byte ptr [rbp - 82] # 1-byte Reload
	mov	byte ptr [rbp - 81], al # 1-byte Spill
.LBB7_5:
	mov	al, byte ptr [rbp - 81] # 1-byte Reload
	and	al, 1
	mov	byte ptr [rbp + 55], al
	.cv_loc	7 1 68 0                # ..\tests\span_compile_only.cpp:68:0
	mov	al, byte ptr [rbp + 55]
	.cv_loc	7 1 69 0                # ..\tests\span_compile_only.cpp:69:0
	lea	rcx, [rbp + 16]
	mov	byte ptr [rbp - 83], al # 1-byte Spill
	call	"??1?$vector@HV?$allocator@H@std@@@std@@QEAA@XZ"
	.cv_loc	7 1 68 0                # ..\tests\span_compile_only.cpp:68:0
	mov	al, byte ptr [rbp - 83] # 1-byte Reload
	and	al, 1
	movzx	eax, al
	add	rsp, 192
	pop	rbp
	ret
	.seh_handlerdata
	.long	("$cppxdata$?bar@@YA_NXZ")@IMGREL
	.text
	.seh_endproc
	.def	 "?dtor$6@?0??bar@@YA_NXZ@4HA";
	.scl	3;
	.type	32;
	.endef
	.p2align	4, 0x90
"?dtor$6@?0??bar@@YA_NXZ@4HA":
.seh_proc "?dtor$6@?0??bar@@YA_NXZ@4HA"
.LBB7_6:
	mov	qword ptr [rsp + 16], rdx
	push	rbp
	.seh_pushreg 5
	sub	rsp, 32
	.seh_stackalloc 32
	lea	rbp, [rdx + 128]
	.seh_endprologue
	lea	rcx, [rbp + 16]
	.cv_loc	7 1 69 0                # ..\tests\span_compile_only.cpp:69:0
	call	"??1?$vector@HV?$allocator@H@std@@@std@@QEAA@XZ"
	nop
	add	rsp, 32
	pop	rbp
	ret                             # CLEANUPRET
.Ltmp27:
.Lfunc_end7:
	.seh_handlerdata
	.text
	.seh_endproc
	.section	.xdata,"dr"
	.p2align	2
"$cppxdata$?bar@@YA_NXZ":
	.long	429065506               # MagicNumber
	.long	1                       # MaxState
	.long	("$stateUnwindMap$?bar@@YA_NXZ")@IMGREL # UnwindMap
	.long	0                       # NumTryBlocks
	.long	0                       # TryBlockMap
	.long	3                       # IPMapEntries
	.long	("$ip2state$?bar@@YA_NXZ")@IMGREL # IPToStateXData
	.long	184                     # UnwindHelp
	.long	0                       # ESTypeList
	.long	1                       # EHFlags
"$stateUnwindMap$?bar@@YA_NXZ":
	.long	-1                      # ToState
	.long	"?dtor$6@?0??bar@@YA_NXZ@4HA"@IMGREL # Action
"$ip2state$?bar@@YA_NXZ":
	.long	.Lfunc_begin7@IMGREL    # IP
	.long	-1                      # ToState
	.long	.Ltmp24@IMGREL+1        # IP
	.long	0                       # ToState
	.long	.Ltmp25@IMGREL+1        # IP
	.long	-1                      # ToState
	.text
                                        # -- End function
	.def	 "??0?$allocator@H@std@@QEAA@XZ";
	.scl	2;
	.type	32;
	.endef
	.section	.text,"xr",discard,"??0?$allocator@H@std@@QEAA@XZ"
	.globl	"??0?$allocator@H@std@@QEAA@XZ" # -- Begin function ??0?$allocator@H@std@@QEAA@XZ
	.p2align	4, 0x90
"??0?$allocator@H@std@@QEAA@XZ":        # @"??0?$allocator@H@std@@QEAA@XZ"
.Lfunc_begin8:
	.cv_func_id 8
	.cv_file	3 "C:\\Program Files (x86)\\Microsoft Visual Studio\\2017\\Community\\VC\\Tools\\MSVC\\14.16.27023\\include\\xmemory0" "2F06C6E0D742F7F7636DC47E843A3E4D" 1
	.cv_loc	8 3 980 0               # C:\Program Files (x86)\Microsoft Visual Studio\2017\Community\VC\Tools\MSVC\14.16.27023\include\xmemory0:980:0
.seh_proc "??0?$allocator@H@std@@QEAA@XZ"
# %bb.0:
	push	rax
	.seh_stackalloc 8
	.seh_endprologue
	mov	qword ptr [rsp], rcx
	mov	rax, qword ptr [rsp]
.Ltmp28:
	.cv_loc	8 3 981 0               # C:\Program Files (x86)\Microsoft Visual Studio\2017\Community\VC\Tools\MSVC\14.16.27023\include\xmemory0:981:0
	pop	rcx
	ret
.Ltmp29:
.Lfunc_end8:
	.seh_handlerdata
	.section	.text,"xr",discard,"??0?$allocator@H@std@@QEAA@XZ"
	.seh_endproc
                                        # -- End function
	.def	 "??0?$vector@HV?$allocator@H@std@@@std@@QEAA@V?$initializer_list@H@1@AEBV?$allocator@H@1@@Z";
	.scl	2;
	.type	32;
	.endef
	.section	.text,"xr",discard,"??0?$vector@HV?$allocator@H@std@@@std@@QEAA@V?$initializer_list@H@1@AEBV?$allocator@H@1@@Z"
	.globl	"??0?$vector@HV?$allocator@H@std@@@std@@QEAA@V?$initializer_list@H@1@AEBV?$allocator@H@1@@Z" # -- Begin function ??0?$vector@HV?$allocator@H@std@@@std@@QEAA@V?$initializer_list@H@1@AEBV?$allocator@H@1@@Z
	.p2align	4, 0x90
"??0?$vector@HV?$allocator@H@std@@@std@@QEAA@V?$initializer_list@H@1@AEBV?$allocator@H@1@@Z": # @"??0?$vector@HV?$allocator@H@std@@@std@@QEAA@V?$initializer_list@H@1@AEBV?$allocator@H@1@@Z"
.Lfunc_begin9:
	.cv_func_id 9
	.cv_file	4 "C:\\Program Files (x86)\\Microsoft Visual Studio\\2017\\Community\\VC\\Tools\\MSVC\\14.16.27023\\include\\vector" "520419B6F96B39339C6FD00B18076618" 1
	.cv_loc	9 4 728 0               # C:\Program Files (x86)\Microsoft Visual Studio\2017\Community\VC\Tools\MSVC\14.16.27023\include\vector:728:0
.seh_proc "??0?$vector@HV?$allocator@H@std@@@std@@QEAA@V?$initializer_list@H@1@AEBV?$allocator@H@1@@Z"
	.seh_handler __CxxFrameHandler3, @unwind, @except
# %bb.0:
	push	rbp
	.seh_pushreg 5
	sub	rsp, 96
	.seh_stackalloc 96
	lea	rbp, [rsp + 96]
	.seh_setframe 5, 96
	.seh_endprologue
	mov	qword ptr [rbp - 8], -2
	#DEBUG_VALUE: vector:_Ilist <- [$rdx+0]
	mov	qword ptr [rbp - 16], r8
	mov	qword ptr [rbp - 24], rcx
	mov	rcx, qword ptr [rbp - 24]
.Ltmp32:
	mov	r8, qword ptr [rbp - 16]
	mov	qword ptr [rbp - 40], rcx # 8-byte Spill
	mov	qword ptr [rbp - 48], rdx # 8-byte Spill
.Ltmp33:
	#DEBUG_VALUE: vector:_Ilist <- [DW_OP_constu 48, DW_OP_minus, DW_OP_deref] [$rbp+0]
	mov	rdx, r8
	call	"??$?0AEBV?$allocator@H@std@@X@?$_Vector_alloc@U?$_Vec_base_types@HV?$allocator@H@std@@@std@@@std@@QEAA@AEBV?$allocator@H@1@@Z"
.Ltmp34:
	.cv_loc	9 4 729 0               # C:\Program Files (x86)\Microsoft Visual Studio\2017\Community\VC\Tools\MSVC\14.16.27023\include\vector:729:0
	mov	rcx, qword ptr [rbp - 48] # 8-byte Reload
	mov	qword ptr [rbp - 56], rax # 8-byte Spill
	call	"?end@?$initializer_list@H@std@@QEBAPEBHXZ"
	mov	rcx, qword ptr [rbp - 48] # 8-byte Reload
	mov	qword ptr [rbp - 64], rax # 8-byte Spill
	call	"?begin@?$initializer_list@H@std@@QEBAPEBHXZ"
	mov	r9b, byte ptr [rbp - 32]
.Ltmp30:
	mov	rcx, qword ptr [rbp - 40] # 8-byte Reload
	mov	rdx, rax
	mov	r8, qword ptr [rbp - 64] # 8-byte Reload
	call	"??$_Range_construct_or_tidy@PEBH@?$vector@HV?$allocator@H@std@@@std@@AEAAXPEBH0Uforward_iterator_tag@1@@Z"
.Ltmp31:
	jmp	.LBB9_1
.Ltmp35:
.LBB9_1:
	#DEBUG_VALUE: vector:_Ilist <- [DW_OP_constu 48, DW_OP_minus, DW_OP_deref] [$rbp+0]
	.cv_loc	9 4 730 0               # C:\Program Files (x86)\Microsoft Visual Studio\2017\Community\VC\Tools\MSVC\14.16.27023\include\vector:730:0
	mov	rax, qword ptr [rbp - 40] # 8-byte Reload
	add	rsp, 96
	pop	rbp
.Ltmp36:
	ret
	.seh_handlerdata
	.long	("$cppxdata$??0?$vector@HV?$allocator@H@std@@@std@@QEAA@V?$initializer_list@H@1@AEBV?$allocator@H@1@@Z")@IMGREL
	.section	.text,"xr",discard,"??0?$vector@HV?$allocator@H@std@@@std@@QEAA@V?$initializer_list@H@1@AEBV?$allocator@H@1@@Z"
	.seh_endproc
	.def	 "?dtor$2@?0???0?$vector@HV?$allocator@H@std@@@std@@QEAA@V?$initializer_list@H@1@AEBV?$allocator@H@1@@Z@4HA";
	.scl	3;
	.type	32;
	.endef
	.p2align	4, 0x90
"?dtor$2@?0???0?$vector@HV?$allocator@H@std@@@std@@QEAA@V?$initializer_list@H@1@AEBV?$allocator@H@1@@Z@4HA":
.seh_proc "?dtor$2@?0???0?$vector@HV?$allocator@H@std@@@std@@QEAA@V?$initializer_list@H@1@AEBV?$allocator@H@1@@Z@4HA"
.LBB9_2:
.Ltmp37:
	#DEBUG_VALUE: vector:_Ilist <- [DW_OP_constu 48, DW_OP_minus, DW_OP_deref] [$rbp+0]
	mov	qword ptr [rsp + 16], rdx
	push	rbp
	.seh_pushreg 5
	sub	rsp, 32
	.seh_stackalloc 32
	lea	rbp, [rdx + 96]
.Ltmp38:
	.seh_endprologue
.Ltmp39:
	.cv_loc	9 4 730 0               # C:\Program Files (x86)\Microsoft Visual Studio\2017\Community\VC\Tools\MSVC\14.16.27023\include\vector:730:0
	mov	rcx, qword ptr [rbp - 40] # 8-byte Reload
	call	"??1?$_Vector_alloc@U?$_Vec_base_types@HV?$allocator@H@std@@@std@@@std@@QEAA@XZ"
	nop
	add	rsp, 32
	pop	rbp
	ret                             # CLEANUPRET
.Ltmp40:
.Lfunc_end9:
	.seh_handlerdata
	.section	.text,"xr",discard,"??0?$vector@HV?$allocator@H@std@@@std@@QEAA@V?$initializer_list@H@1@AEBV?$allocator@H@1@@Z"
	.seh_endproc
	.section	.xdata,"dr",associative,"??0?$vector@HV?$allocator@H@std@@@std@@QEAA@V?$initializer_list@H@1@AEBV?$allocator@H@1@@Z"
	.p2align	2
"$cppxdata$??0?$vector@HV?$allocator@H@std@@@std@@QEAA@V?$initializer_list@H@1@AEBV?$allocator@H@1@@Z":
	.long	429065506               # MagicNumber
	.long	1                       # MaxState
	.long	("$stateUnwindMap$??0?$vector@HV?$allocator@H@std@@@std@@QEAA@V?$initializer_list@H@1@AEBV?$allocator@H@1@@Z")@IMGREL # UnwindMap
	.long	0                       # NumTryBlocks
	.long	0                       # TryBlockMap
	.long	3                       # IPMapEntries
	.long	("$ip2state$??0?$vector@HV?$allocator@H@std@@@std@@QEAA@V?$initializer_list@H@1@AEBV?$allocator@H@1@@Z")@IMGREL # IPToStateXData
	.long	88                      # UnwindHelp
	.long	0                       # ESTypeList
	.long	1                       # EHFlags
"$stateUnwindMap$??0?$vector@HV?$allocator@H@std@@@std@@QEAA@V?$initializer_list@H@1@AEBV?$allocator@H@1@@Z":
	.long	-1                      # ToState
	.long	"?dtor$2@?0???0?$vector@HV?$allocator@H@std@@@std@@QEAA@V?$initializer_list@H@1@AEBV?$allocator@H@1@@Z@4HA"@IMGREL # Action
"$ip2state$??0?$vector@HV?$allocator@H@std@@@std@@QEAA@V?$initializer_list@H@1@AEBV?$allocator@H@1@@Z":
	.long	.Lfunc_begin9@IMGREL    # IP
	.long	-1                      # ToState
	.long	.Ltmp30@IMGREL+1        # IP
	.long	0                       # ToState
	.long	.Ltmp31@IMGREL+1        # IP
	.long	-1                      # ToState
	.section	.text,"xr",discard,"??0?$vector@HV?$allocator@H@std@@@std@@QEAA@V?$initializer_list@H@1@AEBV?$allocator@H@1@@Z"
                                        # -- End function
	.def	 "??$?0V?$vector@HV?$allocator@H@std@@@std@@X@?$span@H$0?0@gsl@@QEAA@AEAV?$vector@HV?$allocator@H@std@@@std@@@Z";
	.scl	2;
	.type	32;
	.endef
	.section	.text,"xr",discard,"??$?0V?$vector@HV?$allocator@H@std@@@std@@X@?$span@H$0?0@gsl@@QEAA@AEAV?$vector@HV?$allocator@H@std@@@std@@@Z"
	.globl	"??$?0V?$vector@HV?$allocator@H@std@@@std@@X@?$span@H$0?0@gsl@@QEAA@AEAV?$vector@HV?$allocator@H@std@@@std@@@Z" # -- Begin function ??$?0V?$vector@HV?$allocator@H@std@@@std@@X@?$span@H$0?0@gsl@@QEAA@AEAV?$vector@HV?$allocator@H@std@@@std@@@Z
	.p2align	4, 0x90
"??$?0V?$vector@HV?$allocator@H@std@@@std@@X@?$span@H$0?0@gsl@@QEAA@AEAV?$vector@HV?$allocator@H@std@@@std@@@Z": # @"??$?0V?$vector@HV?$allocator@H@std@@@std@@X@?$span@H$0?0@gsl@@QEAA@AEAV?$vector@HV?$allocator@H@std@@@std@@@Z"
.Lfunc_begin10:
	.cv_func_id 10
	.cv_loc	10 2 428 0              # ..\include\gsl/span:428:0
.seh_proc "??$?0V?$vector@HV?$allocator@H@std@@@std@@X@?$span@H$0?0@gsl@@QEAA@AEAV?$vector@HV?$allocator@H@std@@@std@@@Z"
# %bb.0:
	sub	rsp, 72
	.seh_stackalloc 72
	.seh_endprologue
	mov	qword ptr [rsp + 64], rdx
	mov	qword ptr [rsp + 56], rcx
	mov	rcx, qword ptr [rsp + 56]
.Ltmp41:
	mov	rdx, qword ptr [rsp + 64]
	mov	qword ptr [rsp + 48], rcx # 8-byte Spill
	mov	rcx, rdx
	call	"?size@?$vector@HV?$allocator@H@std@@@std@@QEBA_KXZ"
	mov	rcx, rax
	call	"??$narrow@_J_K@gsl@@YA_J_K@Z"
	mov	rcx, qword ptr [rsp + 64]
	mov	qword ptr [rsp + 40], rax # 8-byte Spill
	call	"?data@?$vector@HV?$allocator@H@std@@@std@@QEAAPEAHXZ"
	mov	rcx, qword ptr [rsp + 48] # 8-byte Reload
	mov	rdx, rax
	mov	r8, qword ptr [rsp + 40] # 8-byte Reload
	call	"??0?$span@H$0?0@gsl@@QEAA@PEAH_J@Z"
	mov	rcx, qword ptr [rsp + 48] # 8-byte Reload
	mov	qword ptr [rsp + 32], rax # 8-byte Spill
	mov	rax, rcx
	add	rsp, 72
	ret
.Ltmp42:
.Lfunc_end10:
	.seh_handlerdata
	.section	.text,"xr",discard,"??$?0V?$vector@HV?$allocator@H@std@@@std@@X@?$span@H$0?0@gsl@@QEAA@AEAV?$vector@HV?$allocator@H@std@@@std@@@Z"
	.seh_endproc
                                        # -- End function
	.def	 "??1?$vector@HV?$allocator@H@std@@@std@@QEAA@XZ";
	.scl	2;
	.type	32;
	.endef
	.section	.text,"xr",discard,"??1?$vector@HV?$allocator@H@std@@@std@@QEAA@XZ"
	.globl	"??1?$vector@HV?$allocator@H@std@@@std@@QEAA@XZ" # -- Begin function ??1?$vector@HV?$allocator@H@std@@@std@@QEAA@XZ
	.p2align	4, 0x90
"??1?$vector@HV?$allocator@H@std@@@std@@QEAA@XZ": # @"??1?$vector@HV?$allocator@H@std@@@std@@QEAA@XZ"
.Lfunc_begin11:
	.cv_func_id 11
	.cv_loc	11 4 893 0              # C:\Program Files (x86)\Microsoft Visual Studio\2017\Community\VC\Tools\MSVC\14.16.27023\include\vector:893:0
.seh_proc "??1?$vector@HV?$allocator@H@std@@@std@@QEAA@XZ"
	.seh_handler __CxxFrameHandler3, @unwind, @except
# %bb.0:
	push	rbp
	.seh_pushreg 5
	sub	rsp, 64
	.seh_stackalloc 64
	lea	rbp, [rsp + 64]
	.seh_setframe 5, 64
	.seh_endprologue
	mov	qword ptr [rbp - 8], -2
	mov	qword ptr [rbp - 16], rcx
	mov	rcx, qword ptr [rbp - 16]
	.cv_loc	11 4 894 0              # C:\Program Files (x86)\Microsoft Visual Studio\2017\Community\VC\Tools\MSVC\14.16.27023\include\vector:894:0
.Ltmp43:
.Ltmp45:
	mov	qword ptr [rbp - 24], rcx # 8-byte Spill
	call	"?_Tidy@?$vector@HV?$allocator@H@std@@@std@@AEAAXXZ"
.Ltmp44:
	jmp	.LBB11_1
.LBB11_1:
	.cv_loc	11 4 895 0              # C:\Program Files (x86)\Microsoft Visual Studio\2017\Community\VC\Tools\MSVC\14.16.27023\include\vector:895:0
	mov	rax, qword ptr [rbp - 24] # 8-byte Reload
	mov	rcx, rax
	call	"??1?$_Vector_alloc@U?$_Vec_base_types@HV?$allocator@H@std@@@std@@@std@@QEAA@XZ"
.Ltmp46:
	.cv_loc	11 4 895 0              # C:\Program Files (x86)\Microsoft Visual Studio\2017\Community\VC\Tools\MSVC\14.16.27023\include\vector:895:0
	nop
	add	rsp, 64
	pop	rbp
	ret
	.seh_handlerdata
	.long	("$cppxdata$??1?$vector@HV?$allocator@H@std@@@std@@QEAA@XZ")@IMGREL
	.section	.text,"xr",discard,"??1?$vector@HV?$allocator@H@std@@@std@@QEAA@XZ"
	.seh_endproc
	.def	 "?dtor$2@?0???1?$vector@HV?$allocator@H@std@@@std@@QEAA@XZ@4HA";
	.scl	3;
	.type	32;
	.endef
	.p2align	4, 0x90
"?dtor$2@?0???1?$vector@HV?$allocator@H@std@@@std@@QEAA@XZ@4HA":
.seh_proc "?dtor$2@?0???1?$vector@HV?$allocator@H@std@@@std@@QEAA@XZ@4HA"
.LBB11_2:
	mov	qword ptr [rsp + 16], rdx
	push	rbp
	.seh_pushreg 5
	sub	rsp, 32
	.seh_stackalloc 32
	lea	rbp, [rdx + 64]
	.seh_endprologue
.Ltmp47:
	.cv_loc	11 4 895 0              # C:\Program Files (x86)\Microsoft Visual Studio\2017\Community\VC\Tools\MSVC\14.16.27023\include\vector:895:0
	mov	rcx, qword ptr [rbp - 24] # 8-byte Reload
	call	"??1?$_Vector_alloc@U?$_Vec_base_types@HV?$allocator@H@std@@@std@@@std@@QEAA@XZ"
	nop
	add	rsp, 32
	pop	rbp
	ret                             # CLEANUPRET
	.seh_handlerdata
	.section	.text,"xr",discard,"??1?$vector@HV?$allocator@H@std@@@std@@QEAA@XZ"
	.seh_endproc
	.def	 "?dtor$3@?0???1?$vector@HV?$allocator@H@std@@@std@@QEAA@XZ@4HA";
	.scl	3;
	.type	32;
	.endef
	.p2align	4, 0x90
"?dtor$3@?0???1?$vector@HV?$allocator@H@std@@@std@@QEAA@XZ@4HA":
.seh_proc "?dtor$3@?0???1?$vector@HV?$allocator@H@std@@@std@@QEAA@XZ@4HA"
.LBB11_3:
	mov	qword ptr [rsp + 16], rdx
	push	rbp
	.seh_pushreg 5
	sub	rsp, 32
	.seh_stackalloc 32
	lea	rbp, [rdx + 64]
	.seh_endprologue
	mov	rax, qword ptr [rip + __imp___std_terminate]
	call	rax
	ud2
.Ltmp48:
.Lfunc_end11:
	.seh_handlerdata
	.section	.text,"xr",discard,"??1?$vector@HV?$allocator@H@std@@@std@@QEAA@XZ"
	.seh_endproc
	.section	.xdata,"dr",associative,"??1?$vector@HV?$allocator@H@std@@@std@@QEAA@XZ"
	.p2align	2
"$cppxdata$??1?$vector@HV?$allocator@H@std@@@std@@QEAA@XZ":
	.long	429065506               # MagicNumber
	.long	2                       # MaxState
	.long	("$stateUnwindMap$??1?$vector@HV?$allocator@H@std@@@std@@QEAA@XZ")@IMGREL # UnwindMap
	.long	0                       # NumTryBlocks
	.long	0                       # TryBlockMap
	.long	3                       # IPMapEntries
	.long	("$ip2state$??1?$vector@HV?$allocator@H@std@@@std@@QEAA@XZ")@IMGREL # IPToStateXData
	.long	56                      # UnwindHelp
	.long	0                       # ESTypeList
	.long	1                       # EHFlags
"$stateUnwindMap$??1?$vector@HV?$allocator@H@std@@@std@@QEAA@XZ":
	.long	-1                      # ToState
	.long	"?dtor$3@?0???1?$vector@HV?$allocator@H@std@@@std@@QEAA@XZ@4HA"@IMGREL # Action
	.long	0                       # ToState
	.long	"?dtor$2@?0???1?$vector@HV?$allocator@H@std@@@std@@QEAA@XZ@4HA"@IMGREL # Action
"$ip2state$??1?$vector@HV?$allocator@H@std@@@std@@QEAA@XZ":
	.long	.Lfunc_begin11@IMGREL   # IP
	.long	-1                      # ToState
	.long	.Ltmp43@IMGREL+1        # IP
	.long	1                       # ToState
	.long	.Ltmp44@IMGREL+1        # IP
	.long	-1                      # ToState
	.section	.text,"xr",discard,"??1?$vector@HV?$allocator@H@std@@@std@@QEAA@XZ"
                                        # -- End function
	.def	 "??0?$extent_type@$0A@@details@gsl@@QEAA@XZ";
	.scl	2;
	.type	32;
	.endef
	.section	.text,"xr",discard,"??0?$extent_type@$0A@@details@gsl@@QEAA@XZ"
	.globl	"??0?$extent_type@$0A@@details@gsl@@QEAA@XZ" # -- Begin function ??0?$extent_type@$0A@@details@gsl@@QEAA@XZ
	.p2align	4, 0x90
"??0?$extent_type@$0A@@details@gsl@@QEAA@XZ": # @"??0?$extent_type@$0A@@details@gsl@@QEAA@XZ"
.Lfunc_begin12:
	.cv_func_id 12
	.cv_loc	12 2 311 0              # ..\include\gsl/span:311:0
.seh_proc "??0?$extent_type@$0A@@details@gsl@@QEAA@XZ"
# %bb.0:
	push	rax
	.seh_stackalloc 8
	.seh_endprologue
	mov	qword ptr [rsp], rcx
	mov	rax, qword ptr [rsp]
.Ltmp49:
	pop	rcx
	ret
.Ltmp50:
.Lfunc_end12:
	.seh_handlerdata
	.section	.text,"xr",discard,"??0?$extent_type@$0A@@details@gsl@@QEAA@XZ"
	.seh_endproc
                                        # -- End function
	.def	 "??$?0V?$extent_type@$0A@@details@gsl@@@?$storage_type@V?$extent_type@$0?0@details@gsl@@@?$span@H$0?0@gsl@@QEAA@PEAHV?$extent_type@$0A@@details@2@@Z";
	.scl	2;
	.type	32;
	.endef
	.section	.text,"xr",discard,"??$?0V?$extent_type@$0A@@details@gsl@@@?$storage_type@V?$extent_type@$0?0@details@gsl@@@?$span@H$0?0@gsl@@QEAA@PEAHV?$extent_type@$0A@@details@2@@Z"
	.globl	"??$?0V?$extent_type@$0A@@details@gsl@@@?$storage_type@V?$extent_type@$0?0@details@gsl@@@?$span@H$0?0@gsl@@QEAA@PEAHV?$extent_type@$0A@@details@2@@Z" # -- Begin function ??$?0V?$extent_type@$0A@@details@gsl@@@?$storage_type@V?$extent_type@$0?0@details@gsl@@@?$span@H$0?0@gsl@@QEAA@PEAHV?$extent_type@$0A@@details@2@@Z
	.p2align	4, 0x90
"??$?0V?$extent_type@$0A@@details@gsl@@@?$storage_type@V?$extent_type@$0?0@details@gsl@@@?$span@H$0?0@gsl@@QEAA@PEAHV?$extent_type@$0A@@details@2@@Z": # @"??$?0V?$extent_type@$0A@@details@gsl@@@?$storage_type@V?$extent_type@$0?0@details@gsl@@@?$span@H$0?0@gsl@@QEAA@PEAHV?$extent_type@$0A@@details@2@@Z"
.Lfunc_begin13:
	.cv_func_id 13
	.cv_loc	13 2 597 0              # ..\include\gsl/span:597:0
.seh_proc "??$?0V?$extent_type@$0A@@details@gsl@@@?$storage_type@V?$extent_type@$0?0@details@gsl@@@?$span@H$0?0@gsl@@QEAA@PEAHV?$extent_type@$0A@@details@2@@Z"
	.seh_handler __CxxFrameHandler3, @unwind, @except
# %bb.0:
	push	rbp
	.seh_pushreg 5
	sub	rsp, 208
	.seh_stackalloc 208
	lea	rbp, [rsp + 128]
	.seh_setframe 5, 128
	.seh_endprologue
	mov	qword ptr [rbp + 72], -2
	mov	byte ptr [rbp + 56], r8b
	mov	qword ptr [rbp + 48], rdx
	mov	qword ptr [rbp + 40], rcx
	mov	rcx, qword ptr [rbp + 40]
	mov	qword ptr [rbp + 64], rcx
.Ltmp55:
	mov	rdx, rcx
	mov	r8b, byte ptr [rbp + 32]
	mov	qword ptr [rbp - 40], rcx # 8-byte Spill
	mov	rcx, rdx
	mov	dl, r8b
	call	"??$?0$0A@@?$extent_type@$0?0@details@gsl@@QEAA@V?$extent_type@$0A@@12@@Z"
	mov	rcx, qword ptr [rbp + 48]
	mov	r9, qword ptr [rbp - 40] # 8-byte Reload
	mov	qword ptr [r9 + 8], rcx
.Ltmp56:
	.cv_loc	13 2 598 0              # ..\include\gsl/span:598:0
	mov	rcx, r9
	mov	qword ptr [rbp - 48], rax # 8-byte Spill
	call	"?size@?$extent_type@$0?0@details@gsl@@QEBA_JXZ"
	cmp	rax, 0
	setge	dl
	mov	byte ptr [rbp + 7], 0
	test	dl, 1
	jne	.LBB13_1
	jmp	.LBB13_2
.LBB13_1:
	test	byte ptr [rbp + 7], 1
	jne	.LBB13_4
	jmp	.LBB13_5
.LBB13_2:
	lea	rdx, [rip + "??_C@_0DG@PPPKJHO@GSL?3?5Precondition?5failure?5at?5?4?4?2@"]
	lea	rax, [rbp + 8]
	mov	rcx, rax
	mov	qword ptr [rbp - 56], rax # 8-byte Spill
	call	"??0fail_fast@gsl@@QEAA@QEBD@Z"
	mov	byte ptr [rbp + 7], 1
.Ltmp51:
	mov	rcx, qword ptr [rbp - 56] # 8-byte Reload
	mov	qword ptr [rbp - 64], rax # 8-byte Spill
	call	"??$throw_exception@Ufail_fast@gsl@@@details@gsl@@YAX$$QEAUfail_fast@1@@Z"
.Ltmp52:
	jmp	.LBB13_3
.LBB13_3:
	ud2
.LBB13_4:
	lea	rcx, [rbp + 8]
	call	"??1fail_fast@gsl@@UEAA@XZ"
.LBB13_5:
	.cv_loc	13 2 599 0              # ..\include\gsl/span:599:0
	mov	rax, qword ptr [rbp + 48]
	mov	byte ptr [rbp - 25], 0
	cmp	rax, 0
	mov	cl, 1
	mov	byte ptr [rbp - 65], cl # 1-byte Spill
	jne	.LBB13_7
# %bb.6:
	mov	rax, qword ptr [rbp - 40] # 8-byte Reload
	mov	rcx, rax
	call	"?size@?$extent_type@$0?0@details@gsl@@QEBA_JXZ"
	cmp	rax, 0
	sete	dl
	mov	byte ptr [rbp - 65], dl # 1-byte Spill
.LBB13_7:
	mov	al, byte ptr [rbp - 65] # 1-byte Reload
	test	al, 1
	jne	.LBB13_8
	jmp	.LBB13_9
.LBB13_8:
	test	byte ptr [rbp - 25], 1
	jne	.LBB13_14
	jmp	.LBB13_15
.LBB13_9:
	lea	rdx, [rip + "??_C@_0DG@BGOEJIDP@GSL?3?5Precondition?5failure?5at?5?4?4?2@"]
	lea	rax, [rbp - 24]
	mov	rcx, rax
	mov	qword ptr [rbp - 80], rax # 8-byte Spill
	call	"??0fail_fast@gsl@@QEAA@QEBD@Z"
	mov	byte ptr [rbp - 25], 1
.Ltmp53:
	mov	rcx, qword ptr [rbp - 80] # 8-byte Reload
	mov	qword ptr [rbp - 88], rax # 8-byte Spill
	call	"??$throw_exception@Ufail_fast@gsl@@@details@gsl@@YAX$$QEAUfail_fast@1@@Z"
.Ltmp54:
	jmp	.LBB13_10
.LBB13_10:
	ud2
.LBB13_14:
	lea	rcx, [rbp - 24]
	call	"??1fail_fast@gsl@@UEAA@XZ"
.Ltmp57:
.LBB13_15:
	.cv_loc	13 2 600 0              # ..\include\gsl/span:600:0
	mov	rax, qword ptr [rbp + 64]
	add	rsp, 208
	pop	rbp
	ret
	.seh_handlerdata
	.long	("$cppxdata$??$?0V?$extent_type@$0A@@details@gsl@@@?$storage_type@V?$extent_type@$0?0@details@gsl@@@?$span@H$0?0@gsl@@QEAA@PEAHV?$extent_type@$0A@@details@2@@Z")@IMGREL
	.section	.text,"xr",discard,"??$?0V?$extent_type@$0A@@details@gsl@@@?$storage_type@V?$extent_type@$0?0@details@gsl@@@?$span@H$0?0@gsl@@QEAA@PEAHV?$extent_type@$0A@@details@2@@Z"
	.seh_endproc
	.def	 "?dtor$11@?0???$?0V?$extent_type@$0A@@details@gsl@@@?$storage_type@V?$extent_type@$0?0@details@gsl@@@?$span@H$0?0@gsl@@QEAA@PEAHV?$extent_type@$0A@@details@2@@Z@4HA";
	.scl	3;
	.type	32;
	.endef
	.p2align	4, 0x90
"?dtor$11@?0???$?0V?$extent_type@$0A@@details@gsl@@@?$storage_type@V?$extent_type@$0?0@details@gsl@@@?$span@H$0?0@gsl@@QEAA@PEAHV?$extent_type@$0A@@details@2@@Z@4HA":
.seh_proc "?dtor$11@?0???$?0V?$extent_type@$0A@@details@gsl@@@?$storage_type@V?$extent_type@$0?0@details@gsl@@@?$span@H$0?0@gsl@@QEAA@PEAHV?$extent_type@$0A@@details@2@@Z@4HA"
.LBB13_11:
	mov	qword ptr [rsp + 16], rdx
	push	rbp
	.seh_pushreg 5
	sub	rsp, 32
	.seh_stackalloc 32
	lea	rbp, [rdx + 128]
	.seh_endprologue
.Ltmp58:
	.cv_loc	13 2 598 0              # ..\include\gsl/span:598:0
	test	byte ptr [rbp + 7], 1
	jne	.LBB13_12
	jmp	.LBB13_13
.LBB13_12:
	lea	rcx, [rbp + 8]
	call	"??1fail_fast@gsl@@UEAA@XZ"
.LBB13_13:
	nop
	add	rsp, 32
	pop	rbp
	ret                             # CLEANUPRET
	.seh_handlerdata
	.section	.text,"xr",discard,"??$?0V?$extent_type@$0A@@details@gsl@@@?$storage_type@V?$extent_type@$0?0@details@gsl@@@?$span@H$0?0@gsl@@QEAA@PEAHV?$extent_type@$0A@@details@2@@Z"
	.seh_endproc
	.def	 "?dtor$16@?0???$?0V?$extent_type@$0A@@details@gsl@@@?$storage_type@V?$extent_type@$0?0@details@gsl@@@?$span@H$0?0@gsl@@QEAA@PEAHV?$extent_type@$0A@@details@2@@Z@4HA";
	.scl	3;
	.type	32;
	.endef
	.p2align	4, 0x90
"?dtor$16@?0???$?0V?$extent_type@$0A@@details@gsl@@@?$storage_type@V?$extent_type@$0?0@details@gsl@@@?$span@H$0?0@gsl@@QEAA@PEAHV?$extent_type@$0A@@details@2@@Z@4HA":
.seh_proc "?dtor$16@?0???$?0V?$extent_type@$0A@@details@gsl@@@?$storage_type@V?$extent_type@$0?0@details@gsl@@@?$span@H$0?0@gsl@@QEAA@PEAHV?$extent_type@$0A@@details@2@@Z@4HA"
.LBB13_16:
	mov	qword ptr [rsp + 16], rdx
	push	rbp
	.seh_pushreg 5
	sub	rsp, 32
	.seh_stackalloc 32
	lea	rbp, [rdx + 128]
	.seh_endprologue
	.cv_loc	13 2 599 0              # ..\include\gsl/span:599:0
	test	byte ptr [rbp - 25], 1
	jne	.LBB13_17
	jmp	.LBB13_18
.LBB13_17:
	lea	rcx, [rbp - 24]
	call	"??1fail_fast@gsl@@UEAA@XZ"
.LBB13_18:
	nop
	add	rsp, 32
	pop	rbp
	ret                             # CLEANUPRET
.Ltmp59:
.Lfunc_end13:
	.seh_handlerdata
	.section	.text,"xr",discard,"??$?0V?$extent_type@$0A@@details@gsl@@@?$storage_type@V?$extent_type@$0?0@details@gsl@@@?$span@H$0?0@gsl@@QEAA@PEAHV?$extent_type@$0A@@details@2@@Z"
	.seh_endproc
	.section	.xdata,"dr",associative,"??$?0V?$extent_type@$0A@@details@gsl@@@?$storage_type@V?$extent_type@$0?0@details@gsl@@@?$span@H$0?0@gsl@@QEAA@PEAHV?$extent_type@$0A@@details@2@@Z"
	.p2align	2
"$cppxdata$??$?0V?$extent_type@$0A@@details@gsl@@@?$storage_type@V?$extent_type@$0?0@details@gsl@@@?$span@H$0?0@gsl@@QEAA@PEAHV?$extent_type@$0A@@details@2@@Z":
	.long	429065506               # MagicNumber
	.long	2                       # MaxState
	.long	("$stateUnwindMap$??$?0V?$extent_type@$0A@@details@gsl@@@?$storage_type@V?$extent_type@$0?0@details@gsl@@@?$span@H$0?0@gsl@@QEAA@PEAHV?$extent_type@$0A@@details@2@@Z")@IMGREL # UnwindMap
	.long	0                       # NumTryBlocks
	.long	0                       # TryBlockMap
	.long	5                       # IPMapEntries
	.long	("$ip2state$??$?0V?$extent_type@$0A@@details@gsl@@@?$storage_type@V?$extent_type@$0?0@details@gsl@@@?$span@H$0?0@gsl@@QEAA@PEAHV?$extent_type@$0A@@details@2@@Z")@IMGREL # IPToStateXData
	.long	200                     # UnwindHelp
	.long	0                       # ESTypeList
	.long	1                       # EHFlags
"$stateUnwindMap$??$?0V?$extent_type@$0A@@details@gsl@@@?$storage_type@V?$extent_type@$0?0@details@gsl@@@?$span@H$0?0@gsl@@QEAA@PEAHV?$extent_type@$0A@@details@2@@Z":
	.long	-1                      # ToState
	.long	"?dtor$11@?0???$?0V?$extent_type@$0A@@details@gsl@@@?$storage_type@V?$extent_type@$0?0@details@gsl@@@?$span@H$0?0@gsl@@QEAA@PEAHV?$extent_type@$0A@@details@2@@Z@4HA"@IMGREL # Action
	.long	-1                      # ToState
	.long	"?dtor$16@?0???$?0V?$extent_type@$0A@@details@gsl@@@?$storage_type@V?$extent_type@$0?0@details@gsl@@@?$span@H$0?0@gsl@@QEAA@PEAHV?$extent_type@$0A@@details@2@@Z@4HA"@IMGREL # Action
"$ip2state$??$?0V?$extent_type@$0A@@details@gsl@@@?$storage_type@V?$extent_type@$0?0@details@gsl@@@?$span@H$0?0@gsl@@QEAA@PEAHV?$extent_type@$0A@@details@2@@Z":
	.long	.Lfunc_begin13@IMGREL   # IP
	.long	-1                      # ToState
	.long	.Ltmp51@IMGREL+1        # IP
	.long	0                       # ToState
	.long	.Ltmp52@IMGREL+1        # IP
	.long	-1                      # ToState
	.long	.Ltmp53@IMGREL+1        # IP
	.long	1                       # ToState
	.long	.Ltmp54@IMGREL+1        # IP
	.long	-1                      # ToState
	.section	.text,"xr",discard,"??$?0V?$extent_type@$0A@@details@gsl@@@?$storage_type@V?$extent_type@$0?0@details@gsl@@@?$span@H$0?0@gsl@@QEAA@PEAHV?$extent_type@$0A@@details@2@@Z"
                                        # -- End function
	.def	 "??$?0$0A@@?$extent_type@$0?0@details@gsl@@QEAA@V?$extent_type@$0A@@12@@Z";
	.scl	2;
	.type	32;
	.endef
	.section	.text,"xr",discard,"??$?0$0A@@?$extent_type@$0?0@details@gsl@@QEAA@V?$extent_type@$0A@@12@@Z"
	.globl	"??$?0$0A@@?$extent_type@$0?0@details@gsl@@QEAA@V?$extent_type@$0A@@12@@Z" # -- Begin function ??$?0$0A@@?$extent_type@$0?0@details@gsl@@QEAA@V?$extent_type@$0A@@12@@Z
	.p2align	4, 0x90
"??$?0$0A@@?$extent_type@$0?0@details@gsl@@QEAA@V?$extent_type@$0A@@12@@Z": # @"??$?0$0A@@?$extent_type@$0?0@details@gsl@@QEAA@V?$extent_type@$0A@@12@@Z"
.Lfunc_begin14:
	.cv_func_id 14
	.cv_loc	14 2 334 0              # ..\include\gsl/span:334:0
.seh_proc "??$?0$0A@@?$extent_type@$0?0@details@gsl@@QEAA@V?$extent_type@$0A@@12@@Z"
# %bb.0:
	sub	rsp, 72
	.seh_stackalloc 72
	.seh_endprologue
	mov	rax, qword ptr [rip + __security_cookie]
	xor	rax, rsp
	mov	qword ptr [rsp + 64], rax
	mov	byte ptr [rsp + 56], dl
	mov	qword ptr [rsp + 48], rcx
	mov	rax, qword ptr [rsp + 48]
.Ltmp60:
	lea	rcx, [rsp + 56]
	#DEBUG_VALUE: extent_type<0>:ext <- [$rcx+0]
	mov	qword ptr [rsp + 40], rax # 8-byte Spill
	call	"?size@?$extent_type@$0A@@details@gsl@@QEBA_JXZ"
.Ltmp61:
	mov	rcx, qword ptr [rsp + 40] # 8-byte Reload
	mov	qword ptr [rcx], rax
	mov	rax, qword ptr [rsp + 64]
	xor	rax, rsp
	mov	rcx, rax
	call	__security_check_cookie
	mov	rax, qword ptr [rsp + 40] # 8-byte Reload
	add	rsp, 72
	ret
.Ltmp62:
.Lfunc_end14:
	.seh_handlerdata
	.section	.text,"xr",discard,"??$?0$0A@@?$extent_type@$0?0@details@gsl@@QEAA@V?$extent_type@$0A@@12@@Z"
	.seh_endproc
                                        # -- End function
	.def	 "?size@?$extent_type@$0?0@details@gsl@@QEBA_JXZ";
	.scl	2;
	.type	32;
	.endef
	.section	.text,"xr",discard,"?size@?$extent_type@$0?0@details@gsl@@QEBA_JXZ"
	.globl	"?size@?$extent_type@$0?0@details@gsl@@QEBA_JXZ" # -- Begin function ?size@?$extent_type@$0?0@details@gsl@@QEBA_JXZ
	.p2align	4, 0x90
"?size@?$extent_type@$0?0@details@gsl@@QEBA_JXZ": # @"?size@?$extent_type@$0?0@details@gsl@@QEBA_JXZ"
.Lfunc_begin15:
	.cv_func_id 15
	.cv_loc	15 2 338 0              # ..\include\gsl/span:338:0
.seh_proc "?size@?$extent_type@$0?0@details@gsl@@QEBA_JXZ"
# %bb.0:
	push	rax
	.seh_stackalloc 8
	.seh_endprologue
	mov	qword ptr [rsp], rcx
	mov	rcx, qword ptr [rsp]
.Ltmp63:
	mov	rax, qword ptr [rcx]
	pop	rcx
	ret
.Ltmp64:
.Lfunc_end15:
	.seh_handlerdata
	.section	.text,"xr",discard,"?size@?$extent_type@$0?0@details@gsl@@QEBA_JXZ"
	.seh_endproc
                                        # -- End function
	.def	 "??$throw_exception@Ufail_fast@gsl@@@details@gsl@@YAX$$QEAUfail_fast@1@@Z";
	.scl	2;
	.type	32;
	.endef
	.section	.text,"xr",discard,"??$throw_exception@Ufail_fast@gsl@@@details@gsl@@YAX$$QEAUfail_fast@1@@Z"
	.globl	"??$throw_exception@Ufail_fast@gsl@@@details@gsl@@YAX$$QEAUfail_fast@1@@Z" # -- Begin function ??$throw_exception@Ufail_fast@gsl@@@details@gsl@@YAX$$QEAUfail_fast@1@@Z
	.p2align	4, 0x90
"??$throw_exception@Ufail_fast@gsl@@@details@gsl@@YAX$$QEAUfail_fast@1@@Z": # @"??$throw_exception@Ufail_fast@gsl@@@details@gsl@@YAX$$QEAUfail_fast@1@@Z"
.Lfunc_begin16:
	.cv_func_id 16
	.cv_file	5 "C:\\projects\\gsl\\include\\gsl\\gsl_assert" "DC2D278DC08DD14FC7E736FCD7722B8E" 1
	.cv_loc	16 5 143 0              # ..\include\gsl/gsl_assert:143:0
.seh_proc "??$throw_exception@Ufail_fast@gsl@@@details@gsl@@YAX$$QEAUfail_fast@1@@Z"
# %bb.0:
	sub	rsp, 88
	.seh_stackalloc 88
	.seh_endprologue
	mov	qword ptr [rsp + 80], rcx
.Ltmp65:
	.cv_loc	16 5 144 0              # ..\include\gsl/gsl_assert:144:0
	mov	rcx, qword ptr [rsp + 80]
	call	"??$forward@Ufail_fast@gsl@@@std@@YA$$QEAUfail_fast@gsl@@AEAU12@@Z"
	lea	rcx, [rsp + 56]
	mov	qword ptr [rsp + 48], rcx # 8-byte Spill
	mov	rdx, rax
	call	"??0fail_fast@gsl@@QEAA@$$QEAU01@@Z"
	lea	rdx, [rip + "_TI3?AUfail_fast@gsl@@"]
	mov	rcx, qword ptr [rip + __imp__CxxThrowException]
	mov	r8, qword ptr [rsp + 48] # 8-byte Reload
	mov	qword ptr [rsp + 40], rcx # 8-byte Spill
	mov	rcx, r8
	mov	r9, qword ptr [rsp + 40] # 8-byte Reload
	mov	qword ptr [rsp + 32], rax # 8-byte Spill
	call	r9
	ud2
.Ltmp66:
.Lfunc_end16:
	.seh_handlerdata
	.section	.text,"xr",discard,"??$throw_exception@Ufail_fast@gsl@@@details@gsl@@YAX$$QEAUfail_fast@1@@Z"
	.seh_endproc
                                        # -- End function
	.def	 "??0fail_fast@gsl@@QEAA@QEBD@Z";
	.scl	2;
	.type	32;
	.endef
	.section	.text,"xr",discard,"??0fail_fast@gsl@@QEAA@QEBD@Z"
	.globl	"??0fail_fast@gsl@@QEAA@QEBD@Z" # -- Begin function ??0fail_fast@gsl@@QEAA@QEBD@Z
	.p2align	4, 0x90
"??0fail_fast@gsl@@QEAA@QEBD@Z":        # @"??0fail_fast@gsl@@QEAA@QEBD@Z"
.Lfunc_begin17:
	.cv_func_id 17
	.cv_loc	17 5 99 0               # ..\include\gsl/gsl_assert:99:0
.seh_proc "??0fail_fast@gsl@@QEAA@QEBD@Z"
# %bb.0:
	sub	rsp, 72
	.seh_stackalloc 72
	.seh_endprologue
	mov	qword ptr [rsp + 64], rdx
	mov	qword ptr [rsp + 56], rcx
	mov	rcx, qword ptr [rsp + 56]
.Ltmp67:
	mov	rdx, rcx
	mov	rax, qword ptr [rsp + 64]
	mov	qword ptr [rsp + 48], rcx # 8-byte Spill
	mov	rcx, rdx
	mov	rdx, rax
	call	"??0logic_error@std@@QEAA@PEBD@Z"
	lea	rcx, [rip + "??_7fail_fast@gsl@@6B@"]
	mov	rdx, qword ptr [rsp + 48] # 8-byte Reload
	mov	qword ptr [rdx], rcx
	mov	qword ptr [rsp + 40], rax # 8-byte Spill
	mov	rax, rdx
	add	rsp, 72
	ret
.Ltmp68:
.Lfunc_end17:
	.seh_handlerdata
	.section	.text,"xr",discard,"??0fail_fast@gsl@@QEAA@QEBD@Z"
	.seh_endproc
                                        # -- End function
	.def	 "??1fail_fast@gsl@@UEAA@XZ";
	.scl	2;
	.type	32;
	.endef
	.section	.text,"xr",discard,"??1fail_fast@gsl@@UEAA@XZ"
	.globl	"??1fail_fast@gsl@@UEAA@XZ" # -- Begin function ??1fail_fast@gsl@@UEAA@XZ
	.p2align	4, 0x90
"??1fail_fast@gsl@@UEAA@XZ":            # @"??1fail_fast@gsl@@UEAA@XZ"
.Lfunc_begin18:
	.cv_func_id 18
	.cv_loc	18 5 97 0               # ..\include\gsl/gsl_assert:97:0
.seh_proc "??1fail_fast@gsl@@UEAA@XZ"
# %bb.0:
	sub	rsp, 40
	.seh_stackalloc 40
	.seh_endprologue
	mov	qword ptr [rsp + 32], rcx
	mov	rcx, qword ptr [rsp + 32]
.Ltmp69:
	.cv_loc	18 5 97 0               # ..\include\gsl/gsl_assert:97:0
	call	"??1logic_error@std@@UEAA@XZ"
.Ltmp70:
	.cv_loc	18 5 97 0               # ..\include\gsl/gsl_assert:97:0
	nop
	add	rsp, 40
	ret
.Ltmp71:
.Lfunc_end18:
	.seh_handlerdata
	.section	.text,"xr",discard,"??1fail_fast@gsl@@UEAA@XZ"
	.seh_endproc
                                        # -- End function
	.def	 "?size@?$extent_type@$0A@@details@gsl@@QEBA_JXZ";
	.scl	2;
	.type	32;
	.endef
	.section	.text,"xr",discard,"?size@?$extent_type@$0A@@details@gsl@@QEBA_JXZ"
	.globl	"?size@?$extent_type@$0A@@details@gsl@@QEBA_JXZ" # -- Begin function ?size@?$extent_type@$0A@@details@gsl@@QEBA_JXZ
	.p2align	4, 0x90
"?size@?$extent_type@$0A@@details@gsl@@QEBA_JXZ": # @"?size@?$extent_type@$0A@@details@gsl@@QEBA_JXZ"
.Lfunc_begin19:
	.cv_func_id 19
	.cv_loc	19 2 323 0              # ..\include\gsl/span:323:0
.seh_proc "?size@?$extent_type@$0A@@details@gsl@@QEBA_JXZ"
# %bb.0:
	push	rax
	.seh_stackalloc 8
	.seh_endprologue
	xor	eax, eax
                                        # kill: def $rax killed $eax
	mov	qword ptr [rsp], rcx
.Ltmp72:
	pop	rcx
	ret
.Ltmp73:
.Lfunc_end19:
	.seh_handlerdata
	.section	.text,"xr",discard,"?size@?$extent_type@$0A@@details@gsl@@QEBA_JXZ"
	.seh_endproc
                                        # -- End function
	.def	 "??$forward@Ufail_fast@gsl@@@std@@YA$$QEAUfail_fast@gsl@@AEAU12@@Z";
	.scl	2;
	.type	32;
	.endef
	.section	.text,"xr",discard,"??$forward@Ufail_fast@gsl@@@std@@YA$$QEAUfail_fast@gsl@@AEAU12@@Z"
	.globl	"??$forward@Ufail_fast@gsl@@@std@@YA$$QEAUfail_fast@gsl@@AEAU12@@Z" # -- Begin function ??$forward@Ufail_fast@gsl@@@std@@YA$$QEAUfail_fast@gsl@@AEAU12@@Z
	.p2align	4, 0x90
"??$forward@Ufail_fast@gsl@@@std@@YA$$QEAUfail_fast@gsl@@AEAU12@@Z": # @"??$forward@Ufail_fast@gsl@@@std@@YA$$QEAUfail_fast@gsl@@AEAU12@@Z"
.Lfunc_begin20:
	.cv_func_id 20
	.cv_file	6 "C:\\Program Files (x86)\\Microsoft Visual Studio\\2017\\Community\\VC\\Tools\\MSVC\\14.16.27023\\include\\type_traits" "31392DB14D6313D8182AD771AA06F210" 1
	.cv_loc	20 6 1573 0             # C:\Program Files (x86)\Microsoft Visual Studio\2017\Community\VC\Tools\MSVC\14.16.27023\include\type_traits:1573:0
.seh_proc "??$forward@Ufail_fast@gsl@@@std@@YA$$QEAUfail_fast@gsl@@AEAU12@@Z"
# %bb.0:
	push	rax
	.seh_stackalloc 8
	.seh_endprologue
	mov	qword ptr [rsp], rcx
.Ltmp74:
	.cv_loc	20 6 1574 0             # C:\Program Files (x86)\Microsoft Visual Studio\2017\Community\VC\Tools\MSVC\14.16.27023\include\type_traits:1574:0
	mov	rax, qword ptr [rsp]
	pop	rcx
	ret
.Ltmp75:
.Lfunc_end20:
	.seh_handlerdata
	.section	.text,"xr",discard,"??$forward@Ufail_fast@gsl@@@std@@YA$$QEAUfail_fast@gsl@@AEAU12@@Z"
	.seh_endproc
                                        # -- End function
	.def	 "??0fail_fast@gsl@@QEAA@$$QEAU01@@Z";
	.scl	2;
	.type	32;
	.endef
	.section	.text,"xr",discard,"??0fail_fast@gsl@@QEAA@$$QEAU01@@Z"
	.globl	"??0fail_fast@gsl@@QEAA@$$QEAU01@@Z" # -- Begin function ??0fail_fast@gsl@@QEAA@$$QEAU01@@Z
	.p2align	4, 0x90
"??0fail_fast@gsl@@QEAA@$$QEAU01@@Z":   # @"??0fail_fast@gsl@@QEAA@$$QEAU01@@Z"
.Lfunc_begin21:
	.cv_func_id 21
	.cv_loc	21 5 97 0               # ..\include\gsl/gsl_assert:97:0
.seh_proc "??0fail_fast@gsl@@QEAA@$$QEAU01@@Z"
# %bb.0:
	sub	rsp, 72
	.seh_stackalloc 72
	.seh_endprologue
	mov	qword ptr [rsp + 64], rdx
	mov	qword ptr [rsp + 56], rcx
	mov	rcx, qword ptr [rsp + 56]
.Ltmp76:
	mov	rdx, rcx
	mov	rax, qword ptr [rsp + 64]
	mov	qword ptr [rsp + 48], rcx # 8-byte Spill
	mov	rcx, rdx
	mov	rdx, rax
	call	"??0logic_error@std@@QEAA@$$QEAV01@@Z"
	lea	rcx, [rip + "??_7fail_fast@gsl@@6B@"]
	mov	rdx, qword ptr [rsp + 48] # 8-byte Reload
	mov	qword ptr [rdx], rcx
	mov	qword ptr [rsp + 40], rax # 8-byte Spill
	mov	rax, rdx
	add	rsp, 72
	ret
.Ltmp77:
.Lfunc_end21:
	.seh_handlerdata
	.section	.text,"xr",discard,"??0fail_fast@gsl@@QEAA@$$QEAU01@@Z"
	.seh_endproc
                                        # -- End function
	.def	 "??0fail_fast@gsl@@QEAA@AEBU01@@Z";
	.scl	2;
	.type	32;
	.endef
	.section	.text,"xr",discard,"??0fail_fast@gsl@@QEAA@AEBU01@@Z"
	.globl	"??0fail_fast@gsl@@QEAA@AEBU01@@Z" # -- Begin function ??0fail_fast@gsl@@QEAA@AEBU01@@Z
	.p2align	4, 0x90
"??0fail_fast@gsl@@QEAA@AEBU01@@Z":     # @"??0fail_fast@gsl@@QEAA@AEBU01@@Z"
.Lfunc_begin22:
	.cv_func_id 22
	.cv_loc	22 5 97 0               # ..\include\gsl/gsl_assert:97:0
.seh_proc "??0fail_fast@gsl@@QEAA@AEBU01@@Z"
# %bb.0:
	sub	rsp, 72
	.seh_stackalloc 72
	.seh_endprologue
	mov	qword ptr [rsp + 64], rdx
	mov	qword ptr [rsp + 56], rcx
	mov	rcx, qword ptr [rsp + 56]
.Ltmp78:
	mov	rdx, rcx
	mov	rax, qword ptr [rsp + 64]
	mov	qword ptr [rsp + 48], rcx # 8-byte Spill
	mov	rcx, rdx
	mov	rdx, rax
	call	"??0logic_error@std@@QEAA@AEBV01@@Z"
	lea	rcx, [rip + "??_7fail_fast@gsl@@6B@"]
	mov	rdx, qword ptr [rsp + 48] # 8-byte Reload
	mov	qword ptr [rdx], rcx
	mov	qword ptr [rsp + 40], rax # 8-byte Spill
	mov	rax, rdx
	add	rsp, 72
	ret
.Ltmp79:
.Lfunc_end22:
	.seh_handlerdata
	.section	.text,"xr",discard,"??0fail_fast@gsl@@QEAA@AEBU01@@Z"
	.seh_endproc
                                        # -- End function
	.def	 "??0logic_error@std@@QEAA@AEBV01@@Z";
	.scl	2;
	.type	32;
	.endef
	.section	.text,"xr",discard,"??0logic_error@std@@QEAA@AEBV01@@Z"
	.globl	"??0logic_error@std@@QEAA@AEBV01@@Z" # -- Begin function ??0logic_error@std@@QEAA@AEBV01@@Z
	.p2align	4, 0x90
"??0logic_error@std@@QEAA@AEBV01@@Z":   # @"??0logic_error@std@@QEAA@AEBV01@@Z"
.Lfunc_begin23:
	.cv_func_id 23
	.cv_file	7 "C:\\Program Files (x86)\\Microsoft Visual Studio\\2017\\Community\\VC\\Tools\\MSVC\\14.16.27023\\include\\stdexcept" "2FE06AF7EACFB232C6FF033DBFC4412E" 1
	.cv_loc	23 7 17 0               # C:\Program Files (x86)\Microsoft Visual Studio\2017\Community\VC\Tools\MSVC\14.16.27023\include\stdexcept:17:0
.seh_proc "??0logic_error@std@@QEAA@AEBV01@@Z"
# %bb.0:
	sub	rsp, 72
	.seh_stackalloc 72
	.seh_endprologue
	mov	qword ptr [rsp + 64], rdx
	mov	qword ptr [rsp + 56], rcx
	mov	rcx, qword ptr [rsp + 56]
.Ltmp80:
	mov	rdx, rcx
	mov	rax, qword ptr [rsp + 64]
	mov	qword ptr [rsp + 48], rcx # 8-byte Spill
	mov	rcx, rdx
	mov	rdx, rax
	call	"??0exception@std@@QEAA@AEBV01@@Z"
	lea	rcx, [rip + "??_7logic_error@std@@6B@"]
	mov	rdx, qword ptr [rsp + 48] # 8-byte Reload
	mov	qword ptr [rdx], rcx
	mov	qword ptr [rsp + 40], rax # 8-byte Spill
	mov	rax, rdx
	add	rsp, 72
	ret
.Ltmp81:
.Lfunc_end23:
	.seh_handlerdata
	.section	.text,"xr",discard,"??0logic_error@std@@QEAA@AEBV01@@Z"
	.seh_endproc
                                        # -- End function
	.def	 "??0exception@std@@QEAA@AEBV01@@Z";
	.scl	2;
	.type	32;
	.endef
	.section	.text,"xr",discard,"??0exception@std@@QEAA@AEBV01@@Z"
	.globl	"??0exception@std@@QEAA@AEBV01@@Z" # -- Begin function ??0exception@std@@QEAA@AEBV01@@Z
	.p2align	4, 0x90
"??0exception@std@@QEAA@AEBV01@@Z":     # @"??0exception@std@@QEAA@AEBV01@@Z"
.Lfunc_begin24:
	.cv_func_id 24
	.cv_file	8 "C:\\Program Files (x86)\\Microsoft Visual Studio\\2017\\Community\\VC\\Tools\\MSVC\\14.16.27023\\include\\vcruntime_exception.h" "6C163BAA92D5C81892AD5480D109CCEE" 1
	.cv_loc	24 8 68 0               # C:\Program Files (x86)\Microsoft Visual Studio\2017\Community\VC\Tools\MSVC\14.16.27023\include\vcruntime_exception.h:68:0
.seh_proc "??0exception@std@@QEAA@AEBV01@@Z"
# %bb.0:
	sub	rsp, 72
	.seh_stackalloc 72
	.seh_endprologue
	xor	eax, eax
	mov	r8d, 16
                                        # kill: def $r8 killed $r8d
	lea	r9, [rip + "??_7exception@std@@6B@"]
	mov	qword ptr [rsp + 64], rdx
	mov	qword ptr [rsp + 56], rcx
	mov	rcx, qword ptr [rsp + 56]
.Ltmp82:
	mov	qword ptr [rcx], r9
	mov	rdx, rcx
	add	rdx, 8
	mov	qword ptr [rsp + 48], rcx # 8-byte Spill
	mov	rcx, rdx
	mov	edx, eax
	call	memset
.Ltmp83:
	.cv_loc	24 8 69 0               # C:\Program Files (x86)\Microsoft Visual Studio\2017\Community\VC\Tools\MSVC\14.16.27023\include\vcruntime_exception.h:69:0
	mov	rcx, qword ptr [rsp + 48] # 8-byte Reload
	add	rcx, 8
	mov	r8, qword ptr [rsp + 64]
	add	r8, 8
	mov	qword ptr [rsp + 40], rcx # 8-byte Spill
	mov	rcx, r8
	mov	rdx, qword ptr [rsp + 40] # 8-byte Reload
	call	__std_exception_copy
.Ltmp84:
	.cv_loc	24 8 70 0               # C:\Program Files (x86)\Microsoft Visual Studio\2017\Community\VC\Tools\MSVC\14.16.27023\include\vcruntime_exception.h:70:0
	mov	rax, qword ptr [rsp + 48] # 8-byte Reload
	add	rsp, 72
	ret
.Ltmp85:
.Lfunc_end24:
	.seh_handlerdata
	.section	.text,"xr",discard,"??0exception@std@@QEAA@AEBV01@@Z"
	.seh_endproc
                                        # -- End function
	.def	 "??0logic_error@std@@QEAA@$$QEAV01@@Z";
	.scl	2;
	.type	32;
	.endef
	.section	.text,"xr",discard,"??0logic_error@std@@QEAA@$$QEAV01@@Z"
	.globl	"??0logic_error@std@@QEAA@$$QEAV01@@Z" # -- Begin function ??0logic_error@std@@QEAA@$$QEAV01@@Z
	.p2align	4, 0x90
"??0logic_error@std@@QEAA@$$QEAV01@@Z": # @"??0logic_error@std@@QEAA@$$QEAV01@@Z"
.Lfunc_begin25:
	.cv_func_id 25
	.cv_loc	25 7 17 0               # C:\Program Files (x86)\Microsoft Visual Studio\2017\Community\VC\Tools\MSVC\14.16.27023\include\stdexcept:17:0
.seh_proc "??0logic_error@std@@QEAA@$$QEAV01@@Z"
# %bb.0:
	sub	rsp, 72
	.seh_stackalloc 72
	.seh_endprologue
	mov	qword ptr [rsp + 64], rdx
	mov	qword ptr [rsp + 56], rcx
	mov	rcx, qword ptr [rsp + 56]
.Ltmp86:
	mov	rdx, rcx
	mov	rax, qword ptr [rsp + 64]
	mov	qword ptr [rsp + 48], rcx # 8-byte Spill
	mov	rcx, rdx
	mov	rdx, rax
	call	"??0exception@std@@QEAA@AEBV01@@Z"
	lea	rcx, [rip + "??_7logic_error@std@@6B@"]
	mov	rdx, qword ptr [rsp + 48] # 8-byte Reload
	mov	qword ptr [rdx], rcx
	mov	qword ptr [rsp + 40], rax # 8-byte Spill
	mov	rax, rdx
	add	rsp, 72
	ret
.Ltmp87:
.Lfunc_end25:
	.seh_handlerdata
	.section	.text,"xr",discard,"??0logic_error@std@@QEAA@$$QEAV01@@Z"
	.seh_endproc
                                        # -- End function
	.def	 "??_Gfail_fast@gsl@@UEAAPEAXI@Z";
	.scl	2;
	.type	32;
	.endef
	.section	.text,"xr",discard,"??_Gfail_fast@gsl@@UEAAPEAXI@Z"
	.globl	"??_Gfail_fast@gsl@@UEAAPEAXI@Z" # -- Begin function ??_Gfail_fast@gsl@@UEAAPEAXI@Z
	.p2align	4, 0x90
"??_Gfail_fast@gsl@@UEAAPEAXI@Z":       # @"??_Gfail_fast@gsl@@UEAAPEAXI@Z"
.Lfunc_begin26:
	.cv_func_id 26
	.cv_loc	26 5 97 0               # ..\include\gsl/gsl_assert:97:0
.seh_proc "??_Gfail_fast@gsl@@UEAAPEAXI@Z"
# %bb.0:
	sub	rsp, 72
	.seh_stackalloc 72
	.seh_endprologue
	mov	dword ptr [rsp + 60], edx
	mov	qword ptr [rsp + 48], rcx
	mov	rcx, qword ptr [rsp + 48]
	mov	rax, rcx
	mov	qword ptr [rsp + 64], rax
	mov	edx, dword ptr [rsp + 60]
.Ltmp88:
	mov	qword ptr [rsp + 40], rcx # 8-byte Spill
	mov	dword ptr [rsp + 36], edx # 4-byte Spill
	call	"??1fail_fast@gsl@@UEAA@XZ"
	mov	edx, dword ptr [rsp + 36] # 4-byte Reload
	cmp	edx, 0
	je	.LBB26_2
# %bb.1:
	mov	rax, qword ptr [rsp + 40] # 8-byte Reload
	mov	rcx, rax
	call	"??3@YAXPEAX@Z"
.LBB26_2:
	mov	rax, qword ptr [rsp + 64]
	add	rsp, 72
	ret
.Ltmp89:
.Lfunc_end26:
	.seh_handlerdata
	.section	.text,"xr",discard,"??_Gfail_fast@gsl@@UEAAPEAXI@Z"
	.seh_endproc
                                        # -- End function
	.def	 "?what@exception@std@@UEBAPEBDXZ";
	.scl	2;
	.type	32;
	.endef
	.section	.text,"xr",discard,"?what@exception@std@@UEBAPEBDXZ"
	.globl	"?what@exception@std@@UEBAPEBDXZ" # -- Begin function ?what@exception@std@@UEBAPEBDXZ
	.p2align	4, 0x90
"?what@exception@std@@UEBAPEBDXZ":      # @"?what@exception@std@@UEBAPEBDXZ"
.Lfunc_begin27:
	.cv_func_id 27
	.cv_loc	27 8 90 0               # C:\Program Files (x86)\Microsoft Visual Studio\2017\Community\VC\Tools\MSVC\14.16.27023\include\vcruntime_exception.h:90:0
.seh_proc "?what@exception@std@@UEBAPEBDXZ"
# %bb.0:
	sub	rsp, 24
	.seh_stackalloc 24
	.seh_endprologue
	mov	qword ptr [rsp + 16], rcx
	mov	rcx, qword ptr [rsp + 16]
.Ltmp90:
	.cv_loc	27 8 91 0               # C:\Program Files (x86)\Microsoft Visual Studio\2017\Community\VC\Tools\MSVC\14.16.27023\include\vcruntime_exception.h:91:0
	cmp	qword ptr [rcx + 8], 0
	mov	qword ptr [rsp + 8], rcx # 8-byte Spill
	je	.LBB27_2
# %bb.1:
	mov	rax, qword ptr [rsp + 8] # 8-byte Reload
	mov	rcx, qword ptr [rax + 8]
	mov	qword ptr [rsp], rcx    # 8-byte Spill
	jmp	.LBB27_3
.LBB27_2:
	lea	rax, [rip + "??_C@_0BC@EOODALEL@Unknown?5exception?$AA@"]
	mov	qword ptr [rsp], rax    # 8-byte Spill
	jmp	.LBB27_3
.LBB27_3:
	mov	rax, qword ptr [rsp]    # 8-byte Reload
	add	rsp, 24
	ret
.Ltmp91:
.Lfunc_end27:
	.seh_handlerdata
	.section	.text,"xr",discard,"?what@exception@std@@UEBAPEBDXZ"
	.seh_endproc
                                        # -- End function
	.def	 "??_Glogic_error@std@@UEAAPEAXI@Z";
	.scl	2;
	.type	32;
	.endef
	.section	.text,"xr",discard,"??_Glogic_error@std@@UEAAPEAXI@Z"
	.globl	"??_Glogic_error@std@@UEAAPEAXI@Z" # -- Begin function ??_Glogic_error@std@@UEAAPEAXI@Z
	.p2align	4, 0x90
"??_Glogic_error@std@@UEAAPEAXI@Z":     # @"??_Glogic_error@std@@UEAAPEAXI@Z"
.Lfunc_begin28:
	.cv_func_id 28
	.cv_loc	28 7 17 0               # C:\Program Files (x86)\Microsoft Visual Studio\2017\Community\VC\Tools\MSVC\14.16.27023\include\stdexcept:17:0
.seh_proc "??_Glogic_error@std@@UEAAPEAXI@Z"
# %bb.0:
	sub	rsp, 72
	.seh_stackalloc 72
	.seh_endprologue
	mov	dword ptr [rsp + 60], edx
	mov	qword ptr [rsp + 48], rcx
	mov	rcx, qword ptr [rsp + 48]
	mov	rax, rcx
	mov	qword ptr [rsp + 64], rax
	mov	edx, dword ptr [rsp + 60]
.Ltmp92:
	mov	qword ptr [rsp + 40], rcx # 8-byte Spill
	mov	dword ptr [rsp + 36], edx # 4-byte Spill
	call	"??1logic_error@std@@UEAA@XZ"
	mov	edx, dword ptr [rsp + 36] # 4-byte Reload
	cmp	edx, 0
	je	.LBB28_2
# %bb.1:
	mov	rax, qword ptr [rsp + 40] # 8-byte Reload
	mov	rcx, rax
	call	"??3@YAXPEAX@Z"
.LBB28_2:
	mov	rax, qword ptr [rsp + 64]
	add	rsp, 72
	ret
.Ltmp93:
.Lfunc_end28:
	.seh_handlerdata
	.section	.text,"xr",discard,"??_Glogic_error@std@@UEAAPEAXI@Z"
	.seh_endproc
                                        # -- End function
	.def	 "??1logic_error@std@@UEAA@XZ";
	.scl	2;
	.type	32;
	.endef
	.section	.text,"xr",discard,"??1logic_error@std@@UEAA@XZ"
	.globl	"??1logic_error@std@@UEAA@XZ" # -- Begin function ??1logic_error@std@@UEAA@XZ
	.p2align	4, 0x90
"??1logic_error@std@@UEAA@XZ":          # @"??1logic_error@std@@UEAA@XZ"
.Lfunc_begin29:
	.cv_func_id 29
	.cv_loc	29 7 17 0               # C:\Program Files (x86)\Microsoft Visual Studio\2017\Community\VC\Tools\MSVC\14.16.27023\include\stdexcept:17:0
.seh_proc "??1logic_error@std@@UEAA@XZ"
# %bb.0:
	sub	rsp, 40
	.seh_stackalloc 40
	.seh_endprologue
	mov	qword ptr [rsp + 32], rcx
	mov	rcx, qword ptr [rsp + 32]
.Ltmp94:
	.cv_loc	29 7 17 0               # C:\Program Files (x86)\Microsoft Visual Studio\2017\Community\VC\Tools\MSVC\14.16.27023\include\stdexcept:17:0
	call	"??1exception@std@@UEAA@XZ"
.Ltmp95:
	.cv_loc	29 7 17 0               # C:\Program Files (x86)\Microsoft Visual Studio\2017\Community\VC\Tools\MSVC\14.16.27023\include\stdexcept:17:0
	nop
	add	rsp, 40
	ret
.Ltmp96:
.Lfunc_end29:
	.seh_handlerdata
	.section	.text,"xr",discard,"??1logic_error@std@@UEAA@XZ"
	.seh_endproc
                                        # -- End function
	.def	 "??1exception@std@@UEAA@XZ";
	.scl	2;
	.type	32;
	.endef
	.section	.text,"xr",discard,"??1exception@std@@UEAA@XZ"
	.globl	"??1exception@std@@UEAA@XZ" # -- Begin function ??1exception@std@@UEAA@XZ
	.p2align	4, 0x90
"??1exception@std@@UEAA@XZ":            # @"??1exception@std@@UEAA@XZ"
.Lfunc_begin30:
	.cv_func_id 30
	.cv_loc	30 8 85 0               # C:\Program Files (x86)\Microsoft Visual Studio\2017\Community\VC\Tools\MSVC\14.16.27023\include\vcruntime_exception.h:85:0
.seh_proc "??1exception@std@@UEAA@XZ"
# %bb.0:
	sub	rsp, 40
	.seh_stackalloc 40
	.seh_endprologue
	lea	rax, [rip + "??_7exception@std@@6B@"]
	mov	qword ptr [rsp + 32], rcx
	mov	rcx, qword ptr [rsp + 32]
.Ltmp97:
	mov	qword ptr [rcx], rax
.Ltmp98:
	.cv_loc	30 8 86 0               # C:\Program Files (x86)\Microsoft Visual Studio\2017\Community\VC\Tools\MSVC\14.16.27023\include\vcruntime_exception.h:86:0
	add	rcx, 8
	call	__std_exception_destroy
.Ltmp99:
	.cv_loc	30 8 87 0               # C:\Program Files (x86)\Microsoft Visual Studio\2017\Community\VC\Tools\MSVC\14.16.27023\include\vcruntime_exception.h:87:0
	nop
	add	rsp, 40
	ret
.Ltmp100:
.Lfunc_end30:
	.seh_handlerdata
	.section	.text,"xr",discard,"??1exception@std@@UEAA@XZ"
	.seh_endproc
                                        # -- End function
	.def	 "??_Gexception@std@@UEAAPEAXI@Z";
	.scl	2;
	.type	32;
	.endef
	.section	.text,"xr",discard,"??_Gexception@std@@UEAAPEAXI@Z"
	.globl	"??_Gexception@std@@UEAAPEAXI@Z" # -- Begin function ??_Gexception@std@@UEAAPEAXI@Z
	.p2align	4, 0x90
"??_Gexception@std@@UEAAPEAXI@Z":       # @"??_Gexception@std@@UEAAPEAXI@Z"
.Lfunc_begin31:
	.cv_func_id 31
	.cv_loc	31 8 85 0               # C:\Program Files (x86)\Microsoft Visual Studio\2017\Community\VC\Tools\MSVC\14.16.27023\include\vcruntime_exception.h:85:0
.seh_proc "??_Gexception@std@@UEAAPEAXI@Z"
# %bb.0:
	sub	rsp, 72
	.seh_stackalloc 72
	.seh_endprologue
	mov	dword ptr [rsp + 60], edx
	mov	qword ptr [rsp + 48], rcx
	mov	rcx, qword ptr [rsp + 48]
	mov	rax, rcx
	mov	qword ptr [rsp + 64], rax
	mov	edx, dword ptr [rsp + 60]
.Ltmp101:
	mov	qword ptr [rsp + 40], rcx # 8-byte Spill
	mov	dword ptr [rsp + 36], edx # 4-byte Spill
	call	"??1exception@std@@UEAA@XZ"
	mov	edx, dword ptr [rsp + 36] # 4-byte Reload
	cmp	edx, 0
	je	.LBB31_2
# %bb.1:
	mov	rax, qword ptr [rsp + 40] # 8-byte Reload
	mov	rcx, rax
	call	"??3@YAXPEAX@Z"
.LBB31_2:
	.cv_loc	31 8 87 0               # C:\Program Files (x86)\Microsoft Visual Studio\2017\Community\VC\Tools\MSVC\14.16.27023\include\vcruntime_exception.h:87:0
	mov	rax, qword ptr [rsp + 64]
	add	rsp, 72
	ret
.Ltmp102:
.Lfunc_end31:
	.seh_handlerdata
	.section	.text,"xr",discard,"??_Gexception@std@@UEAAPEAXI@Z"
	.seh_endproc
                                        # -- End function
	.def	 "??0logic_error@std@@QEAA@PEBD@Z";
	.scl	2;
	.type	32;
	.endef
	.section	.text,"xr",discard,"??0logic_error@std@@QEAA@PEBD@Z"
	.globl	"??0logic_error@std@@QEAA@PEBD@Z" # -- Begin function ??0logic_error@std@@QEAA@PEBD@Z
	.p2align	4, 0x90
"??0logic_error@std@@QEAA@PEBD@Z":      # @"??0logic_error@std@@QEAA@PEBD@Z"
.Lfunc_begin32:
	.cv_func_id 32
	.cv_loc	32 7 30 0               # C:\Program Files (x86)\Microsoft Visual Studio\2017\Community\VC\Tools\MSVC\14.16.27023\include\stdexcept:30:0
.seh_proc "??0logic_error@std@@QEAA@PEBD@Z"
# %bb.0:
	sub	rsp, 72
	.seh_stackalloc 72
	.seh_endprologue
	mov	qword ptr [rsp + 64], rdx
	mov	qword ptr [rsp + 56], rcx
	mov	rcx, qword ptr [rsp + 56]
.Ltmp103:
	mov	rdx, rcx
	mov	rax, qword ptr [rsp + 64]
	mov	qword ptr [rsp + 48], rcx # 8-byte Spill
	mov	rcx, rdx
	mov	rdx, rax
	call	"??0exception@std@@QEAA@QEBD@Z"
	lea	rcx, [rip + "??_7logic_error@std@@6B@"]
	mov	rdx, qword ptr [rsp + 48] # 8-byte Reload
	mov	qword ptr [rdx], rcx
	.cv_loc	32 7 31 0               # C:\Program Files (x86)\Microsoft Visual Studio\2017\Community\VC\Tools\MSVC\14.16.27023\include\stdexcept:31:0
	mov	qword ptr [rsp + 40], rax # 8-byte Spill
	mov	rax, rdx
	add	rsp, 72
	ret
.Ltmp104:
.Lfunc_end32:
	.seh_handlerdata
	.section	.text,"xr",discard,"??0logic_error@std@@QEAA@PEBD@Z"
	.seh_endproc
                                        # -- End function
	.def	 "??0exception@std@@QEAA@QEBD@Z";
	.scl	2;
	.type	32;
	.endef
	.section	.text,"xr",discard,"??0exception@std@@QEAA@QEBD@Z"
	.globl	"??0exception@std@@QEAA@QEBD@Z" # -- Begin function ??0exception@std@@QEAA@QEBD@Z
	.p2align	4, 0x90
"??0exception@std@@QEAA@QEBD@Z":        # @"??0exception@std@@QEAA@QEBD@Z"
.Lfunc_begin33:
	.cv_func_id 33
	.cv_loc	33 8 55 0               # C:\Program Files (x86)\Microsoft Visual Studio\2017\Community\VC\Tools\MSVC\14.16.27023\include\vcruntime_exception.h:55:0
.seh_proc "??0exception@std@@QEAA@QEBD@Z"
# %bb.0:
	sub	rsp, 88
	.seh_stackalloc 88
	.seh_endprologue
	xor	eax, eax
	mov	r8d, 16
                                        # kill: def $r8 killed $r8d
	lea	r9, [rip + "??_7exception@std@@6B@"]
	mov	r10, qword ptr [rip + __security_cookie]
	xor	r10, rsp
	mov	qword ptr [rsp + 80], r10
	mov	qword ptr [rsp + 56], rdx
	mov	qword ptr [rsp + 48], rcx
	mov	rcx, qword ptr [rsp + 48]
.Ltmp105:
	mov	qword ptr [rcx], r9
	mov	rdx, rcx
	add	rdx, 8
	mov	qword ptr [rsp + 40], rcx # 8-byte Spill
	mov	rcx, rdx
	mov	edx, eax
	call	memset
.Ltmp106:
	.cv_loc	33 8 56 0               # C:\Program Files (x86)\Microsoft Visual Studio\2017\Community\VC\Tools\MSVC\14.16.27023\include\vcruntime_exception.h:56:0
	mov	rcx, qword ptr [rsp + 56]
	mov	qword ptr [rsp + 64], rcx
	mov	byte ptr [rsp + 72], 1
	.cv_loc	33 8 57 0               # C:\Program Files (x86)\Microsoft Visual Studio\2017\Community\VC\Tools\MSVC\14.16.27023\include\vcruntime_exception.h:57:0
	mov	rcx, qword ptr [rsp + 40] # 8-byte Reload
	add	rcx, 8
	lea	r8, [rsp + 64]
.Ltmp107:
	#DEBUG_VALUE: _InitData <- [$r8+0]
	mov	qword ptr [rsp + 32], rcx # 8-byte Spill
	mov	rcx, r8
	mov	rdx, qword ptr [rsp + 32] # 8-byte Reload
	call	__std_exception_copy
.Ltmp108:
	mov	rcx, qword ptr [rsp + 80]
	xor	rcx, rsp
	call	__security_check_cookie
.Ltmp109:
	.cv_loc	33 8 58 0               # C:\Program Files (x86)\Microsoft Visual Studio\2017\Community\VC\Tools\MSVC\14.16.27023\include\vcruntime_exception.h:58:0
	mov	rax, qword ptr [rsp + 40] # 8-byte Reload
	add	rsp, 88
	ret
.Ltmp110:
.Lfunc_end33:
	.seh_handlerdata
	.section	.text,"xr",discard,"??0exception@std@@QEAA@QEBD@Z"
	.seh_endproc
                                        # -- End function
	.def	 "?data@?$storage_type@V?$extent_type@$0?0@details@gsl@@@?$span@H$0?0@gsl@@QEBAPEAHXZ";
	.scl	2;
	.type	32;
	.endef
	.section	.text,"xr",discard,"?data@?$storage_type@V?$extent_type@$0?0@details@gsl@@@?$span@H$0?0@gsl@@QEBAPEAHXZ"
	.globl	"?data@?$storage_type@V?$extent_type@$0?0@details@gsl@@@?$span@H$0?0@gsl@@QEBAPEAHXZ" # -- Begin function ?data@?$storage_type@V?$extent_type@$0?0@details@gsl@@@?$span@H$0?0@gsl@@QEBAPEAHXZ
	.p2align	4, 0x90
"?data@?$storage_type@V?$extent_type@$0?0@details@gsl@@@?$span@H$0?0@gsl@@QEBAPEAHXZ": # @"?data@?$storage_type@V?$extent_type@$0?0@details@gsl@@@?$span@H$0?0@gsl@@QEBAPEAHXZ"
.Lfunc_begin34:
	.cv_func_id 34
	.cv_loc	34 2 602 0              # ..\include\gsl/span:602:0
.seh_proc "?data@?$storage_type@V?$extent_type@$0?0@details@gsl@@@?$span@H$0?0@gsl@@QEBAPEAHXZ"
# %bb.0:
	push	rax
	.seh_stackalloc 8
	.seh_endprologue
	mov	qword ptr [rsp], rcx
	mov	rcx, qword ptr [rsp]
.Ltmp111:
	mov	rax, qword ptr [rcx + 8]
	pop	rcx
	ret
.Ltmp112:
.Lfunc_end34:
	.seh_handlerdata
	.section	.text,"xr",discard,"?data@?$storage_type@V?$extent_type@$0?0@details@gsl@@@?$span@H$0?0@gsl@@QEBAPEAHXZ"
	.seh_endproc
                                        # -- End function
	.def	 "??$?0V?$extent_type@$0A@@details@gsl@@@?$storage_type@V?$extent_type@$0?0@details@gsl@@@?$span@$$CBH$0?0@gsl@@QEAA@PEBHV?$extent_type@$0A@@details@2@@Z";
	.scl	2;
	.type	32;
	.endef
	.section	.text,"xr",discard,"??$?0V?$extent_type@$0A@@details@gsl@@@?$storage_type@V?$extent_type@$0?0@details@gsl@@@?$span@$$CBH$0?0@gsl@@QEAA@PEBHV?$extent_type@$0A@@details@2@@Z"
	.globl	"??$?0V?$extent_type@$0A@@details@gsl@@@?$storage_type@V?$extent_type@$0?0@details@gsl@@@?$span@$$CBH$0?0@gsl@@QEAA@PEBHV?$extent_type@$0A@@details@2@@Z" # -- Begin function ??$?0V?$extent_type@$0A@@details@gsl@@@?$storage_type@V?$extent_type@$0?0@details@gsl@@@?$span@$$CBH$0?0@gsl@@QEAA@PEBHV?$extent_type@$0A@@details@2@@Z
	.p2align	4, 0x90
"??$?0V?$extent_type@$0A@@details@gsl@@@?$storage_type@V?$extent_type@$0?0@details@gsl@@@?$span@$$CBH$0?0@gsl@@QEAA@PEBHV?$extent_type@$0A@@details@2@@Z": # @"??$?0V?$extent_type@$0A@@details@gsl@@@?$storage_type@V?$extent_type@$0?0@details@gsl@@@?$span@$$CBH$0?0@gsl@@QEAA@PEBHV?$extent_type@$0A@@details@2@@Z"
.Lfunc_begin35:
	.cv_func_id 35
	.cv_loc	35 2 597 0              # ..\include\gsl/span:597:0
.seh_proc "??$?0V?$extent_type@$0A@@details@gsl@@@?$storage_type@V?$extent_type@$0?0@details@gsl@@@?$span@$$CBH$0?0@gsl@@QEAA@PEBHV?$extent_type@$0A@@details@2@@Z"
	.seh_handler __CxxFrameHandler3, @unwind, @except
# %bb.0:
	push	rbp
	.seh_pushreg 5
	sub	rsp, 208
	.seh_stackalloc 208
	lea	rbp, [rsp + 128]
	.seh_setframe 5, 128
	.seh_endprologue
	mov	qword ptr [rbp + 72], -2
	mov	byte ptr [rbp + 56], r8b
	mov	qword ptr [rbp + 48], rdx
	mov	qword ptr [rbp + 40], rcx
	mov	rcx, qword ptr [rbp + 40]
	mov	qword ptr [rbp + 64], rcx
.Ltmp117:
	mov	rdx, rcx
	mov	r8b, byte ptr [rbp + 32]
	mov	qword ptr [rbp - 40], rcx # 8-byte Spill
	mov	rcx, rdx
	mov	dl, r8b
	call	"??$?0$0A@@?$extent_type@$0?0@details@gsl@@QEAA@V?$extent_type@$0A@@12@@Z"
	mov	rcx, qword ptr [rbp + 48]
	mov	r9, qword ptr [rbp - 40] # 8-byte Reload
	mov	qword ptr [r9 + 8], rcx
.Ltmp118:
	.cv_loc	35 2 598 0              # ..\include\gsl/span:598:0
	mov	rcx, r9
	mov	qword ptr [rbp - 48], rax # 8-byte Spill
	call	"?size@?$extent_type@$0?0@details@gsl@@QEBA_JXZ"
	cmp	rax, 0
	setge	dl
	mov	byte ptr [rbp + 7], 0
	test	dl, 1
	jne	.LBB35_1
	jmp	.LBB35_2
.LBB35_1:
	test	byte ptr [rbp + 7], 1
	jne	.LBB35_4
	jmp	.LBB35_5
.LBB35_2:
	lea	rdx, [rip + "??_C@_0DG@PPPKJHO@GSL?3?5Precondition?5failure?5at?5?4?4?2@"]
	lea	rax, [rbp + 8]
	mov	rcx, rax
	mov	qword ptr [rbp - 56], rax # 8-byte Spill
	call	"??0fail_fast@gsl@@QEAA@QEBD@Z"
	mov	byte ptr [rbp + 7], 1
.Ltmp113:
	mov	rcx, qword ptr [rbp - 56] # 8-byte Reload
	mov	qword ptr [rbp - 64], rax # 8-byte Spill
	call	"??$throw_exception@Ufail_fast@gsl@@@details@gsl@@YAX$$QEAUfail_fast@1@@Z"
.Ltmp114:
	jmp	.LBB35_3
.LBB35_3:
	ud2
.LBB35_4:
	lea	rcx, [rbp + 8]
	call	"??1fail_fast@gsl@@UEAA@XZ"
.LBB35_5:
	.cv_loc	35 2 599 0              # ..\include\gsl/span:599:0
	mov	rax, qword ptr [rbp + 48]
	mov	byte ptr [rbp - 25], 0
	cmp	rax, 0
	mov	cl, 1
	mov	byte ptr [rbp - 65], cl # 1-byte Spill
	jne	.LBB35_7
# %bb.6:
	mov	rax, qword ptr [rbp - 40] # 8-byte Reload
	mov	rcx, rax
	call	"?size@?$extent_type@$0?0@details@gsl@@QEBA_JXZ"
	cmp	rax, 0
	sete	dl
	mov	byte ptr [rbp - 65], dl # 1-byte Spill
.LBB35_7:
	mov	al, byte ptr [rbp - 65] # 1-byte Reload
	test	al, 1
	jne	.LBB35_8
	jmp	.LBB35_9
.LBB35_8:
	test	byte ptr [rbp - 25], 1
	jne	.LBB35_14
	jmp	.LBB35_15
.LBB35_9:
	lea	rdx, [rip + "??_C@_0DG@BGOEJIDP@GSL?3?5Precondition?5failure?5at?5?4?4?2@"]
	lea	rax, [rbp - 24]
	mov	rcx, rax
	mov	qword ptr [rbp - 80], rax # 8-byte Spill
	call	"??0fail_fast@gsl@@QEAA@QEBD@Z"
	mov	byte ptr [rbp - 25], 1
.Ltmp115:
	mov	rcx, qword ptr [rbp - 80] # 8-byte Reload
	mov	qword ptr [rbp - 88], rax # 8-byte Spill
	call	"??$throw_exception@Ufail_fast@gsl@@@details@gsl@@YAX$$QEAUfail_fast@1@@Z"
.Ltmp116:
	jmp	.LBB35_10
.LBB35_10:
	ud2
.LBB35_14:
	lea	rcx, [rbp - 24]
	call	"??1fail_fast@gsl@@UEAA@XZ"
.Ltmp119:
.LBB35_15:
	.cv_loc	35 2 600 0              # ..\include\gsl/span:600:0
	mov	rax, qword ptr [rbp + 64]
	add	rsp, 208
	pop	rbp
	ret
	.seh_handlerdata
	.long	("$cppxdata$??$?0V?$extent_type@$0A@@details@gsl@@@?$storage_type@V?$extent_type@$0?0@details@gsl@@@?$span@$$CBH$0?0@gsl@@QEAA@PEBHV?$extent_type@$0A@@details@2@@Z")@IMGREL
	.section	.text,"xr",discard,"??$?0V?$extent_type@$0A@@details@gsl@@@?$storage_type@V?$extent_type@$0?0@details@gsl@@@?$span@$$CBH$0?0@gsl@@QEAA@PEBHV?$extent_type@$0A@@details@2@@Z"
	.seh_endproc
	.def	 "?dtor$11@?0???$?0V?$extent_type@$0A@@details@gsl@@@?$storage_type@V?$extent_type@$0?0@details@gsl@@@?$span@$$CBH$0?0@gsl@@QEAA@PEBHV?$extent_type@$0A@@details@2@@Z@4HA";
	.scl	3;
	.type	32;
	.endef
	.p2align	4, 0x90
"?dtor$11@?0???$?0V?$extent_type@$0A@@details@gsl@@@?$storage_type@V?$extent_type@$0?0@details@gsl@@@?$span@$$CBH$0?0@gsl@@QEAA@PEBHV?$extent_type@$0A@@details@2@@Z@4HA":
.seh_proc "?dtor$11@?0???$?0V?$extent_type@$0A@@details@gsl@@@?$storage_type@V?$extent_type@$0?0@details@gsl@@@?$span@$$CBH$0?0@gsl@@QEAA@PEBHV?$extent_type@$0A@@details@2@@Z@4HA"
.LBB35_11:
	mov	qword ptr [rsp + 16], rdx
	push	rbp
	.seh_pushreg 5
	sub	rsp, 32
	.seh_stackalloc 32
	lea	rbp, [rdx + 128]
	.seh_endprologue
.Ltmp120:
	.cv_loc	35 2 598 0              # ..\include\gsl/span:598:0
	test	byte ptr [rbp + 7], 1
	jne	.LBB35_12
	jmp	.LBB35_13
.LBB35_12:
	lea	rcx, [rbp + 8]
	call	"??1fail_fast@gsl@@UEAA@XZ"
.LBB35_13:
	nop
	add	rsp, 32
	pop	rbp
	ret                             # CLEANUPRET
	.seh_handlerdata
	.section	.text,"xr",discard,"??$?0V?$extent_type@$0A@@details@gsl@@@?$storage_type@V?$extent_type@$0?0@details@gsl@@@?$span@$$CBH$0?0@gsl@@QEAA@PEBHV?$extent_type@$0A@@details@2@@Z"
	.seh_endproc
	.def	 "?dtor$16@?0???$?0V?$extent_type@$0A@@details@gsl@@@?$storage_type@V?$extent_type@$0?0@details@gsl@@@?$span@$$CBH$0?0@gsl@@QEAA@PEBHV?$extent_type@$0A@@details@2@@Z@4HA";
	.scl	3;
	.type	32;
	.endef
	.p2align	4, 0x90
"?dtor$16@?0???$?0V?$extent_type@$0A@@details@gsl@@@?$storage_type@V?$extent_type@$0?0@details@gsl@@@?$span@$$CBH$0?0@gsl@@QEAA@PEBHV?$extent_type@$0A@@details@2@@Z@4HA":
.seh_proc "?dtor$16@?0???$?0V?$extent_type@$0A@@details@gsl@@@?$storage_type@V?$extent_type@$0?0@details@gsl@@@?$span@$$CBH$0?0@gsl@@QEAA@PEBHV?$extent_type@$0A@@details@2@@Z@4HA"
.LBB35_16:
	mov	qword ptr [rsp + 16], rdx
	push	rbp
	.seh_pushreg 5
	sub	rsp, 32
	.seh_stackalloc 32
	lea	rbp, [rdx + 128]
	.seh_endprologue
	.cv_loc	35 2 599 0              # ..\include\gsl/span:599:0
	test	byte ptr [rbp - 25], 1
	jne	.LBB35_17
	jmp	.LBB35_18
.LBB35_17:
	lea	rcx, [rbp - 24]
	call	"??1fail_fast@gsl@@UEAA@XZ"
.LBB35_18:
	nop
	add	rsp, 32
	pop	rbp
	ret                             # CLEANUPRET
.Ltmp121:
.Lfunc_end35:
	.seh_handlerdata
	.section	.text,"xr",discard,"??$?0V?$extent_type@$0A@@details@gsl@@@?$storage_type@V?$extent_type@$0?0@details@gsl@@@?$span@$$CBH$0?0@gsl@@QEAA@PEBHV?$extent_type@$0A@@details@2@@Z"
	.seh_endproc
	.section	.xdata,"dr",associative,"??$?0V?$extent_type@$0A@@details@gsl@@@?$storage_type@V?$extent_type@$0?0@details@gsl@@@?$span@$$CBH$0?0@gsl@@QEAA@PEBHV?$extent_type@$0A@@details@2@@Z"
	.p2align	2
"$cppxdata$??$?0V?$extent_type@$0A@@details@gsl@@@?$storage_type@V?$extent_type@$0?0@details@gsl@@@?$span@$$CBH$0?0@gsl@@QEAA@PEBHV?$extent_type@$0A@@details@2@@Z":
	.long	429065506               # MagicNumber
	.long	2                       # MaxState
	.long	("$stateUnwindMap$??$?0V?$extent_type@$0A@@details@gsl@@@?$storage_type@V?$extent_type@$0?0@details@gsl@@@?$span@$$CBH$0?0@gsl@@QEAA@PEBHV?$extent_type@$0A@@details@2@@Z")@IMGREL # UnwindMap
	.long	0                       # NumTryBlocks
	.long	0                       # TryBlockMap
	.long	5                       # IPMapEntries
	.long	("$ip2state$??$?0V?$extent_type@$0A@@details@gsl@@@?$storage_type@V?$extent_type@$0?0@details@gsl@@@?$span@$$CBH$0?0@gsl@@QEAA@PEBHV?$extent_type@$0A@@details@2@@Z")@IMGREL # IPToStateXData
	.long	200                     # UnwindHelp
	.long	0                       # ESTypeList
	.long	1                       # EHFlags
"$stateUnwindMap$??$?0V?$extent_type@$0A@@details@gsl@@@?$storage_type@V?$extent_type@$0?0@details@gsl@@@?$span@$$CBH$0?0@gsl@@QEAA@PEBHV?$extent_type@$0A@@details@2@@Z":
	.long	-1                      # ToState
	.long	"?dtor$11@?0???$?0V?$extent_type@$0A@@details@gsl@@@?$storage_type@V?$extent_type@$0?0@details@gsl@@@?$span@$$CBH$0?0@gsl@@QEAA@PEBHV?$extent_type@$0A@@details@2@@Z@4HA"@IMGREL # Action
	.long	-1                      # ToState
	.long	"?dtor$16@?0???$?0V?$extent_type@$0A@@details@gsl@@@?$storage_type@V?$extent_type@$0?0@details@gsl@@@?$span@$$CBH$0?0@gsl@@QEAA@PEBHV?$extent_type@$0A@@details@2@@Z@4HA"@IMGREL # Action
"$ip2state$??$?0V?$extent_type@$0A@@details@gsl@@@?$storage_type@V?$extent_type@$0?0@details@gsl@@@?$span@$$CBH$0?0@gsl@@QEAA@PEBHV?$extent_type@$0A@@details@2@@Z":
	.long	.Lfunc_begin35@IMGREL   # IP
	.long	-1                      # ToState
	.long	.Ltmp113@IMGREL+1       # IP
	.long	0                       # ToState
	.long	.Ltmp114@IMGREL+1       # IP
	.long	-1                      # ToState
	.long	.Ltmp115@IMGREL+1       # IP
	.long	1                       # ToState
	.long	.Ltmp116@IMGREL+1       # IP
	.long	-1                      # ToState
	.section	.text,"xr",discard,"??$?0V?$extent_type@$0A@@details@gsl@@@?$storage_type@V?$extent_type@$0?0@details@gsl@@@?$span@$$CBH$0?0@gsl@@QEAA@PEBHV?$extent_type@$0A@@details@2@@Z"
                                        # -- End function
	.def	 "?data@?$storage_type@V?$extent_type@$0?0@details@gsl@@@?$span@$$CBH$0?0@gsl@@QEBAPEBHXZ";
	.scl	2;
	.type	32;
	.endef
	.section	.text,"xr",discard,"?data@?$storage_type@V?$extent_type@$0?0@details@gsl@@@?$span@$$CBH$0?0@gsl@@QEBAPEBHXZ"
	.globl	"?data@?$storage_type@V?$extent_type@$0?0@details@gsl@@@?$span@$$CBH$0?0@gsl@@QEBAPEBHXZ" # -- Begin function ?data@?$storage_type@V?$extent_type@$0?0@details@gsl@@@?$span@$$CBH$0?0@gsl@@QEBAPEBHXZ
	.p2align	4, 0x90
"?data@?$storage_type@V?$extent_type@$0?0@details@gsl@@@?$span@$$CBH$0?0@gsl@@QEBAPEBHXZ": # @"?data@?$storage_type@V?$extent_type@$0?0@details@gsl@@@?$span@$$CBH$0?0@gsl@@QEBAPEBHXZ"
.Lfunc_begin36:
	.cv_func_id 36
	.cv_loc	36 2 602 0              # ..\include\gsl/span:602:0
.seh_proc "?data@?$storage_type@V?$extent_type@$0?0@details@gsl@@@?$span@$$CBH$0?0@gsl@@QEBAPEBHXZ"
# %bb.0:
	push	rax
	.seh_stackalloc 8
	.seh_endprologue
	mov	qword ptr [rsp], rcx
	mov	rcx, qword ptr [rsp]
.Ltmp122:
	mov	rax, qword ptr [rcx + 8]
	pop	rcx
	ret
.Ltmp123:
.Lfunc_end36:
	.seh_handlerdata
	.section	.text,"xr",discard,"?data@?$storage_type@V?$extent_type@$0?0@details@gsl@@@?$span@$$CBH$0?0@gsl@@QEBAPEBHXZ"
	.seh_endproc
                                        # -- End function
	.def	 "??$narrow@_J_K@gsl@@YA_J_K@Z";
	.scl	2;
	.type	32;
	.endef
	.section	.text,"xr",discard,"??$narrow@_J_K@gsl@@YA_J_K@Z"
	.globl	"??$narrow@_J_K@gsl@@YA_J_K@Z" # -- Begin function ??$narrow@_J_K@gsl@@YA_J_K@Z
	.p2align	4, 0x90
"??$narrow@_J_K@gsl@@YA_J_K@Z":         # @"??$narrow@_J_K@gsl@@YA_J_K@Z"
.Lfunc_begin37:
	.cv_func_id 37
	.cv_file	9 "C:\\projects\\gsl\\include\\gsl\\gsl_util" "9954522A071AE96641C34E4C32052141" 1
	.cv_loc	37 9 124 0              # ..\include\gsl/gsl_util:124:0
.seh_proc "??$narrow@_J_K@gsl@@YA_J_K@Z"
	.seh_handler __CxxFrameHandler3, @unwind, @except
# %bb.0:
	push	rbp
	.seh_pushreg 5
	sub	rsp, 144
	.seh_stackalloc 144
	lea	rbp, [rsp + 128]
	.seh_setframe 5, 128
	.seh_endprologue
	mov	qword ptr [rbp + 8], -2
	mov	qword ptr [rbp], rcx
.Ltmp128:
	.cv_loc	37 9 125 0              # ..\include\gsl/gsl_util:125:0
	mov	rcx, rbp
	#DEBUG_VALUE: narrow<long long,unsigned long long>:u <- [$rcx+0]
	call	"??$narrow_cast@_JAEA_K@gsl@@YA_JAEA_K@Z"
.Ltmp129:
	mov	qword ptr [rbp - 8], rax
	.cv_loc	37 9 126 0              # ..\include\gsl/gsl_util:126:0
	mov	rax, qword ptr [rbp - 8]
	cmp	rax, qword ptr [rbp]
	je	.LBB37_4
# %bb.1:
.Ltmp130:
	.cv_loc	37 9 126 0              # ..\include\gsl/gsl_util:126:0
	xorps	xmm0, xmm0
	movaps	xmmword ptr [rbp - 32], xmm0
	mov	qword ptr [rbp - 16], 0
	lea	rax, [rbp - 32]
	mov	rcx, rax
	mov	qword ptr [rbp - 72], rax # 8-byte Spill
	call	"??0narrowing_error@gsl@@QEAA@XZ"
.Ltmp126:
	mov	rcx, qword ptr [rbp - 72] # 8-byte Reload
	mov	qword ptr [rbp - 80], rax # 8-byte Spill
	call	"??$throw_exception@Unarrowing_error@gsl@@@details@gsl@@YAX$$QEAUnarrowing_error@1@@Z"
.Ltmp127:
	jmp	.LBB37_2
.LBB37_2:
	ud2
.Ltmp131:
.LBB37_4:
	.cv_loc	37 9 127 0              # ..\include\gsl/gsl_util:127:0
	cmp	qword ptr [rbp - 8], 0
	setl	al
	test	al, 1
	jne	.LBB37_5
	jmp	.LBB37_8
.LBB37_5:
.Ltmp132:
	.cv_loc	37 9 128 0              # ..\include\gsl/gsl_util:128:0
	xorps	xmm0, xmm0
	movaps	xmmword ptr [rbp - 64], xmm0
	mov	qword ptr [rbp - 48], 0
	lea	rax, [rbp - 64]
	mov	rcx, rax
	mov	qword ptr [rbp - 88], rax # 8-byte Spill
	call	"??0narrowing_error@gsl@@QEAA@XZ"
.Ltmp124:
	mov	rcx, qword ptr [rbp - 88] # 8-byte Reload
	mov	qword ptr [rbp - 96], rax # 8-byte Spill
	call	"??$throw_exception@Unarrowing_error@gsl@@@details@gsl@@YAX$$QEAUnarrowing_error@1@@Z"
.Ltmp125:
	jmp	.LBB37_6
.LBB37_6:
	ud2
.Ltmp133:
.LBB37_8:
	.cv_loc	37 9 129 0              # ..\include\gsl/gsl_util:129:0
	mov	rax, qword ptr [rbp - 8]
	add	rsp, 144
	pop	rbp
	ret
	.seh_handlerdata
	.long	("$cppxdata$??$narrow@_J_K@gsl@@YA_J_K@Z")@IMGREL
	.section	.text,"xr",discard,"??$narrow@_J_K@gsl@@YA_J_K@Z"
	.seh_endproc
	.def	 "?dtor$3@?0???$narrow@_J_K@gsl@@YA_J_K@Z@4HA";
	.scl	3;
	.type	32;
	.endef
	.p2align	4, 0x90
"?dtor$3@?0???$narrow@_J_K@gsl@@YA_J_K@Z@4HA":
.seh_proc "?dtor$3@?0???$narrow@_J_K@gsl@@YA_J_K@Z@4HA"
.LBB37_3:
	mov	qword ptr [rsp + 16], rdx
	push	rbp
	.seh_pushreg 5
	sub	rsp, 32
	.seh_stackalloc 32
	lea	rbp, [rdx + 128]
	.seh_endprologue
	lea	rcx, [rbp - 32]
.Ltmp134:
	.cv_loc	37 9 126 0              # ..\include\gsl/gsl_util:126:0
	call	"??1narrowing_error@gsl@@UEAA@XZ"
	nop
	add	rsp, 32
	pop	rbp
	ret                             # CLEANUPRET
.Ltmp135:
	.seh_handlerdata
	.section	.text,"xr",discard,"??$narrow@_J_K@gsl@@YA_J_K@Z"
	.seh_endproc
	.def	 "?dtor$7@?0???$narrow@_J_K@gsl@@YA_J_K@Z@4HA";
	.scl	3;
	.type	32;
	.endef
	.p2align	4, 0x90
"?dtor$7@?0???$narrow@_J_K@gsl@@YA_J_K@Z@4HA":
.seh_proc "?dtor$7@?0???$narrow@_J_K@gsl@@YA_J_K@Z@4HA"
.LBB37_7:
	mov	qword ptr [rsp + 16], rdx
	push	rbp
	.seh_pushreg 5
	sub	rsp, 32
	.seh_stackalloc 32
	lea	rbp, [rdx + 128]
	.seh_endprologue
	lea	rcx, [rbp - 64]
.Ltmp136:
	.cv_loc	37 9 128 0              # ..\include\gsl/gsl_util:128:0
	call	"??1narrowing_error@gsl@@UEAA@XZ"
	nop
	add	rsp, 32
	pop	rbp
	ret                             # CLEANUPRET
.Ltmp137:
.Lfunc_end37:
	.seh_handlerdata
	.section	.text,"xr",discard,"??$narrow@_J_K@gsl@@YA_J_K@Z"
	.seh_endproc
	.section	.xdata,"dr",associative,"??$narrow@_J_K@gsl@@YA_J_K@Z"
	.p2align	2
"$cppxdata$??$narrow@_J_K@gsl@@YA_J_K@Z":
	.long	429065506               # MagicNumber
	.long	2                       # MaxState
	.long	("$stateUnwindMap$??$narrow@_J_K@gsl@@YA_J_K@Z")@IMGREL # UnwindMap
	.long	0                       # NumTryBlocks
	.long	0                       # TryBlockMap
	.long	4                       # IPMapEntries
	.long	("$ip2state$??$narrow@_J_K@gsl@@YA_J_K@Z")@IMGREL # IPToStateXData
	.long	136                     # UnwindHelp
	.long	0                       # ESTypeList
	.long	1                       # EHFlags
"$stateUnwindMap$??$narrow@_J_K@gsl@@YA_J_K@Z":
	.long	-1                      # ToState
	.long	"?dtor$3@?0???$narrow@_J_K@gsl@@YA_J_K@Z@4HA"@IMGREL # Action
	.long	-1                      # ToState
	.long	"?dtor$7@?0???$narrow@_J_K@gsl@@YA_J_K@Z@4HA"@IMGREL # Action
"$ip2state$??$narrow@_J_K@gsl@@YA_J_K@Z":
	.long	.Lfunc_begin37@IMGREL   # IP
	.long	-1                      # ToState
	.long	.Ltmp126@IMGREL+1       # IP
	.long	0                       # ToState
	.long	.Ltmp124@IMGREL+1       # IP
	.long	1                       # ToState
	.long	.Ltmp125@IMGREL+1       # IP
	.long	-1                      # ToState
	.section	.text,"xr",discard,"??$narrow@_J_K@gsl@@YA_J_K@Z"
                                        # -- End function
	.def	 "?size@?$vector@HV?$allocator@H@std@@@std@@QEBA_KXZ";
	.scl	2;
	.type	32;
	.endef
	.section	.text,"xr",discard,"?size@?$vector@HV?$allocator@H@std@@@std@@QEBA_KXZ"
	.globl	"?size@?$vector@HV?$allocator@H@std@@@std@@QEBA_KXZ" # -- Begin function ?size@?$vector@HV?$allocator@H@std@@@std@@QEBA_KXZ
	.p2align	4, 0x90
"?size@?$vector@HV?$allocator@H@std@@@std@@QEBA_KXZ": # @"?size@?$vector@HV?$allocator@H@std@@@std@@QEBA_KXZ"
.Lfunc_begin38:
	.cv_func_id 38
	.cv_loc	38 4 1703 0             # C:\Program Files (x86)\Microsoft Visual Studio\2017\Community\VC\Tools\MSVC\14.16.27023\include\vector:1703:0
.seh_proc "?size@?$vector@HV?$allocator@H@std@@@std@@QEBA_KXZ"
# %bb.0:
	sub	rsp, 56
	.seh_stackalloc 56
	.seh_endprologue
	mov	qword ptr [rsp + 48], rcx
	mov	rcx, qword ptr [rsp + 48]
.Ltmp138:
	.cv_loc	38 4 1704 0             # C:\Program Files (x86)\Microsoft Visual Studio\2017\Community\VC\Tools\MSVC\14.16.27023\include\vector:1704:0
	mov	rax, rcx
	mov	qword ptr [rsp + 40], rcx # 8-byte Spill
	mov	rcx, rax
	call	"?_Mylast@?$_Vector_alloc@U?$_Vec_base_types@HV?$allocator@H@std@@@std@@@std@@QEBAAEBQEAHXZ"
	mov	rax, qword ptr [rax]
	mov	rcx, qword ptr [rsp + 40] # 8-byte Reload
	mov	qword ptr [rsp + 32], rax # 8-byte Spill
	call	"?_Myfirst@?$_Vector_alloc@U?$_Vec_base_types@HV?$allocator@H@std@@@std@@@std@@QEBAAEBQEAHXZ"
	mov	rax, qword ptr [rax]
	mov	rcx, qword ptr [rsp + 32] # 8-byte Reload
	sub	rcx, rax
	sar	rcx, 2
	mov	rax, rcx
	add	rsp, 56
	ret
.Ltmp139:
.Lfunc_end38:
	.seh_handlerdata
	.section	.text,"xr",discard,"?size@?$vector@HV?$allocator@H@std@@@std@@QEBA_KXZ"
	.seh_endproc
                                        # -- End function
	.def	 "?data@?$vector@HV?$allocator@H@std@@@std@@QEAAPEAHXZ";
	.scl	2;
	.type	32;
	.endef
	.section	.text,"xr",discard,"?data@?$vector@HV?$allocator@H@std@@@std@@QEAAPEAHXZ"
	.globl	"?data@?$vector@HV?$allocator@H@std@@@std@@QEAAPEAHXZ" # -- Begin function ?data@?$vector@HV?$allocator@H@std@@@std@@QEAAPEAHXZ
	.p2align	4, 0x90
"?data@?$vector@HV?$allocator@H@std@@@std@@QEAAPEAHXZ": # @"?data@?$vector@HV?$allocator@H@std@@@std@@QEAAPEAHXZ"
.Lfunc_begin39:
	.cv_func_id 39
	.cv_loc	39 4 1608 0             # C:\Program Files (x86)\Microsoft Visual Studio\2017\Community\VC\Tools\MSVC\14.16.27023\include\vector:1608:0
.seh_proc "?data@?$vector@HV?$allocator@H@std@@@std@@QEAAPEAHXZ"
# %bb.0:
	sub	rsp, 40
	.seh_stackalloc 40
	.seh_endprologue
	mov	qword ptr [rsp + 32], rcx
	mov	rcx, qword ptr [rsp + 32]
.Ltmp140:
	.cv_loc	39 4 1609 0             # C:\Program Files (x86)\Microsoft Visual Studio\2017\Community\VC\Tools\MSVC\14.16.27023\include\vector:1609:0
	call	"?_Myfirst@?$_Vector_alloc@U?$_Vec_base_types@HV?$allocator@H@std@@@std@@@std@@QEAAAEAPEAHXZ"
	mov	rcx, qword ptr [rax]
	call	"??$_Unfancy_maybe_null@H@std@@YAPEAHPEAH@Z"
	nop
	add	rsp, 40
	ret
.Ltmp141:
.Lfunc_end39:
	.seh_handlerdata
	.section	.text,"xr",discard,"?data@?$vector@HV?$allocator@H@std@@@std@@QEAAPEAHXZ"
	.seh_endproc
                                        # -- End function
	.def	 "??0?$span@H$0?0@gsl@@QEAA@PEAH_J@Z";
	.scl	2;
	.type	32;
	.endef
	.section	.text,"xr",discard,"??0?$span@H$0?0@gsl@@QEAA@PEAH_J@Z"
	.globl	"??0?$span@H$0?0@gsl@@QEAA@PEAH_J@Z" # -- Begin function ??0?$span@H$0?0@gsl@@QEAA@PEAH_J@Z
	.p2align	4, 0x90
"??0?$span@H$0?0@gsl@@QEAA@PEAH_J@Z":   # @"??0?$span@H$0?0@gsl@@QEAA@PEAH_J@Z"
.Lfunc_begin40:
	.cv_func_id 40
	.cv_loc	40 2 386 0              # ..\include\gsl/span:386:0
.seh_proc "??0?$span@H$0?0@gsl@@QEAA@PEAH_J@Z"
# %bb.0:
	sub	rsp, 72
	.seh_stackalloc 72
	.seh_endprologue
	mov	qword ptr [rsp + 64], r8
	mov	qword ptr [rsp + 56], rdx
	mov	qword ptr [rsp + 48], rcx
	mov	rcx, qword ptr [rsp + 48]
.Ltmp142:
	mov	r8, qword ptr [rsp + 64]
	mov	rdx, qword ptr [rsp + 56]
	mov	qword ptr [rsp + 40], rcx # 8-byte Spill
	call	"??$?0_J@?$storage_type@V?$extent_type@$0?0@details@gsl@@@?$span@H$0?0@gsl@@QEAA@PEAH_J@Z"
	mov	rcx, qword ptr [rsp + 40] # 8-byte Reload
	mov	qword ptr [rsp + 32], rax # 8-byte Spill
	mov	rax, rcx
	add	rsp, 72
	ret
.Ltmp143:
.Lfunc_end40:
	.seh_handlerdata
	.section	.text,"xr",discard,"??0?$span@H$0?0@gsl@@QEAA@PEAH_J@Z"
	.seh_endproc
                                        # -- End function
	.def	 "??$narrow_cast@_JAEA_K@gsl@@YA_JAEA_K@Z";
	.scl	2;
	.type	32;
	.endef
	.section	.text,"xr",discard,"??$narrow_cast@_JAEA_K@gsl@@YA_JAEA_K@Z"
	.globl	"??$narrow_cast@_JAEA_K@gsl@@YA_JAEA_K@Z" # -- Begin function ??$narrow_cast@_JAEA_K@gsl@@YA_JAEA_K@Z
	.p2align	4, 0x90
"??$narrow_cast@_JAEA_K@gsl@@YA_JAEA_K@Z": # @"??$narrow_cast@_JAEA_K@gsl@@YA_JAEA_K@Z"
.Lfunc_begin41:
	.cv_func_id 41
	.cv_loc	41 9 99 0               # ..\include\gsl/gsl_util:99:0
.seh_proc "??$narrow_cast@_JAEA_K@gsl@@YA_JAEA_K@Z"
# %bb.0:
	sub	rsp, 40
	.seh_stackalloc 40
	.seh_endprologue
	mov	qword ptr [rsp + 32], rcx
.Ltmp144:
	.cv_loc	41 9 100 0              # ..\include\gsl/gsl_util:100:0
	mov	rcx, qword ptr [rsp + 32]
	call	"??$forward@AEA_K@std@@YAAEA_KAEA_K@Z"
	mov	rax, qword ptr [rax]
	add	rsp, 40
	ret
.Ltmp145:
.Lfunc_end41:
	.seh_handlerdata
	.section	.text,"xr",discard,"??$narrow_cast@_JAEA_K@gsl@@YA_JAEA_K@Z"
	.seh_endproc
                                        # -- End function
	.def	 "??$throw_exception@Unarrowing_error@gsl@@@details@gsl@@YAX$$QEAUnarrowing_error@1@@Z";
	.scl	2;
	.type	32;
	.endef
	.section	.text,"xr",discard,"??$throw_exception@Unarrowing_error@gsl@@@details@gsl@@YAX$$QEAUnarrowing_error@1@@Z"
	.globl	"??$throw_exception@Unarrowing_error@gsl@@@details@gsl@@YAX$$QEAUnarrowing_error@1@@Z" # -- Begin function ??$throw_exception@Unarrowing_error@gsl@@@details@gsl@@YAX$$QEAUnarrowing_error@1@@Z
	.p2align	4, 0x90
"??$throw_exception@Unarrowing_error@gsl@@@details@gsl@@YAX$$QEAUnarrowing_error@1@@Z": # @"??$throw_exception@Unarrowing_error@gsl@@@details@gsl@@YAX$$QEAUnarrowing_error@1@@Z"
.Lfunc_begin42:
	.cv_func_id 42
	.cv_loc	42 5 143 0              # ..\include\gsl/gsl_assert:143:0
.seh_proc "??$throw_exception@Unarrowing_error@gsl@@@details@gsl@@YAX$$QEAUnarrowing_error@1@@Z"
# %bb.0:
	sub	rsp, 88
	.seh_stackalloc 88
	.seh_endprologue
	mov	qword ptr [rsp + 80], rcx
.Ltmp146:
	.cv_loc	42 5 144 0              # ..\include\gsl/gsl_assert:144:0
	mov	rcx, qword ptr [rsp + 80]
	call	"??$forward@Unarrowing_error@gsl@@@std@@YA$$QEAUnarrowing_error@gsl@@AEAU12@@Z"
	lea	rcx, [rsp + 56]
	mov	qword ptr [rsp + 48], rcx # 8-byte Spill
	mov	rdx, rax
	call	"??0narrowing_error@gsl@@QEAA@$$QEAU01@@Z"
	lea	rdx, [rip + "_TI2?AUnarrowing_error@gsl@@"]
	mov	rcx, qword ptr [rip + __imp__CxxThrowException]
	mov	r8, qword ptr [rsp + 48] # 8-byte Reload
	mov	qword ptr [rsp + 40], rcx # 8-byte Spill
	mov	rcx, r8
	mov	r9, qword ptr [rsp + 40] # 8-byte Reload
	mov	qword ptr [rsp + 32], rax # 8-byte Spill
	call	r9
	ud2
.Ltmp147:
.Lfunc_end42:
	.seh_handlerdata
	.section	.text,"xr",discard,"??$throw_exception@Unarrowing_error@gsl@@@details@gsl@@YAX$$QEAUnarrowing_error@1@@Z"
	.seh_endproc
                                        # -- End function
	.def	 "??0narrowing_error@gsl@@QEAA@XZ";
	.scl	2;
	.type	32;
	.endef
	.section	.text,"xr",discard,"??0narrowing_error@gsl@@QEAA@XZ"
	.globl	"??0narrowing_error@gsl@@QEAA@XZ" # -- Begin function ??0narrowing_error@gsl@@QEAA@XZ
	.p2align	4, 0x90
"??0narrowing_error@gsl@@QEAA@XZ":      # @"??0narrowing_error@gsl@@QEAA@XZ"
.Lfunc_begin43:
	.cv_func_id 43
	.cv_loc	43 9 103 0              # ..\include\gsl/gsl_util:103:0
.seh_proc "??0narrowing_error@gsl@@QEAA@XZ"
# %bb.0:
	sub	rsp, 56
	.seh_stackalloc 56
	.seh_endprologue
	mov	qword ptr [rsp + 48], rcx
	mov	rcx, qword ptr [rsp + 48]
.Ltmp148:
	mov	rax, rcx
	mov	qword ptr [rsp + 40], rcx # 8-byte Spill
	mov	rcx, rax
	call	"??0exception@std@@QEAA@XZ"
	lea	rcx, [rip + "??_7narrowing_error@gsl@@6B@"]
	mov	rdx, qword ptr [rsp + 40] # 8-byte Reload
	mov	qword ptr [rdx], rcx
	mov	qword ptr [rsp + 32], rax # 8-byte Spill
	mov	rax, rdx
	add	rsp, 56
	ret
.Ltmp149:
.Lfunc_end43:
	.seh_handlerdata
	.section	.text,"xr",discard,"??0narrowing_error@gsl@@QEAA@XZ"
	.seh_endproc
                                        # -- End function
	.def	 "??1narrowing_error@gsl@@UEAA@XZ";
	.scl	2;
	.type	32;
	.endef
	.section	.text,"xr",discard,"??1narrowing_error@gsl@@UEAA@XZ"
	.globl	"??1narrowing_error@gsl@@UEAA@XZ" # -- Begin function ??1narrowing_error@gsl@@UEAA@XZ
	.p2align	4, 0x90
"??1narrowing_error@gsl@@UEAA@XZ":      # @"??1narrowing_error@gsl@@UEAA@XZ"
.Lfunc_begin44:
	.cv_func_id 44
	.cv_loc	44 9 103 0              # ..\include\gsl/gsl_util:103:0
.seh_proc "??1narrowing_error@gsl@@UEAA@XZ"
# %bb.0:
	sub	rsp, 40
	.seh_stackalloc 40
	.seh_endprologue
	mov	qword ptr [rsp + 32], rcx
	mov	rcx, qword ptr [rsp + 32]
.Ltmp150:
	.cv_loc	44 9 103 0              # ..\include\gsl/gsl_util:103:0
	call	"??1exception@std@@UEAA@XZ"
.Ltmp151:
	.cv_loc	44 9 103 0              # ..\include\gsl/gsl_util:103:0
	nop
	add	rsp, 40
	ret
.Ltmp152:
.Lfunc_end44:
	.seh_handlerdata
	.section	.text,"xr",discard,"??1narrowing_error@gsl@@UEAA@XZ"
	.seh_endproc
                                        # -- End function
	.def	 "??$forward@AEA_K@std@@YAAEA_KAEA_K@Z";
	.scl	2;
	.type	32;
	.endef
	.section	.text,"xr",discard,"??$forward@AEA_K@std@@YAAEA_KAEA_K@Z"
	.globl	"??$forward@AEA_K@std@@YAAEA_KAEA_K@Z" # -- Begin function ??$forward@AEA_K@std@@YAAEA_KAEA_K@Z
	.p2align	4, 0x90
"??$forward@AEA_K@std@@YAAEA_KAEA_K@Z": # @"??$forward@AEA_K@std@@YAAEA_KAEA_K@Z"
.Lfunc_begin45:
	.cv_func_id 45
	.cv_loc	45 6 1573 0             # C:\Program Files (x86)\Microsoft Visual Studio\2017\Community\VC\Tools\MSVC\14.16.27023\include\type_traits:1573:0
.seh_proc "??$forward@AEA_K@std@@YAAEA_KAEA_K@Z"
# %bb.0:
	push	rax
	.seh_stackalloc 8
	.seh_endprologue
	mov	qword ptr [rsp], rcx
.Ltmp153:
	.cv_loc	45 6 1574 0             # C:\Program Files (x86)\Microsoft Visual Studio\2017\Community\VC\Tools\MSVC\14.16.27023\include\type_traits:1574:0
	mov	rax, qword ptr [rsp]
	pop	rcx
	ret
.Ltmp154:
.Lfunc_end45:
	.seh_handlerdata
	.section	.text,"xr",discard,"??$forward@AEA_K@std@@YAAEA_KAEA_K@Z"
	.seh_endproc
                                        # -- End function
	.def	 "??$forward@Unarrowing_error@gsl@@@std@@YA$$QEAUnarrowing_error@gsl@@AEAU12@@Z";
	.scl	2;
	.type	32;
	.endef
	.section	.text,"xr",discard,"??$forward@Unarrowing_error@gsl@@@std@@YA$$QEAUnarrowing_error@gsl@@AEAU12@@Z"
	.globl	"??$forward@Unarrowing_error@gsl@@@std@@YA$$QEAUnarrowing_error@gsl@@AEAU12@@Z" # -- Begin function ??$forward@Unarrowing_error@gsl@@@std@@YA$$QEAUnarrowing_error@gsl@@AEAU12@@Z
	.p2align	4, 0x90
"??$forward@Unarrowing_error@gsl@@@std@@YA$$QEAUnarrowing_error@gsl@@AEAU12@@Z": # @"??$forward@Unarrowing_error@gsl@@@std@@YA$$QEAUnarrowing_error@gsl@@AEAU12@@Z"
.Lfunc_begin46:
	.cv_func_id 46
	.cv_loc	46 6 1573 0             # C:\Program Files (x86)\Microsoft Visual Studio\2017\Community\VC\Tools\MSVC\14.16.27023\include\type_traits:1573:0
.seh_proc "??$forward@Unarrowing_error@gsl@@@std@@YA$$QEAUnarrowing_error@gsl@@AEAU12@@Z"
# %bb.0:
	push	rax
	.seh_stackalloc 8
	.seh_endprologue
	mov	qword ptr [rsp], rcx
.Ltmp155:
	.cv_loc	46 6 1574 0             # C:\Program Files (x86)\Microsoft Visual Studio\2017\Community\VC\Tools\MSVC\14.16.27023\include\type_traits:1574:0
	mov	rax, qword ptr [rsp]
	pop	rcx
	ret
.Ltmp156:
.Lfunc_end46:
	.seh_handlerdata
	.section	.text,"xr",discard,"??$forward@Unarrowing_error@gsl@@@std@@YA$$QEAUnarrowing_error@gsl@@AEAU12@@Z"
	.seh_endproc
                                        # -- End function
	.def	 "??0narrowing_error@gsl@@QEAA@$$QEAU01@@Z";
	.scl	2;
	.type	32;
	.endef
	.section	.text,"xr",discard,"??0narrowing_error@gsl@@QEAA@$$QEAU01@@Z"
	.globl	"??0narrowing_error@gsl@@QEAA@$$QEAU01@@Z" # -- Begin function ??0narrowing_error@gsl@@QEAA@$$QEAU01@@Z
	.p2align	4, 0x90
"??0narrowing_error@gsl@@QEAA@$$QEAU01@@Z": # @"??0narrowing_error@gsl@@QEAA@$$QEAU01@@Z"
.Lfunc_begin47:
	.cv_func_id 47
	.cv_loc	47 9 103 0              # ..\include\gsl/gsl_util:103:0
.seh_proc "??0narrowing_error@gsl@@QEAA@$$QEAU01@@Z"
# %bb.0:
	sub	rsp, 72
	.seh_stackalloc 72
	.seh_endprologue
	mov	qword ptr [rsp + 64], rdx
	mov	qword ptr [rsp + 56], rcx
	mov	rcx, qword ptr [rsp + 56]
.Ltmp157:
	mov	rdx, rcx
	mov	rax, qword ptr [rsp + 64]
	mov	qword ptr [rsp + 48], rcx # 8-byte Spill
	mov	rcx, rdx
	mov	rdx, rax
	call	"??0exception@std@@QEAA@AEBV01@@Z"
	lea	rcx, [rip + "??_7narrowing_error@gsl@@6B@"]
	mov	rdx, qword ptr [rsp + 48] # 8-byte Reload
	mov	qword ptr [rdx], rcx
	mov	qword ptr [rsp + 40], rax # 8-byte Spill
	mov	rax, rdx
	add	rsp, 72
	ret
.Ltmp158:
.Lfunc_end47:
	.seh_handlerdata
	.section	.text,"xr",discard,"??0narrowing_error@gsl@@QEAA@$$QEAU01@@Z"
	.seh_endproc
                                        # -- End function
	.def	 "??0narrowing_error@gsl@@QEAA@AEBU01@@Z";
	.scl	2;
	.type	32;
	.endef
	.section	.text,"xr",discard,"??0narrowing_error@gsl@@QEAA@AEBU01@@Z"
	.globl	"??0narrowing_error@gsl@@QEAA@AEBU01@@Z" # -- Begin function ??0narrowing_error@gsl@@QEAA@AEBU01@@Z
	.p2align	4, 0x90
"??0narrowing_error@gsl@@QEAA@AEBU01@@Z": # @"??0narrowing_error@gsl@@QEAA@AEBU01@@Z"
.Lfunc_begin48:
	.cv_func_id 48
	.cv_loc	48 9 103 0              # ..\include\gsl/gsl_util:103:0
.seh_proc "??0narrowing_error@gsl@@QEAA@AEBU01@@Z"
# %bb.0:
	sub	rsp, 72
	.seh_stackalloc 72
	.seh_endprologue
	mov	qword ptr [rsp + 64], rdx
	mov	qword ptr [rsp + 56], rcx
	mov	rcx, qword ptr [rsp + 56]
.Ltmp159:
	mov	rdx, rcx
	mov	rax, qword ptr [rsp + 64]
	mov	qword ptr [rsp + 48], rcx # 8-byte Spill
	mov	rcx, rdx
	mov	rdx, rax
	call	"??0exception@std@@QEAA@AEBV01@@Z"
	lea	rcx, [rip + "??_7narrowing_error@gsl@@6B@"]
	mov	rdx, qword ptr [rsp + 48] # 8-byte Reload
	mov	qword ptr [rdx], rcx
	mov	qword ptr [rsp + 40], rax # 8-byte Spill
	mov	rax, rdx
	add	rsp, 72
	ret
.Ltmp160:
.Lfunc_end48:
	.seh_handlerdata
	.section	.text,"xr",discard,"??0narrowing_error@gsl@@QEAA@AEBU01@@Z"
	.seh_endproc
                                        # -- End function
	.def	 "??_Gnarrowing_error@gsl@@UEAAPEAXI@Z";
	.scl	2;
	.type	32;
	.endef
	.section	.text,"xr",discard,"??_Gnarrowing_error@gsl@@UEAAPEAXI@Z"
	.globl	"??_Gnarrowing_error@gsl@@UEAAPEAXI@Z" # -- Begin function ??_Gnarrowing_error@gsl@@UEAAPEAXI@Z
	.p2align	4, 0x90
"??_Gnarrowing_error@gsl@@UEAAPEAXI@Z": # @"??_Gnarrowing_error@gsl@@UEAAPEAXI@Z"
.Lfunc_begin49:
	.cv_func_id 49
	.cv_loc	49 9 103 0              # ..\include\gsl/gsl_util:103:0
.seh_proc "??_Gnarrowing_error@gsl@@UEAAPEAXI@Z"
# %bb.0:
	sub	rsp, 72
	.seh_stackalloc 72
	.seh_endprologue
	mov	dword ptr [rsp + 60], edx
	mov	qword ptr [rsp + 48], rcx
	mov	rcx, qword ptr [rsp + 48]
	mov	rax, rcx
	mov	qword ptr [rsp + 64], rax
	mov	edx, dword ptr [rsp + 60]
.Ltmp161:
	mov	qword ptr [rsp + 40], rcx # 8-byte Spill
	mov	dword ptr [rsp + 36], edx # 4-byte Spill
	call	"??1narrowing_error@gsl@@UEAA@XZ"
	mov	edx, dword ptr [rsp + 36] # 4-byte Reload
	cmp	edx, 0
	je	.LBB49_2
# %bb.1:
	mov	rax, qword ptr [rsp + 40] # 8-byte Reload
	mov	rcx, rax
	call	"??3@YAXPEAX@Z"
.LBB49_2:
	mov	rax, qword ptr [rsp + 64]
	add	rsp, 72
	ret
.Ltmp162:
.Lfunc_end49:
	.seh_handlerdata
	.section	.text,"xr",discard,"??_Gnarrowing_error@gsl@@UEAAPEAXI@Z"
	.seh_endproc
                                        # -- End function
	.def	 "??0exception@std@@QEAA@XZ";
	.scl	2;
	.type	32;
	.endef
	.section	.text,"xr",discard,"??0exception@std@@QEAA@XZ"
	.globl	"??0exception@std@@QEAA@XZ" # -- Begin function ??0exception@std@@QEAA@XZ
	.p2align	4, 0x90
"??0exception@std@@QEAA@XZ":            # @"??0exception@std@@QEAA@XZ"
.Lfunc_begin50:
	.cv_func_id 50
	.cv_loc	50 8 50 0               # C:\Program Files (x86)\Microsoft Visual Studio\2017\Community\VC\Tools\MSVC\14.16.27023\include\vcruntime_exception.h:50:0
.seh_proc "??0exception@std@@QEAA@XZ"
# %bb.0:
	sub	rsp, 56
	.seh_stackalloc 56
	.seh_endprologue
	xor	edx, edx
	mov	eax, 16
	mov	r8d, eax
	lea	r9, [rip + "??_7exception@std@@6B@"]
	mov	qword ptr [rsp + 48], rcx
	mov	rcx, qword ptr [rsp + 48]
.Ltmp163:
	mov	qword ptr [rcx], r9
	mov	r9, rcx
	add	r9, 8
	mov	qword ptr [rsp + 40], rcx # 8-byte Spill
	mov	rcx, r9
	call	memset
	.cv_loc	50 8 51 0               # C:\Program Files (x86)\Microsoft Visual Studio\2017\Community\VC\Tools\MSVC\14.16.27023\include\vcruntime_exception.h:51:0
	mov	rax, qword ptr [rsp + 40] # 8-byte Reload
	add	rsp, 56
	ret
.Ltmp164:
.Lfunc_end50:
	.seh_handlerdata
	.section	.text,"xr",discard,"??0exception@std@@QEAA@XZ"
	.seh_endproc
                                        # -- End function
	.def	 "?_Mylast@?$_Vector_alloc@U?$_Vec_base_types@HV?$allocator@H@std@@@std@@@std@@QEBAAEBQEAHXZ";
	.scl	2;
	.type	32;
	.endef
	.section	.text,"xr",discard,"?_Mylast@?$_Vector_alloc@U?$_Vec_base_types@HV?$allocator@H@std@@@std@@@std@@QEBAAEBQEAHXZ"
	.globl	"?_Mylast@?$_Vector_alloc@U?$_Vec_base_types@HV?$allocator@H@std@@@std@@@std@@QEBAAEBQEAHXZ" # -- Begin function ?_Mylast@?$_Vector_alloc@U?$_Vec_base_types@HV?$allocator@H@std@@@std@@@std@@QEBAAEBQEAHXZ
	.p2align	4, 0x90
"?_Mylast@?$_Vector_alloc@U?$_Vec_base_types@HV?$allocator@H@std@@@std@@@std@@QEBAAEBQEAHXZ": # @"?_Mylast@?$_Vector_alloc@U?$_Vec_base_types@HV?$allocator@H@std@@@std@@@std@@QEBAAEBQEAHXZ"
.Lfunc_begin51:
	.cv_func_id 51
	.cv_loc	51 4 590 0              # C:\Program Files (x86)\Microsoft Visual Studio\2017\Community\VC\Tools\MSVC\14.16.27023\include\vector:590:0
.seh_proc "?_Mylast@?$_Vector_alloc@U?$_Vec_base_types@HV?$allocator@H@std@@@std@@@std@@QEBAAEBQEAHXZ"
# %bb.0:
	sub	rsp, 40
	.seh_stackalloc 40
	.seh_endprologue
	mov	qword ptr [rsp + 32], rcx
	mov	rcx, qword ptr [rsp + 32]
.Ltmp165:
	.cv_loc	51 4 591 0              # C:\Program Files (x86)\Microsoft Visual Studio\2017\Community\VC\Tools\MSVC\14.16.27023\include\vector:591:0
	call	"?_Get_data@?$_Vector_alloc@U?$_Vec_base_types@HV?$allocator@H@std@@@std@@@std@@QEBAAEBV?$_Vector_val@U?$_Simple_types@H@std@@@2@XZ"
	add	rax, 16
	add	rsp, 40
	ret
.Ltmp166:
.Lfunc_end51:
	.seh_handlerdata
	.section	.text,"xr",discard,"?_Mylast@?$_Vector_alloc@U?$_Vec_base_types@HV?$allocator@H@std@@@std@@@std@@QEBAAEBQEAHXZ"
	.seh_endproc
                                        # -- End function
	.def	 "?_Myfirst@?$_Vector_alloc@U?$_Vec_base_types@HV?$allocator@H@std@@@std@@@std@@QEBAAEBQEAHXZ";
	.scl	2;
	.type	32;
	.endef
	.section	.text,"xr",discard,"?_Myfirst@?$_Vector_alloc@U?$_Vec_base_types@HV?$allocator@H@std@@@std@@@std@@QEBAAEBQEAHXZ"
	.globl	"?_Myfirst@?$_Vector_alloc@U?$_Vec_base_types@HV?$allocator@H@std@@@std@@@std@@QEBAAEBQEAHXZ" # -- Begin function ?_Myfirst@?$_Vector_alloc@U?$_Vec_base_types@HV?$allocator@H@std@@@std@@@std@@QEBAAEBQEAHXZ
	.p2align	4, 0x90
"?_Myfirst@?$_Vector_alloc@U?$_Vec_base_types@HV?$allocator@H@std@@@std@@@std@@QEBAAEBQEAHXZ": # @"?_Myfirst@?$_Vector_alloc@U?$_Vec_base_types@HV?$allocator@H@std@@@std@@@std@@QEBAAEBQEAHXZ"
.Lfunc_begin52:
	.cv_func_id 52
	.cv_loc	52 4 580 0              # C:\Program Files (x86)\Microsoft Visual Studio\2017\Community\VC\Tools\MSVC\14.16.27023\include\vector:580:0
.seh_proc "?_Myfirst@?$_Vector_alloc@U?$_Vec_base_types@HV?$allocator@H@std@@@std@@@std@@QEBAAEBQEAHXZ"
# %bb.0:
	sub	rsp, 40
	.seh_stackalloc 40
	.seh_endprologue
	mov	qword ptr [rsp + 32], rcx
	mov	rcx, qword ptr [rsp + 32]
.Ltmp167:
	.cv_loc	52 4 581 0              # C:\Program Files (x86)\Microsoft Visual Studio\2017\Community\VC\Tools\MSVC\14.16.27023\include\vector:581:0
	call	"?_Get_data@?$_Vector_alloc@U?$_Vec_base_types@HV?$allocator@H@std@@@std@@@std@@QEBAAEBV?$_Vector_val@U?$_Simple_types@H@std@@@2@XZ"
	add	rax, 8
	add	rsp, 40
	ret
.Ltmp168:
.Lfunc_end52:
	.seh_handlerdata
	.section	.text,"xr",discard,"?_Myfirst@?$_Vector_alloc@U?$_Vec_base_types@HV?$allocator@H@std@@@std@@@std@@QEBAAEBQEAHXZ"
	.seh_endproc
                                        # -- End function
	.def	 "?_Get_data@?$_Vector_alloc@U?$_Vec_base_types@HV?$allocator@H@std@@@std@@@std@@QEBAAEBV?$_Vector_val@U?$_Simple_types@H@std@@@2@XZ";
	.scl	2;
	.type	32;
	.endef
	.section	.text,"xr",discard,"?_Get_data@?$_Vector_alloc@U?$_Vec_base_types@HV?$allocator@H@std@@@std@@@std@@QEBAAEBV?$_Vector_val@U?$_Simple_types@H@std@@@2@XZ"
	.globl	"?_Get_data@?$_Vector_alloc@U?$_Vec_base_types@HV?$allocator@H@std@@@std@@@std@@QEBAAEBV?$_Vector_val@U?$_Simple_types@H@std@@@2@XZ" # -- Begin function ?_Get_data@?$_Vector_alloc@U?$_Vec_base_types@HV?$allocator@H@std@@@std@@@std@@QEBAAEBV?$_Vector_val@U?$_Simple_types@H@std@@@2@XZ
	.p2align	4, 0x90
"?_Get_data@?$_Vector_alloc@U?$_Vec_base_types@HV?$allocator@H@std@@@std@@@std@@QEBAAEBV?$_Vector_val@U?$_Simple_types@H@std@@@2@XZ": # @"?_Get_data@?$_Vector_alloc@U?$_Vec_base_types@HV?$allocator@H@std@@@std@@@std@@QEBAAEBV?$_Vector_val@U?$_Simple_types@H@std@@@2@XZ"
.Lfunc_begin53:
	.cv_func_id 53
	.cv_loc	53 4 559 0              # C:\Program Files (x86)\Microsoft Visual Studio\2017\Community\VC\Tools\MSVC\14.16.27023\include\vector:559:0
.seh_proc "?_Get_data@?$_Vector_alloc@U?$_Vec_base_types@HV?$allocator@H@std@@@std@@@std@@QEBAAEBV?$_Vector_val@U?$_Simple_types@H@std@@@2@XZ"
# %bb.0:
	sub	rsp, 40
	.seh_stackalloc 40
	.seh_endprologue
	mov	qword ptr [rsp + 32], rcx
	mov	rcx, qword ptr [rsp + 32]
.Ltmp169:
	.cv_loc	53 4 560 0              # C:\Program Files (x86)\Microsoft Visual Studio\2017\Community\VC\Tools\MSVC\14.16.27023\include\vector:560:0
	call	"?_Get_second@?$_Compressed_pair@V?$allocator@H@std@@V?$_Vector_val@U?$_Simple_types@H@std@@@2@$00@std@@QEBAAEBV?$_Vector_val@U?$_Simple_types@H@std@@@2@XZ"
	nop
	add	rsp, 40
	ret
.Ltmp170:
.Lfunc_end53:
	.seh_handlerdata
	.section	.text,"xr",discard,"?_Get_data@?$_Vector_alloc@U?$_Vec_base_types@HV?$allocator@H@std@@@std@@@std@@QEBAAEBV?$_Vector_val@U?$_Simple_types@H@std@@@2@XZ"
	.seh_endproc
                                        # -- End function
	.def	 "?_Get_second@?$_Compressed_pair@V?$allocator@H@std@@V?$_Vector_val@U?$_Simple_types@H@std@@@2@$00@std@@QEBAAEBV?$_Vector_val@U?$_Simple_types@H@std@@@2@XZ";
	.scl	2;
	.type	32;
	.endef
	.section	.text,"xr",discard,"?_Get_second@?$_Compressed_pair@V?$allocator@H@std@@V?$_Vector_val@U?$_Simple_types@H@std@@@2@$00@std@@QEBAAEBV?$_Vector_val@U?$_Simple_types@H@std@@@2@XZ"
	.globl	"?_Get_second@?$_Compressed_pair@V?$allocator@H@std@@V?$_Vector_val@U?$_Simple_types@H@std@@@2@$00@std@@QEBAAEBV?$_Vector_val@U?$_Simple_types@H@std@@@2@XZ" # -- Begin function ?_Get_second@?$_Compressed_pair@V?$allocator@H@std@@V?$_Vector_val@U?$_Simple_types@H@std@@@2@$00@std@@QEBAAEBV?$_Vector_val@U?$_Simple_types@H@std@@@2@XZ
	.p2align	4, 0x90
"?_Get_second@?$_Compressed_pair@V?$allocator@H@std@@V?$_Vector_val@U?$_Simple_types@H@std@@@2@$00@std@@QEBAAEBV?$_Vector_val@U?$_Simple_types@H@std@@@2@XZ": # @"?_Get_second@?$_Compressed_pair@V?$allocator@H@std@@V?$_Vector_val@U?$_Simple_types@H@std@@@2@$00@std@@QEBAAEBV?$_Vector_val@U?$_Simple_types@H@std@@@2@XZ"
.Lfunc_begin54:
	.cv_func_id 54
	.cv_file	10 "C:\\Program Files (x86)\\Microsoft Visual Studio\\2017\\Community\\VC\\Tools\\MSVC\\14.16.27023\\include\\xutility" "A162BEAAC17F997B0C72AFDAD71F40D6" 1
	.cv_loc	54 10 306 0             # C:\Program Files (x86)\Microsoft Visual Studio\2017\Community\VC\Tools\MSVC\14.16.27023\include\xutility:306:0
.seh_proc "?_Get_second@?$_Compressed_pair@V?$allocator@H@std@@V?$_Vector_val@U?$_Simple_types@H@std@@@2@$00@std@@QEBAAEBV?$_Vector_val@U?$_Simple_types@H@std@@@2@XZ"
# %bb.0:
	push	rax
	.seh_stackalloc 8
	.seh_endprologue
	mov	qword ptr [rsp], rcx
	mov	rax, qword ptr [rsp]
.Ltmp171:
	.cv_loc	54 10 307 0             # C:\Program Files (x86)\Microsoft Visual Studio\2017\Community\VC\Tools\MSVC\14.16.27023\include\xutility:307:0
	pop	rcx
	ret
.Ltmp172:
.Lfunc_end54:
	.seh_handlerdata
	.section	.text,"xr",discard,"?_Get_second@?$_Compressed_pair@V?$allocator@H@std@@V?$_Vector_val@U?$_Simple_types@H@std@@@2@$00@std@@QEBAAEBV?$_Vector_val@U?$_Simple_types@H@std@@@2@XZ"
	.seh_endproc
                                        # -- End function
	.def	 "??$_Unfancy_maybe_null@H@std@@YAPEAHPEAH@Z";
	.scl	2;
	.type	32;
	.endef
	.section	.text,"xr",discard,"??$_Unfancy_maybe_null@H@std@@YAPEAHPEAH@Z"
	.globl	"??$_Unfancy_maybe_null@H@std@@YAPEAHPEAH@Z" # -- Begin function ??$_Unfancy_maybe_null@H@std@@YAPEAHPEAH@Z
	.p2align	4, 0x90
"??$_Unfancy_maybe_null@H@std@@YAPEAHPEAH@Z": # @"??$_Unfancy_maybe_null@H@std@@YAPEAHPEAH@Z"
.Lfunc_begin55:
	.cv_func_id 55
	.cv_loc	55 4 617 0              # C:\Program Files (x86)\Microsoft Visual Studio\2017\Community\VC\Tools\MSVC\14.16.27023\include\vector:617:0
.seh_proc "??$_Unfancy_maybe_null@H@std@@YAPEAHPEAH@Z"
# %bb.0:
	push	rax
	.seh_stackalloc 8
	.seh_endprologue
	mov	qword ptr [rsp], rcx
.Ltmp173:
	.cv_loc	55 4 618 0              # C:\Program Files (x86)\Microsoft Visual Studio\2017\Community\VC\Tools\MSVC\14.16.27023\include\vector:618:0
	mov	rax, qword ptr [rsp]
	pop	rcx
	ret
.Ltmp174:
.Lfunc_end55:
	.seh_handlerdata
	.section	.text,"xr",discard,"??$_Unfancy_maybe_null@H@std@@YAPEAHPEAH@Z"
	.seh_endproc
                                        # -- End function
	.def	 "?_Myfirst@?$_Vector_alloc@U?$_Vec_base_types@HV?$allocator@H@std@@@std@@@std@@QEAAAEAPEAHXZ";
	.scl	2;
	.type	32;
	.endef
	.section	.text,"xr",discard,"?_Myfirst@?$_Vector_alloc@U?$_Vec_base_types@HV?$allocator@H@std@@@std@@@std@@QEAAAEAPEAHXZ"
	.globl	"?_Myfirst@?$_Vector_alloc@U?$_Vec_base_types@HV?$allocator@H@std@@@std@@@std@@QEAAAEAPEAHXZ" # -- Begin function ?_Myfirst@?$_Vector_alloc@U?$_Vec_base_types@HV?$allocator@H@std@@@std@@@std@@QEAAAEAPEAHXZ
	.p2align	4, 0x90
"?_Myfirst@?$_Vector_alloc@U?$_Vec_base_types@HV?$allocator@H@std@@@std@@@std@@QEAAAEAPEAHXZ": # @"?_Myfirst@?$_Vector_alloc@U?$_Vec_base_types@HV?$allocator@H@std@@@std@@@std@@QEAAAEAPEAHXZ"
.Lfunc_begin56:
	.cv_func_id 56
	.cv_loc	56 4 575 0              # C:\Program Files (x86)\Microsoft Visual Studio\2017\Community\VC\Tools\MSVC\14.16.27023\include\vector:575:0
.seh_proc "?_Myfirst@?$_Vector_alloc@U?$_Vec_base_types@HV?$allocator@H@std@@@std@@@std@@QEAAAEAPEAHXZ"
# %bb.0:
	sub	rsp, 40
	.seh_stackalloc 40
	.seh_endprologue
	mov	qword ptr [rsp + 32], rcx
	mov	rcx, qword ptr [rsp + 32]
.Ltmp175:
	.cv_loc	56 4 576 0              # C:\Program Files (x86)\Microsoft Visual Studio\2017\Community\VC\Tools\MSVC\14.16.27023\include\vector:576:0
	call	"?_Get_data@?$_Vector_alloc@U?$_Vec_base_types@HV?$allocator@H@std@@@std@@@std@@QEAAAEAV?$_Vector_val@U?$_Simple_types@H@std@@@2@XZ"
	add	rax, 8
	add	rsp, 40
	ret
.Ltmp176:
.Lfunc_end56:
	.seh_handlerdata
	.section	.text,"xr",discard,"?_Myfirst@?$_Vector_alloc@U?$_Vec_base_types@HV?$allocator@H@std@@@std@@@std@@QEAAAEAPEAHXZ"
	.seh_endproc
                                        # -- End function
	.def	 "?_Get_data@?$_Vector_alloc@U?$_Vec_base_types@HV?$allocator@H@std@@@std@@@std@@QEAAAEAV?$_Vector_val@U?$_Simple_types@H@std@@@2@XZ";
	.scl	2;
	.type	32;
	.endef
	.section	.text,"xr",discard,"?_Get_data@?$_Vector_alloc@U?$_Vec_base_types@HV?$allocator@H@std@@@std@@@std@@QEAAAEAV?$_Vector_val@U?$_Simple_types@H@std@@@2@XZ"
	.globl	"?_Get_data@?$_Vector_alloc@U?$_Vec_base_types@HV?$allocator@H@std@@@std@@@std@@QEAAAEAV?$_Vector_val@U?$_Simple_types@H@std@@@2@XZ" # -- Begin function ?_Get_data@?$_Vector_alloc@U?$_Vec_base_types@HV?$allocator@H@std@@@std@@@std@@QEAAAEAV?$_Vector_val@U?$_Simple_types@H@std@@@2@XZ
	.p2align	4, 0x90
"?_Get_data@?$_Vector_alloc@U?$_Vec_base_types@HV?$allocator@H@std@@@std@@@std@@QEAAAEAV?$_Vector_val@U?$_Simple_types@H@std@@@2@XZ": # @"?_Get_data@?$_Vector_alloc@U?$_Vec_base_types@HV?$allocator@H@std@@@std@@@std@@QEAAAEAV?$_Vector_val@U?$_Simple_types@H@std@@@2@XZ"
.Lfunc_begin57:
	.cv_func_id 57
	.cv_loc	57 4 554 0              # C:\Program Files (x86)\Microsoft Visual Studio\2017\Community\VC\Tools\MSVC\14.16.27023\include\vector:554:0
.seh_proc "?_Get_data@?$_Vector_alloc@U?$_Vec_base_types@HV?$allocator@H@std@@@std@@@std@@QEAAAEAV?$_Vector_val@U?$_Simple_types@H@std@@@2@XZ"
# %bb.0:
	sub	rsp, 40
	.seh_stackalloc 40
	.seh_endprologue
	mov	qword ptr [rsp + 32], rcx
	mov	rcx, qword ptr [rsp + 32]
.Ltmp177:
	.cv_loc	57 4 555 0              # C:\Program Files (x86)\Microsoft Visual Studio\2017\Community\VC\Tools\MSVC\14.16.27023\include\vector:555:0
	call	"?_Get_second@?$_Compressed_pair@V?$allocator@H@std@@V?$_Vector_val@U?$_Simple_types@H@std@@@2@$00@std@@QEAAAEAV?$_Vector_val@U?$_Simple_types@H@std@@@2@XZ"
	nop
	add	rsp, 40
	ret
.Ltmp178:
.Lfunc_end57:
	.seh_handlerdata
	.section	.text,"xr",discard,"?_Get_data@?$_Vector_alloc@U?$_Vec_base_types@HV?$allocator@H@std@@@std@@@std@@QEAAAEAV?$_Vector_val@U?$_Simple_types@H@std@@@2@XZ"
	.seh_endproc
                                        # -- End function
	.def	 "?_Get_second@?$_Compressed_pair@V?$allocator@H@std@@V?$_Vector_val@U?$_Simple_types@H@std@@@2@$00@std@@QEAAAEAV?$_Vector_val@U?$_Simple_types@H@std@@@2@XZ";
	.scl	2;
	.type	32;
	.endef
	.section	.text,"xr",discard,"?_Get_second@?$_Compressed_pair@V?$allocator@H@std@@V?$_Vector_val@U?$_Simple_types@H@std@@@2@$00@std@@QEAAAEAV?$_Vector_val@U?$_Simple_types@H@std@@@2@XZ"
	.globl	"?_Get_second@?$_Compressed_pair@V?$allocator@H@std@@V?$_Vector_val@U?$_Simple_types@H@std@@@2@$00@std@@QEAAAEAV?$_Vector_val@U?$_Simple_types@H@std@@@2@XZ" # -- Begin function ?_Get_second@?$_Compressed_pair@V?$allocator@H@std@@V?$_Vector_val@U?$_Simple_types@H@std@@@2@$00@std@@QEAAAEAV?$_Vector_val@U?$_Simple_types@H@std@@@2@XZ
	.p2align	4, 0x90
"?_Get_second@?$_Compressed_pair@V?$allocator@H@std@@V?$_Vector_val@U?$_Simple_types@H@std@@@2@$00@std@@QEAAAEAV?$_Vector_val@U?$_Simple_types@H@std@@@2@XZ": # @"?_Get_second@?$_Compressed_pair@V?$allocator@H@std@@V?$_Vector_val@U?$_Simple_types@H@std@@@2@$00@std@@QEAAAEAV?$_Vector_val@U?$_Simple_types@H@std@@@2@XZ"
.Lfunc_begin58:
	.cv_func_id 58
	.cv_loc	58 10 301 0             # C:\Program Files (x86)\Microsoft Visual Studio\2017\Community\VC\Tools\MSVC\14.16.27023\include\xutility:301:0
.seh_proc "?_Get_second@?$_Compressed_pair@V?$allocator@H@std@@V?$_Vector_val@U?$_Simple_types@H@std@@@2@$00@std@@QEAAAEAV?$_Vector_val@U?$_Simple_types@H@std@@@2@XZ"
# %bb.0:
	push	rax
	.seh_stackalloc 8
	.seh_endprologue
	mov	qword ptr [rsp], rcx
	mov	rax, qword ptr [rsp]
.Ltmp179:
	.cv_loc	58 10 302 0             # C:\Program Files (x86)\Microsoft Visual Studio\2017\Community\VC\Tools\MSVC\14.16.27023\include\xutility:302:0
	pop	rcx
	ret
.Ltmp180:
.Lfunc_end58:
	.seh_handlerdata
	.section	.text,"xr",discard,"?_Get_second@?$_Compressed_pair@V?$allocator@H@std@@V?$_Vector_val@U?$_Simple_types@H@std@@@2@$00@std@@QEAAAEAV?$_Vector_val@U?$_Simple_types@H@std@@@2@XZ"
	.seh_endproc
                                        # -- End function
	.def	 "??$?0_J@?$storage_type@V?$extent_type@$0?0@details@gsl@@@?$span@H$0?0@gsl@@QEAA@PEAH_J@Z";
	.scl	2;
	.type	32;
	.endef
	.section	.text,"xr",discard,"??$?0_J@?$storage_type@V?$extent_type@$0?0@details@gsl@@@?$span@H$0?0@gsl@@QEAA@PEAH_J@Z"
	.globl	"??$?0_J@?$storage_type@V?$extent_type@$0?0@details@gsl@@@?$span@H$0?0@gsl@@QEAA@PEAH_J@Z" # -- Begin function ??$?0_J@?$storage_type@V?$extent_type@$0?0@details@gsl@@@?$span@H$0?0@gsl@@QEAA@PEAH_J@Z
	.p2align	4, 0x90
"??$?0_J@?$storage_type@V?$extent_type@$0?0@details@gsl@@@?$span@H$0?0@gsl@@QEAA@PEAH_J@Z": # @"??$?0_J@?$storage_type@V?$extent_type@$0?0@details@gsl@@@?$span@H$0?0@gsl@@QEAA@PEAH_J@Z"
.Lfunc_begin59:
	.cv_func_id 59
	.cv_loc	59 2 597 0              # ..\include\gsl/span:597:0
.seh_proc "??$?0_J@?$storage_type@V?$extent_type@$0?0@details@gsl@@@?$span@H$0?0@gsl@@QEAA@PEAH_J@Z"
	.seh_handler __CxxFrameHandler3, @unwind, @except
# %bb.0:
	push	rbp
	.seh_pushreg 5
	sub	rsp, 192
	.seh_stackalloc 192
	lea	rbp, [rsp + 128]
	.seh_setframe 5, 128
	.seh_endprologue
	mov	qword ptr [rbp + 56], -2
	mov	qword ptr [rbp + 40], r8
	mov	qword ptr [rbp + 32], rdx
	mov	qword ptr [rbp + 24], rcx
	mov	rcx, qword ptr [rbp + 24]
	mov	qword ptr [rbp + 48], rcx
.Ltmp185:
	mov	rdx, rcx
	mov	r8, qword ptr [rbp + 40]
	mov	qword ptr [rbp - 48], rcx # 8-byte Spill
	mov	rcx, rdx
	mov	rdx, r8
	call	"??0?$extent_type@$0?0@details@gsl@@QEAA@_J@Z"
	mov	rcx, qword ptr [rbp + 32]
	mov	rdx, qword ptr [rbp - 48] # 8-byte Reload
	mov	qword ptr [rdx + 8], rcx
.Ltmp186:
	.cv_loc	59 2 598 0              # ..\include\gsl/span:598:0
	mov	rcx, rdx
	mov	qword ptr [rbp - 56], rax # 8-byte Spill
	call	"?size@?$extent_type@$0?0@details@gsl@@QEBA_JXZ"
	cmp	rax, 0
	setge	r9b
	mov	byte ptr [rbp - 1], 0
	test	r9b, 1
	jne	.LBB59_1
	jmp	.LBB59_2
.LBB59_1:
	test	byte ptr [rbp - 1], 1
	jne	.LBB59_4
	jmp	.LBB59_5
.LBB59_2:
	lea	rdx, [rip + "??_C@_0DG@PPPKJHO@GSL?3?5Precondition?5failure?5at?5?4?4?2@"]
	mov	rax, rbp
	mov	rcx, rax
	mov	qword ptr [rbp - 64], rax # 8-byte Spill
	call	"??0fail_fast@gsl@@QEAA@QEBD@Z"
	mov	byte ptr [rbp - 1], 1
.Ltmp181:
	mov	rcx, qword ptr [rbp - 64] # 8-byte Reload
	mov	qword ptr [rbp - 72], rax # 8-byte Spill
	call	"??$throw_exception@Ufail_fast@gsl@@@details@gsl@@YAX$$QEAUfail_fast@1@@Z"
.Ltmp182:
	jmp	.LBB59_3
.LBB59_3:
	ud2
.LBB59_4:
	mov	rcx, rbp
	call	"??1fail_fast@gsl@@UEAA@XZ"
.LBB59_5:
	.cv_loc	59 2 599 0              # ..\include\gsl/span:599:0
	mov	rax, qword ptr [rbp + 32]
	mov	byte ptr [rbp - 33], 0
	cmp	rax, 0
	mov	cl, 1
	mov	byte ptr [rbp - 73], cl # 1-byte Spill
	jne	.LBB59_7
# %bb.6:
	mov	rax, qword ptr [rbp - 48] # 8-byte Reload
	mov	rcx, rax
	call	"?size@?$extent_type@$0?0@details@gsl@@QEBA_JXZ"
	cmp	rax, 0
	sete	dl
	mov	byte ptr [rbp - 73], dl # 1-byte Spill
.LBB59_7:
	mov	al, byte ptr [rbp - 73] # 1-byte Reload
	test	al, 1
	jne	.LBB59_8
	jmp	.LBB59_9
.LBB59_8:
	test	byte ptr [rbp - 33], 1
	jne	.LBB59_14
	jmp	.LBB59_15
.LBB59_9:
	lea	rdx, [rip + "??_C@_0DG@BGOEJIDP@GSL?3?5Precondition?5failure?5at?5?4?4?2@"]
	lea	rax, [rbp - 32]
	mov	rcx, rax
	mov	qword ptr [rbp - 88], rax # 8-byte Spill
	call	"??0fail_fast@gsl@@QEAA@QEBD@Z"
	mov	byte ptr [rbp - 33], 1
.Ltmp183:
	mov	rcx, qword ptr [rbp - 88] # 8-byte Reload
	mov	qword ptr [rbp - 96], rax # 8-byte Spill
	call	"??$throw_exception@Ufail_fast@gsl@@@details@gsl@@YAX$$QEAUfail_fast@1@@Z"
.Ltmp184:
	jmp	.LBB59_10
.LBB59_10:
	ud2
.LBB59_14:
	lea	rcx, [rbp - 32]
	call	"??1fail_fast@gsl@@UEAA@XZ"
.Ltmp187:
.LBB59_15:
	.cv_loc	59 2 600 0              # ..\include\gsl/span:600:0
	mov	rax, qword ptr [rbp + 48]
	add	rsp, 192
	pop	rbp
	ret
	.seh_handlerdata
	.long	("$cppxdata$??$?0_J@?$storage_type@V?$extent_type@$0?0@details@gsl@@@?$span@H$0?0@gsl@@QEAA@PEAH_J@Z")@IMGREL
	.section	.text,"xr",discard,"??$?0_J@?$storage_type@V?$extent_type@$0?0@details@gsl@@@?$span@H$0?0@gsl@@QEAA@PEAH_J@Z"
	.seh_endproc
	.def	 "?dtor$11@?0???$?0_J@?$storage_type@V?$extent_type@$0?0@details@gsl@@@?$span@H$0?0@gsl@@QEAA@PEAH_J@Z@4HA";
	.scl	3;
	.type	32;
	.endef
	.p2align	4, 0x90
"?dtor$11@?0???$?0_J@?$storage_type@V?$extent_type@$0?0@details@gsl@@@?$span@H$0?0@gsl@@QEAA@PEAH_J@Z@4HA":
.seh_proc "?dtor$11@?0???$?0_J@?$storage_type@V?$extent_type@$0?0@details@gsl@@@?$span@H$0?0@gsl@@QEAA@PEAH_J@Z@4HA"
.LBB59_11:
	mov	qword ptr [rsp + 16], rdx
	push	rbp
	.seh_pushreg 5
	sub	rsp, 32
	.seh_stackalloc 32
	lea	rbp, [rdx + 128]
	.seh_endprologue
.Ltmp188:
	.cv_loc	59 2 598 0              # ..\include\gsl/span:598:0
	test	byte ptr [rbp - 1], 1
	jne	.LBB59_12
	jmp	.LBB59_13
.LBB59_12:
	mov	rcx, rbp
	call	"??1fail_fast@gsl@@UEAA@XZ"
.LBB59_13:
	nop
	add	rsp, 32
	pop	rbp
	ret                             # CLEANUPRET
	.seh_handlerdata
	.section	.text,"xr",discard,"??$?0_J@?$storage_type@V?$extent_type@$0?0@details@gsl@@@?$span@H$0?0@gsl@@QEAA@PEAH_J@Z"
	.seh_endproc
	.def	 "?dtor$16@?0???$?0_J@?$storage_type@V?$extent_type@$0?0@details@gsl@@@?$span@H$0?0@gsl@@QEAA@PEAH_J@Z@4HA";
	.scl	3;
	.type	32;
	.endef
	.p2align	4, 0x90
"?dtor$16@?0???$?0_J@?$storage_type@V?$extent_type@$0?0@details@gsl@@@?$span@H$0?0@gsl@@QEAA@PEAH_J@Z@4HA":
.seh_proc "?dtor$16@?0???$?0_J@?$storage_type@V?$extent_type@$0?0@details@gsl@@@?$span@H$0?0@gsl@@QEAA@PEAH_J@Z@4HA"
.LBB59_16:
	mov	qword ptr [rsp + 16], rdx
	push	rbp
	.seh_pushreg 5
	sub	rsp, 32
	.seh_stackalloc 32
	lea	rbp, [rdx + 128]
	.seh_endprologue
	.cv_loc	59 2 599 0              # ..\include\gsl/span:599:0
	test	byte ptr [rbp - 33], 1
	jne	.LBB59_17
	jmp	.LBB59_18
.LBB59_17:
	lea	rcx, [rbp - 32]
	call	"??1fail_fast@gsl@@UEAA@XZ"
.LBB59_18:
	nop
	add	rsp, 32
	pop	rbp
	ret                             # CLEANUPRET
.Ltmp189:
.Lfunc_end59:
	.seh_handlerdata
	.section	.text,"xr",discard,"??$?0_J@?$storage_type@V?$extent_type@$0?0@details@gsl@@@?$span@H$0?0@gsl@@QEAA@PEAH_J@Z"
	.seh_endproc
	.section	.xdata,"dr",associative,"??$?0_J@?$storage_type@V?$extent_type@$0?0@details@gsl@@@?$span@H$0?0@gsl@@QEAA@PEAH_J@Z"
	.p2align	2
"$cppxdata$??$?0_J@?$storage_type@V?$extent_type@$0?0@details@gsl@@@?$span@H$0?0@gsl@@QEAA@PEAH_J@Z":
	.long	429065506               # MagicNumber
	.long	2                       # MaxState
	.long	("$stateUnwindMap$??$?0_J@?$storage_type@V?$extent_type@$0?0@details@gsl@@@?$span@H$0?0@gsl@@QEAA@PEAH_J@Z")@IMGREL # UnwindMap
	.long	0                       # NumTryBlocks
	.long	0                       # TryBlockMap
	.long	5                       # IPMapEntries
	.long	("$ip2state$??$?0_J@?$storage_type@V?$extent_type@$0?0@details@gsl@@@?$span@H$0?0@gsl@@QEAA@PEAH_J@Z")@IMGREL # IPToStateXData
	.long	184                     # UnwindHelp
	.long	0                       # ESTypeList
	.long	1                       # EHFlags
"$stateUnwindMap$??$?0_J@?$storage_type@V?$extent_type@$0?0@details@gsl@@@?$span@H$0?0@gsl@@QEAA@PEAH_J@Z":
	.long	-1                      # ToState
	.long	"?dtor$11@?0???$?0_J@?$storage_type@V?$extent_type@$0?0@details@gsl@@@?$span@H$0?0@gsl@@QEAA@PEAH_J@Z@4HA"@IMGREL # Action
	.long	-1                      # ToState
	.long	"?dtor$16@?0???$?0_J@?$storage_type@V?$extent_type@$0?0@details@gsl@@@?$span@H$0?0@gsl@@QEAA@PEAH_J@Z@4HA"@IMGREL # Action
"$ip2state$??$?0_J@?$storage_type@V?$extent_type@$0?0@details@gsl@@@?$span@H$0?0@gsl@@QEAA@PEAH_J@Z":
	.long	.Lfunc_begin59@IMGREL   # IP
	.long	-1                      # ToState
	.long	.Ltmp181@IMGREL+1       # IP
	.long	0                       # ToState
	.long	.Ltmp182@IMGREL+1       # IP
	.long	-1                      # ToState
	.long	.Ltmp183@IMGREL+1       # IP
	.long	1                       # ToState
	.long	.Ltmp184@IMGREL+1       # IP
	.long	-1                      # ToState
	.section	.text,"xr",discard,"??$?0_J@?$storage_type@V?$extent_type@$0?0@details@gsl@@@?$span@H$0?0@gsl@@QEAA@PEAH_J@Z"
                                        # -- End function
	.def	 "??0?$extent_type@$0?0@details@gsl@@QEAA@_J@Z";
	.scl	2;
	.type	32;
	.endef
	.section	.text,"xr",discard,"??0?$extent_type@$0?0@details@gsl@@QEAA@_J@Z"
	.globl	"??0?$extent_type@$0?0@details@gsl@@QEAA@_J@Z" # -- Begin function ??0?$extent_type@$0?0@details@gsl@@QEAA@_J@Z
	.p2align	4, 0x90
"??0?$extent_type@$0?0@details@gsl@@QEAA@_J@Z": # @"??0?$extent_type@$0?0@details@gsl@@QEAA@_J@Z"
.Lfunc_begin60:
	.cv_func_id 60
	.cv_loc	60 2 336 0              # ..\include\gsl/span:336:0
.seh_proc "??0?$extent_type@$0?0@details@gsl@@QEAA@_J@Z"
	.seh_handler __CxxFrameHandler3, @unwind, @except
# %bb.0:
	push	rbp
	.seh_pushreg 5
	sub	rsp, 112
	.seh_stackalloc 112
	lea	rbp, [rsp + 112]
	.seh_setframe 5, 112
	.seh_endprologue
	mov	qword ptr [rbp - 8], -2
	mov	qword ptr [rbp - 24], rdx
	mov	qword ptr [rbp - 32], rcx
	mov	rcx, qword ptr [rbp - 32]
	mov	qword ptr [rbp - 16], rcx
.Ltmp192:
	mov	rdx, qword ptr [rbp - 24]
	mov	qword ptr [rcx], rdx
.Ltmp193:
	.cv_loc	60 2 336 0              # ..\include\gsl/span:336:0
	cmp	qword ptr [rbp - 24], 0
	setge	al
	mov	byte ptr [rbp - 57], 0
	test	al, 1
	jne	.LBB60_1
	jmp	.LBB60_2
.LBB60_1:
	test	byte ptr [rbp - 57], 1
	jne	.LBB60_4
	jmp	.LBB60_5
.LBB60_2:
	lea	rdx, [rip + "??_C@_0DG@LJIAFOPK@GSL?3?5Precondition?5failure?5at?5?4?4?2@"]
	lea	rax, [rbp - 56]
	mov	rcx, rax
	mov	qword ptr [rbp - 72], rax # 8-byte Spill
	call	"??0fail_fast@gsl@@QEAA@QEBD@Z"
	mov	byte ptr [rbp - 57], 1
.Ltmp190:
	mov	rcx, qword ptr [rbp - 72] # 8-byte Reload
	mov	qword ptr [rbp - 80], rax # 8-byte Spill
	call	"??$throw_exception@Ufail_fast@gsl@@@details@gsl@@YAX$$QEAUfail_fast@1@@Z"
.Ltmp191:
	jmp	.LBB60_3
.LBB60_3:
	ud2
.LBB60_4:
	lea	rcx, [rbp - 56]
	call	"??1fail_fast@gsl@@UEAA@XZ"
.Ltmp194:
.LBB60_5:
	.cv_loc	60 2 336 0              # ..\include\gsl/span:336:0
	mov	rax, qword ptr [rbp - 16]
	add	rsp, 112
	pop	rbp
	ret
	.seh_handlerdata
	.long	("$cppxdata$??0?$extent_type@$0?0@details@gsl@@QEAA@_J@Z")@IMGREL
	.section	.text,"xr",discard,"??0?$extent_type@$0?0@details@gsl@@QEAA@_J@Z"
	.seh_endproc
	.def	 "?dtor$6@?0???0?$extent_type@$0?0@details@gsl@@QEAA@_J@Z@4HA";
	.scl	3;
	.type	32;
	.endef
	.p2align	4, 0x90
"?dtor$6@?0???0?$extent_type@$0?0@details@gsl@@QEAA@_J@Z@4HA":
.seh_proc "?dtor$6@?0???0?$extent_type@$0?0@details@gsl@@QEAA@_J@Z@4HA"
.LBB60_6:
	mov	qword ptr [rsp + 16], rdx
	push	rbp
	.seh_pushreg 5
	sub	rsp, 32
	.seh_stackalloc 32
	lea	rbp, [rdx + 112]
	.seh_endprologue
.Ltmp195:
	.cv_loc	60 2 336 0              # ..\include\gsl/span:336:0
	test	byte ptr [rbp - 57], 1
	jne	.LBB60_7
	jmp	.LBB60_8
.LBB60_7:
	lea	rcx, [rbp - 56]
	call	"??1fail_fast@gsl@@UEAA@XZ"
.LBB60_8:
	nop
	add	rsp, 32
	pop	rbp
	ret                             # CLEANUPRET
.Ltmp196:
.Lfunc_end60:
	.seh_handlerdata
	.section	.text,"xr",discard,"??0?$extent_type@$0?0@details@gsl@@QEAA@_J@Z"
	.seh_endproc
	.section	.xdata,"dr",associative,"??0?$extent_type@$0?0@details@gsl@@QEAA@_J@Z"
	.p2align	2
"$cppxdata$??0?$extent_type@$0?0@details@gsl@@QEAA@_J@Z":
	.long	429065506               # MagicNumber
	.long	1                       # MaxState
	.long	("$stateUnwindMap$??0?$extent_type@$0?0@details@gsl@@QEAA@_J@Z")@IMGREL # UnwindMap
	.long	0                       # NumTryBlocks
	.long	0                       # TryBlockMap
	.long	3                       # IPMapEntries
	.long	("$ip2state$??0?$extent_type@$0?0@details@gsl@@QEAA@_J@Z")@IMGREL # IPToStateXData
	.long	104                     # UnwindHelp
	.long	0                       # ESTypeList
	.long	1                       # EHFlags
"$stateUnwindMap$??0?$extent_type@$0?0@details@gsl@@QEAA@_J@Z":
	.long	-1                      # ToState
	.long	"?dtor$6@?0???0?$extent_type@$0?0@details@gsl@@QEAA@_J@Z@4HA"@IMGREL # Action
"$ip2state$??0?$extent_type@$0?0@details@gsl@@QEAA@_J@Z":
	.long	.Lfunc_begin60@IMGREL   # IP
	.long	-1                      # ToState
	.long	.Ltmp190@IMGREL+1       # IP
	.long	0                       # ToState
	.long	.Ltmp191@IMGREL+1       # IP
	.long	-1                      # ToState
	.section	.text,"xr",discard,"??0?$extent_type@$0?0@details@gsl@@QEAA@_J@Z"
                                        # -- End function
	.def	 "??$?0AEBV?$allocator@H@std@@X@?$_Vector_alloc@U?$_Vec_base_types@HV?$allocator@H@std@@@std@@@std@@QEAA@AEBV?$allocator@H@1@@Z";
	.scl	2;
	.type	32;
	.endef
	.section	.text,"xr",discard,"??$?0AEBV?$allocator@H@std@@X@?$_Vector_alloc@U?$_Vec_base_types@HV?$allocator@H@std@@@std@@@std@@QEAA@AEBV?$allocator@H@1@@Z"
	.globl	"??$?0AEBV?$allocator@H@std@@X@?$_Vector_alloc@U?$_Vec_base_types@HV?$allocator@H@std@@@std@@@std@@QEAA@AEBV?$allocator@H@1@@Z" # -- Begin function ??$?0AEBV?$allocator@H@std@@X@?$_Vector_alloc@U?$_Vec_base_types@HV?$allocator@H@std@@@std@@@std@@QEAA@AEBV?$allocator@H@1@@Z
	.p2align	4, 0x90
"??$?0AEBV?$allocator@H@std@@X@?$_Vector_alloc@U?$_Vec_base_types@HV?$allocator@H@std@@@std@@@std@@QEAA@AEBV?$allocator@H@1@@Z": # @"??$?0AEBV?$allocator@H@std@@X@?$_Vector_alloc@U?$_Vec_base_types@HV?$allocator@H@std@@@std@@@std@@QEAA@AEBV?$allocator@H@1@@Z"
.Lfunc_begin61:
	.cv_func_id 61
	.cv_loc	61 4 455 0              # C:\Program Files (x86)\Microsoft Visual Studio\2017\Community\VC\Tools\MSVC\14.16.27023\include\vector:455:0
.seh_proc "??$?0AEBV?$allocator@H@std@@X@?$_Vector_alloc@U?$_Vec_base_types@HV?$allocator@H@std@@@std@@@std@@QEAA@AEBV?$allocator@H@1@@Z"
# %bb.0:
	sub	rsp, 72
	.seh_stackalloc 72
	.seh_endprologue
	mov	qword ptr [rsp + 64], rdx
	mov	qword ptr [rsp + 56], rcx
	mov	rcx, qword ptr [rsp + 56]
.Ltmp197:
	mov	rdx, qword ptr [rsp + 64]
	mov	qword ptr [rsp + 40], rcx # 8-byte Spill
	mov	rcx, rdx
	call	"??$forward@AEBV?$allocator@H@std@@@std@@YAAEBV?$allocator@H@0@AEBV10@@Z"
	mov	dl, byte ptr [rsp + 48]
	mov	rcx, qword ptr [rsp + 40] # 8-byte Reload
	mov	r8, rax
	call	"??$?0AEBV?$allocator@H@std@@$$V@?$_Compressed_pair@V?$allocator@H@std@@V?$_Vector_val@U?$_Simple_types@H@std@@@2@$00@std@@QEAA@U_One_then_variadic_args_t@1@AEBV?$allocator@H@1@@Z"
.Ltmp198:
	.cv_loc	61 4 456 0              # C:\Program Files (x86)\Microsoft Visual Studio\2017\Community\VC\Tools\MSVC\14.16.27023\include\vector:456:0
	mov	rcx, qword ptr [rsp + 40] # 8-byte Reload
	mov	qword ptr [rsp + 32], rax # 8-byte Spill
	call	"?_Alloc_proxy@?$_Vector_alloc@U?$_Vec_base_types@HV?$allocator@H@std@@@std@@@std@@QEAAXXZ"
.Ltmp199:
	.cv_loc	61 4 457 0              # C:\Program Files (x86)\Microsoft Visual Studio\2017\Community\VC\Tools\MSVC\14.16.27023\include\vector:457:0
	mov	rax, qword ptr [rsp + 40] # 8-byte Reload
	add	rsp, 72
	ret
.Ltmp200:
.Lfunc_end61:
	.seh_handlerdata
	.section	.text,"xr",discard,"??$?0AEBV?$allocator@H@std@@X@?$_Vector_alloc@U?$_Vec_base_types@HV?$allocator@H@std@@@std@@@std@@QEAA@AEBV?$allocator@H@1@@Z"
	.seh_endproc
                                        # -- End function
	.def	 "??$_Range_construct_or_tidy@PEBH@?$vector@HV?$allocator@H@std@@@std@@AEAAXPEBH0Uforward_iterator_tag@1@@Z";
	.scl	2;
	.type	32;
	.endef
	.section	.text,"xr",discard,"??$_Range_construct_or_tidy@PEBH@?$vector@HV?$allocator@H@std@@@std@@AEAAXPEBH0Uforward_iterator_tag@1@@Z"
	.globl	"??$_Range_construct_or_tidy@PEBH@?$vector@HV?$allocator@H@std@@@std@@AEAAXPEBH0Uforward_iterator_tag@1@@Z" # -- Begin function ??$_Range_construct_or_tidy@PEBH@?$vector@HV?$allocator@H@std@@@std@@AEAAXPEBH0Uforward_iterator_tag@1@@Z
	.p2align	4, 0x90
"??$_Range_construct_or_tidy@PEBH@?$vector@HV?$allocator@H@std@@@std@@AEAAXPEBH0Uforward_iterator_tag@1@@Z": # @"??$_Range_construct_or_tidy@PEBH@?$vector@HV?$allocator@H@std@@@std@@AEAAXPEBH0Uforward_iterator_tag@1@@Z"
.Lfunc_begin62:
	.cv_func_id 62
	.cv_loc	62 4 704 0              # C:\Program Files (x86)\Microsoft Visual Studio\2017\Community\VC\Tools\MSVC\14.16.27023\include\vector:704:0
.seh_proc "??$_Range_construct_or_tidy@PEBH@?$vector@HV?$allocator@H@std@@@std@@AEAAXPEBH0Uforward_iterator_tag@1@@Z"
	.seh_handler __CxxFrameHandler3, @unwind, @except
# %bb.0:
	push	rbp
	.seh_pushreg 5
	sub	rsp, 96
	.seh_stackalloc 96
	lea	rbp, [rsp + 96]
	.seh_setframe 5, 96
	.seh_endprologue
	mov	qword ptr [rbp - 8], -2
	mov	byte ptr [rbp - 16], r9b
	mov	qword ptr [rbp - 24], r8
	mov	qword ptr [rbp - 32], rdx
	mov	qword ptr [rbp - 40], rcx
	mov	rcx, qword ptr [rbp - 40]
.Ltmp203:
	.cv_loc	62 4 705 0              # C:\Program Files (x86)\Microsoft Visual Studio\2017\Community\VC\Tools\MSVC\14.16.27023\include\vector:705:0
	mov	rdx, qword ptr [rbp - 24]
	mov	r8, qword ptr [rbp - 32]
	mov	qword ptr [rbp - 48], rcx # 8-byte Spill
	mov	rcx, r8
	call	"??$distance@PEBH@std@@YA_JPEBH0@Z"
	mov	rcx, rax
	call	"??$_Convert_size@_K@std@@YA_K_K@Z"
	mov	rcx, qword ptr [rbp - 48] # 8-byte Reload
	mov	rdx, rax
	call	"?_Buy@?$vector@HV?$allocator@H@std@@@std@@AEAA_N_K@Z"
	test	al, 1
	jne	.LBB62_1
	jmp	.LBB62_4
.LBB62_1:
.Ltmp204:
	.cv_loc	62 4 708 0              # C:\Program Files (x86)\Microsoft Visual Studio\2017\Community\VC\Tools\MSVC\14.16.27023\include\vector:708:0
	mov	rcx, qword ptr [rbp - 48] # 8-byte Reload
	call	"?_Myfirst@?$_Vector_alloc@U?$_Vec_base_types@HV?$allocator@H@std@@@std@@@std@@QEAAAEAPEAHXZ"
	mov	r9, qword ptr [rax]
	mov	r8, qword ptr [rbp - 24]
	mov	rdx, qword ptr [rbp - 32]
.Ltmp201:
	mov	rcx, qword ptr [rbp - 48] # 8-byte Reload
	call	"??$_Ucopy@PEBH@?$vector@HV?$allocator@H@std@@@std@@AEAAPEAHPEBH0PEAH@Z"
.Ltmp202:
	mov	qword ptr [rbp - 56], rax # 8-byte Spill
	jmp	.LBB62_3
.LBB62_3:
	mov	rax, qword ptr [rbp - 48] # 8-byte Reload
	mov	rcx, rax
	call	"?_Mylast@?$_Vector_alloc@U?$_Vec_base_types@HV?$allocator@H@std@@@std@@@std@@QEAAAEAPEAHXZ"
	mov	rcx, qword ptr [rbp - 56] # 8-byte Reload
	mov	qword ptr [rax], rcx
.Ltmp205:
.LBB62_4:
	.cv_loc	62 4 714 0              # C:\Program Files (x86)\Microsoft Visual Studio\2017\Community\VC\Tools\MSVC\14.16.27023\include\vector:714:0
	add	rsp, 96
	pop	rbp
	ret
	.seh_handlerdata
	.long	("$cppxdata$??$_Range_construct_or_tidy@PEBH@?$vector@HV?$allocator@H@std@@@std@@AEAAXPEBH0Uforward_iterator_tag@1@@Z")@IMGREL
	.section	.text,"xr",discard,"??$_Range_construct_or_tidy@PEBH@?$vector@HV?$allocator@H@std@@@std@@AEAAXPEBH0Uforward_iterator_tag@1@@Z"
	.seh_endproc
	.def	 "?catch$2@?0???$_Range_construct_or_tidy@PEBH@?$vector@HV?$allocator@H@std@@@std@@AEAAXPEBH0Uforward_iterator_tag@1@@Z@4HA";
	.scl	3;
	.type	32;
	.endef
	.p2align	4, 0x90
"?catch$2@?0???$_Range_construct_or_tidy@PEBH@?$vector@HV?$allocator@H@std@@@std@@AEAAXPEBH0Uforward_iterator_tag@1@@Z@4HA":
.seh_proc "?catch$2@?0???$_Range_construct_or_tidy@PEBH@?$vector@HV?$allocator@H@std@@@std@@AEAAXPEBH0Uforward_iterator_tag@1@@Z@4HA"
	.seh_handler __CxxFrameHandler3, @unwind, @except
.LBB62_2:
	mov	qword ptr [rsp + 16], rdx
	push	rbp
	.seh_pushreg 5
	sub	rsp, 32
	.seh_stackalloc 32
	lea	rbp, [rdx + 96]
	.seh_endprologue
.Ltmp206:
	.cv_loc	62 4 710 0              # C:\Program Files (x86)\Microsoft Visual Studio\2017\Community\VC\Tools\MSVC\14.16.27023\include\vector:710:0
	mov	rcx, qword ptr [rbp - 48] # 8-byte Reload
	call	"?_Tidy@?$vector@HV?$allocator@H@std@@@std@@AEAAXXZ"
	.cv_loc	62 4 711 0              # C:\Program Files (x86)\Microsoft Visual Studio\2017\Community\VC\Tools\MSVC\14.16.27023\include\vector:711:0
	mov	rcx, qword ptr [rip + __imp__CxxThrowException]
	xor	eax, eax
	mov	edx, eax
	mov	qword ptr [rbp - 64], rcx # 8-byte Spill
	mov	rcx, rdx
	mov	r8, qword ptr [rbp - 64] # 8-byte Reload
	call	r8
	ud2
.Ltmp207:
.Lfunc_end62:
	.seh_handlerdata
	.long	("$cppxdata$??$_Range_construct_or_tidy@PEBH@?$vector@HV?$allocator@H@std@@@std@@AEAAXPEBH0Uforward_iterator_tag@1@@Z")@IMGREL
	.section	.text,"xr",discard,"??$_Range_construct_or_tidy@PEBH@?$vector@HV?$allocator@H@std@@@std@@AEAAXPEBH0Uforward_iterator_tag@1@@Z"
	.seh_endproc
	.section	.xdata,"dr",associative,"??$_Range_construct_or_tidy@PEBH@?$vector@HV?$allocator@H@std@@@std@@AEAAXPEBH0Uforward_iterator_tag@1@@Z"
	.p2align	2
"$cppxdata$??$_Range_construct_or_tidy@PEBH@?$vector@HV?$allocator@H@std@@@std@@AEAAXPEBH0Uforward_iterator_tag@1@@Z":
	.long	429065506               # MagicNumber
	.long	2                       # MaxState
	.long	("$stateUnwindMap$??$_Range_construct_or_tidy@PEBH@?$vector@HV?$allocator@H@std@@@std@@AEAAXPEBH0Uforward_iterator_tag@1@@Z")@IMGREL # UnwindMap
	.long	1                       # NumTryBlocks
	.long	("$tryMap$??$_Range_construct_or_tidy@PEBH@?$vector@HV?$allocator@H@std@@@std@@AEAAXPEBH0Uforward_iterator_tag@1@@Z")@IMGREL # TryBlockMap
	.long	4                       # IPMapEntries
	.long	("$ip2state$??$_Range_construct_or_tidy@PEBH@?$vector@HV?$allocator@H@std@@@std@@AEAAXPEBH0Uforward_iterator_tag@1@@Z")@IMGREL # IPToStateXData
	.long	88                      # UnwindHelp
	.long	0                       # ESTypeList
	.long	1                       # EHFlags
"$stateUnwindMap$??$_Range_construct_or_tidy@PEBH@?$vector@HV?$allocator@H@std@@@std@@AEAAXPEBH0Uforward_iterator_tag@1@@Z":
	.long	-1                      # ToState
	.long	0                       # Action
	.long	-1                      # ToState
	.long	0                       # Action
"$tryMap$??$_Range_construct_or_tidy@PEBH@?$vector@HV?$allocator@H@std@@@std@@AEAAXPEBH0Uforward_iterator_tag@1@@Z":
	.long	0                       # TryLow
	.long	0                       # TryHigh
	.long	1                       # CatchHigh
	.long	1                       # NumCatches
	.long	("$handlerMap$0$??$_Range_construct_or_tidy@PEBH@?$vector@HV?$allocator@H@std@@@std@@AEAAXPEBH0Uforward_iterator_tag@1@@Z")@IMGREL # HandlerArray
"$handlerMap$0$??$_Range_construct_or_tidy@PEBH@?$vector@HV?$allocator@H@std@@@std@@AEAAXPEBH0Uforward_iterator_tag@1@@Z":
	.long	64                      # Adjectives
	.long	0                       # Type
	.long	0                       # CatchObjOffset
	.long	"?catch$2@?0???$_Range_construct_or_tidy@PEBH@?$vector@HV?$allocator@H@std@@@std@@AEAAXPEBH0Uforward_iterator_tag@1@@Z@4HA"@IMGREL # Handler
	.long	56                      # ParentFrameOffset
"$ip2state$??$_Range_construct_or_tidy@PEBH@?$vector@HV?$allocator@H@std@@@std@@AEAAXPEBH0Uforward_iterator_tag@1@@Z":
	.long	.Lfunc_begin62@IMGREL   # IP
	.long	-1                      # ToState
	.long	.Ltmp201@IMGREL+1       # IP
	.long	0                       # ToState
	.long	.Ltmp202@IMGREL+1       # IP
	.long	-1                      # ToState
	.long	"?catch$2@?0???$_Range_construct_or_tidy@PEBH@?$vector@HV?$allocator@H@std@@@std@@AEAAXPEBH0Uforward_iterator_tag@1@@Z@4HA"@IMGREL # IP
	.long	1                       # ToState
	.section	.text,"xr",discard,"??$_Range_construct_or_tidy@PEBH@?$vector@HV?$allocator@H@std@@@std@@AEAAXPEBH0Uforward_iterator_tag@1@@Z"
                                        # -- End function
	.def	 "?end@?$initializer_list@H@std@@QEBAPEBHXZ";
	.scl	2;
	.type	32;
	.endef
	.section	.text,"xr",discard,"?end@?$initializer_list@H@std@@QEBAPEBHXZ"
	.globl	"?end@?$initializer_list@H@std@@QEBAPEBHXZ" # -- Begin function ?end@?$initializer_list@H@std@@QEBAPEBHXZ
	.p2align	4, 0x90
"?end@?$initializer_list@H@std@@QEBAPEBHXZ": # @"?end@?$initializer_list@H@std@@QEBAPEBHXZ"
.Lfunc_begin63:
	.cv_func_id 63
	.cv_file	11 "C:\\Program Files (x86)\\Microsoft Visual Studio\\2017\\Community\\VC\\Tools\\MSVC\\14.16.27023\\include\\initializer_list" "CCFEDEABD5697F0CB7E0DD8474E0C0CE" 1
	.cv_loc	63 11 46 0              # C:\Program Files (x86)\Microsoft Visual Studio\2017\Community\VC\Tools\MSVC\14.16.27023\include\initializer_list:46:0
.seh_proc "?end@?$initializer_list@H@std@@QEBAPEBHXZ"
# %bb.0:
	push	rax
	.seh_stackalloc 8
	.seh_endprologue
	mov	qword ptr [rsp], rcx
	mov	rcx, qword ptr [rsp]
.Ltmp208:
	.cv_loc	63 11 47 0              # C:\Program Files (x86)\Microsoft Visual Studio\2017\Community\VC\Tools\MSVC\14.16.27023\include\initializer_list:47:0
	mov	rax, qword ptr [rcx + 8]
	pop	rcx
	ret
.Ltmp209:
.Lfunc_end63:
	.seh_handlerdata
	.section	.text,"xr",discard,"?end@?$initializer_list@H@std@@QEBAPEBHXZ"
	.seh_endproc
                                        # -- End function
	.def	 "?begin@?$initializer_list@H@std@@QEBAPEBHXZ";
	.scl	2;
	.type	32;
	.endef
	.section	.text,"xr",discard,"?begin@?$initializer_list@H@std@@QEBAPEBHXZ"
	.globl	"?begin@?$initializer_list@H@std@@QEBAPEBHXZ" # -- Begin function ?begin@?$initializer_list@H@std@@QEBAPEBHXZ
	.p2align	4, 0x90
"?begin@?$initializer_list@H@std@@QEBAPEBHXZ": # @"?begin@?$initializer_list@H@std@@QEBAPEBHXZ"
.Lfunc_begin64:
	.cv_func_id 64
	.cv_loc	64 11 41 0              # C:\Program Files (x86)\Microsoft Visual Studio\2017\Community\VC\Tools\MSVC\14.16.27023\include\initializer_list:41:0
.seh_proc "?begin@?$initializer_list@H@std@@QEBAPEBHXZ"
# %bb.0:
	push	rax
	.seh_stackalloc 8
	.seh_endprologue
	mov	qword ptr [rsp], rcx
	mov	rcx, qword ptr [rsp]
.Ltmp210:
	.cv_loc	64 11 42 0              # C:\Program Files (x86)\Microsoft Visual Studio\2017\Community\VC\Tools\MSVC\14.16.27023\include\initializer_list:42:0
	mov	rax, qword ptr [rcx]
	pop	rcx
	ret
.Ltmp211:
.Lfunc_end64:
	.seh_handlerdata
	.section	.text,"xr",discard,"?begin@?$initializer_list@H@std@@QEBAPEBHXZ"
	.seh_endproc
                                        # -- End function
	.def	 "??1?$_Vector_alloc@U?$_Vec_base_types@HV?$allocator@H@std@@@std@@@std@@QEAA@XZ";
	.scl	2;
	.type	32;
	.endef
	.section	.text,"xr",discard,"??1?$_Vector_alloc@U?$_Vec_base_types@HV?$allocator@H@std@@@std@@@std@@QEAA@XZ"
	.globl	"??1?$_Vector_alloc@U?$_Vec_base_types@HV?$allocator@H@std@@@std@@@std@@QEAA@XZ" # -- Begin function ??1?$_Vector_alloc@U?$_Vec_base_types@HV?$allocator@H@std@@@std@@@std@@QEAA@XZ
	.p2align	4, 0x90
"??1?$_Vector_alloc@U?$_Vec_base_types@HV?$allocator@H@std@@@std@@@std@@QEAA@XZ": # @"??1?$_Vector_alloc@U?$_Vec_base_types@HV?$allocator@H@std@@@std@@@std@@QEAA@XZ"
.Lfunc_begin65:
	.cv_func_id 65
	.cv_loc	65 4 460 0              # C:\Program Files (x86)\Microsoft Visual Studio\2017\Community\VC\Tools\MSVC\14.16.27023\include\vector:460:0
.seh_proc "??1?$_Vector_alloc@U?$_Vec_base_types@HV?$allocator@H@std@@@std@@@std@@QEAA@XZ"
	.seh_handler __CxxFrameHandler3, @unwind, @except
# %bb.0:
	push	rbp
	.seh_pushreg 5
	sub	rsp, 48
	.seh_stackalloc 48
	lea	rbp, [rsp + 48]
	.seh_setframe 5, 48
	.seh_endprologue
	mov	qword ptr [rbp - 8], -2
	mov	qword ptr [rbp - 16], rcx
	mov	rcx, qword ptr [rbp - 16]
	.cv_loc	65 4 461 0              # C:\Program Files (x86)\Microsoft Visual Studio\2017\Community\VC\Tools\MSVC\14.16.27023\include\vector:461:0
.Ltmp212:
.Ltmp214:
	call	"?_Free_proxy@?$_Vector_alloc@U?$_Vec_base_types@HV?$allocator@H@std@@@std@@@std@@QEAAXXZ"
.Ltmp213:
	jmp	.LBB65_1
.Ltmp215:
.LBB65_1:
	.cv_loc	65 4 462 0              # C:\Program Files (x86)\Microsoft Visual Studio\2017\Community\VC\Tools\MSVC\14.16.27023\include\vector:462:0
	add	rsp, 48
	pop	rbp
	ret
	.seh_handlerdata
	.long	("$cppxdata$??1?$_Vector_alloc@U?$_Vec_base_types@HV?$allocator@H@std@@@std@@@std@@QEAA@XZ")@IMGREL
	.section	.text,"xr",discard,"??1?$_Vector_alloc@U?$_Vec_base_types@HV?$allocator@H@std@@@std@@@std@@QEAA@XZ"
	.seh_endproc
	.def	 "?dtor$2@?0???1?$_Vector_alloc@U?$_Vec_base_types@HV?$allocator@H@std@@@std@@@std@@QEAA@XZ@4HA";
	.scl	3;
	.type	32;
	.endef
	.p2align	4, 0x90
"?dtor$2@?0???1?$_Vector_alloc@U?$_Vec_base_types@HV?$allocator@H@std@@@std@@@std@@QEAA@XZ@4HA":
.seh_proc "?dtor$2@?0???1?$_Vector_alloc@U?$_Vec_base_types@HV?$allocator@H@std@@@std@@@std@@QEAA@XZ@4HA"
.LBB65_2:
	mov	qword ptr [rsp + 16], rdx
	push	rbp
	.seh_pushreg 5
	sub	rsp, 32
	.seh_stackalloc 32
	lea	rbp, [rdx + 48]
	.seh_endprologue
.Ltmp216:
	.cv_loc	65 4 461 0              # C:\Program Files (x86)\Microsoft Visual Studio\2017\Community\VC\Tools\MSVC\14.16.27023\include\vector:461:0
	mov	rax, qword ptr [rip + __imp___std_terminate]
	call	rax
	ud2
.Ltmp217:
.Lfunc_end65:
	.seh_handlerdata
	.section	.text,"xr",discard,"??1?$_Vector_alloc@U?$_Vec_base_types@HV?$allocator@H@std@@@std@@@std@@QEAA@XZ"
	.seh_endproc
	.section	.xdata,"dr",associative,"??1?$_Vector_alloc@U?$_Vec_base_types@HV?$allocator@H@std@@@std@@@std@@QEAA@XZ"
	.p2align	2
"$cppxdata$??1?$_Vector_alloc@U?$_Vec_base_types@HV?$allocator@H@std@@@std@@@std@@QEAA@XZ":
	.long	429065506               # MagicNumber
	.long	1                       # MaxState
	.long	("$stateUnwindMap$??1?$_Vector_alloc@U?$_Vec_base_types@HV?$allocator@H@std@@@std@@@std@@QEAA@XZ")@IMGREL # UnwindMap
	.long	0                       # NumTryBlocks
	.long	0                       # TryBlockMap
	.long	3                       # IPMapEntries
	.long	("$ip2state$??1?$_Vector_alloc@U?$_Vec_base_types@HV?$allocator@H@std@@@std@@@std@@QEAA@XZ")@IMGREL # IPToStateXData
	.long	40                      # UnwindHelp
	.long	0                       # ESTypeList
	.long	1                       # EHFlags
"$stateUnwindMap$??1?$_Vector_alloc@U?$_Vec_base_types@HV?$allocator@H@std@@@std@@@std@@QEAA@XZ":
	.long	-1                      # ToState
	.long	"?dtor$2@?0???1?$_Vector_alloc@U?$_Vec_base_types@HV?$allocator@H@std@@@std@@@std@@QEAA@XZ@4HA"@IMGREL # Action
"$ip2state$??1?$_Vector_alloc@U?$_Vec_base_types@HV?$allocator@H@std@@@std@@@std@@QEAA@XZ":
	.long	.Lfunc_begin65@IMGREL   # IP
	.long	-1                      # ToState
	.long	.Ltmp212@IMGREL+1       # IP
	.long	0                       # ToState
	.long	.Ltmp213@IMGREL+1       # IP
	.long	-1                      # ToState
	.section	.text,"xr",discard,"??1?$_Vector_alloc@U?$_Vec_base_types@HV?$allocator@H@std@@@std@@@std@@QEAA@XZ"
                                        # -- End function
	.def	 "??$forward@AEBV?$allocator@H@std@@@std@@YAAEBV?$allocator@H@0@AEBV10@@Z";
	.scl	2;
	.type	32;
	.endef
	.section	.text,"xr",discard,"??$forward@AEBV?$allocator@H@std@@@std@@YAAEBV?$allocator@H@0@AEBV10@@Z"
	.globl	"??$forward@AEBV?$allocator@H@std@@@std@@YAAEBV?$allocator@H@0@AEBV10@@Z" # -- Begin function ??$forward@AEBV?$allocator@H@std@@@std@@YAAEBV?$allocator@H@0@AEBV10@@Z
	.p2align	4, 0x90
"??$forward@AEBV?$allocator@H@std@@@std@@YAAEBV?$allocator@H@0@AEBV10@@Z": # @"??$forward@AEBV?$allocator@H@std@@@std@@YAAEBV?$allocator@H@0@AEBV10@@Z"
.Lfunc_begin66:
	.cv_func_id 66
	.cv_loc	66 6 1573 0             # C:\Program Files (x86)\Microsoft Visual Studio\2017\Community\VC\Tools\MSVC\14.16.27023\include\type_traits:1573:0
.seh_proc "??$forward@AEBV?$allocator@H@std@@@std@@YAAEBV?$allocator@H@0@AEBV10@@Z"
# %bb.0:
	push	rax
	.seh_stackalloc 8
	.seh_endprologue
	mov	qword ptr [rsp], rcx
.Ltmp218:
	.cv_loc	66 6 1574 0             # C:\Program Files (x86)\Microsoft Visual Studio\2017\Community\VC\Tools\MSVC\14.16.27023\include\type_traits:1574:0
	mov	rax, qword ptr [rsp]
	pop	rcx
	ret
.Ltmp219:
.Lfunc_end66:
	.seh_handlerdata
	.section	.text,"xr",discard,"??$forward@AEBV?$allocator@H@std@@@std@@YAAEBV?$allocator@H@0@AEBV10@@Z"
	.seh_endproc
                                        # -- End function
	.def	 "??$?0AEBV?$allocator@H@std@@$$V@?$_Compressed_pair@V?$allocator@H@std@@V?$_Vector_val@U?$_Simple_types@H@std@@@2@$00@std@@QEAA@U_One_then_variadic_args_t@1@AEBV?$allocator@H@1@@Z";
	.scl	2;
	.type	32;
	.endef
	.section	.text,"xr",discard,"??$?0AEBV?$allocator@H@std@@$$V@?$_Compressed_pair@V?$allocator@H@std@@V?$_Vector_val@U?$_Simple_types@H@std@@@2@$00@std@@QEAA@U_One_then_variadic_args_t@1@AEBV?$allocator@H@1@@Z"
	.globl	"??$?0AEBV?$allocator@H@std@@$$V@?$_Compressed_pair@V?$allocator@H@std@@V?$_Vector_val@U?$_Simple_types@H@std@@@2@$00@std@@QEAA@U_One_then_variadic_args_t@1@AEBV?$allocator@H@1@@Z" # -- Begin function ??$?0AEBV?$allocator@H@std@@$$V@?$_Compressed_pair@V?$allocator@H@std@@V?$_Vector_val@U?$_Simple_types@H@std@@@2@$00@std@@QEAA@U_One_then_variadic_args_t@1@AEBV?$allocator@H@1@@Z
	.p2align	4, 0x90
"??$?0AEBV?$allocator@H@std@@$$V@?$_Compressed_pair@V?$allocator@H@std@@V?$_Vector_val@U?$_Simple_types@H@std@@@2@$00@std@@QEAA@U_One_then_variadic_args_t@1@AEBV?$allocator@H@1@@Z": # @"??$?0AEBV?$allocator@H@std@@$$V@?$_Compressed_pair@V?$allocator@H@std@@V?$_Vector_val@U?$_Simple_types@H@std@@@2@$00@std@@QEAA@U_One_then_variadic_args_t@1@AEBV?$allocator@H@1@@Z"
.Lfunc_begin67:
	.cv_func_id 67
	.cv_loc	67 10 287 0             # C:\Program Files (x86)\Microsoft Visual Studio\2017\Community\VC\Tools\MSVC\14.16.27023\include\xutility:287:0
.seh_proc "??$?0AEBV?$allocator@H@std@@$$V@?$_Compressed_pair@V?$allocator@H@std@@V?$_Vector_val@U?$_Simple_types@H@std@@@2@$00@std@@QEAA@U_One_then_variadic_args_t@1@AEBV?$allocator@H@1@@Z"
# %bb.0:
	sub	rsp, 88
	.seh_stackalloc 88
	.seh_endprologue
	mov	byte ptr [rsp + 80], dl
	mov	qword ptr [rsp + 72], r8
	mov	qword ptr [rsp + 64], rcx
	mov	rcx, qword ptr [rsp + 64]
.Ltmp220:
	mov	r8, qword ptr [rsp + 72]
	mov	qword ptr [rsp + 56], rcx # 8-byte Spill
	mov	rcx, r8
	call	"??$forward@AEBV?$allocator@H@std@@@std@@YAAEBV?$allocator@H@0@AEBV10@@Z"
	mov	rcx, qword ptr [rsp + 56] # 8-byte Reload
	mov	qword ptr [rsp + 48], rax # 8-byte Spill
	call	"??0?$_Vector_val@U?$_Simple_types@H@std@@@std@@QEAA@XZ"
	.cv_loc	67 10 288 0             # C:\Program Files (x86)\Microsoft Visual Studio\2017\Community\VC\Tools\MSVC\14.16.27023\include\xutility:288:0
	mov	rcx, qword ptr [rsp + 56] # 8-byte Reload
	mov	qword ptr [rsp + 40], rax # 8-byte Spill
	mov	rax, rcx
	add	rsp, 88
	ret
.Ltmp221:
.Lfunc_end67:
	.seh_handlerdata
	.section	.text,"xr",discard,"??$?0AEBV?$allocator@H@std@@$$V@?$_Compressed_pair@V?$allocator@H@std@@V?$_Vector_val@U?$_Simple_types@H@std@@@2@$00@std@@QEAA@U_One_then_variadic_args_t@1@AEBV?$allocator@H@1@@Z"
	.seh_endproc
                                        # -- End function
	.def	 "?_Alloc_proxy@?$_Vector_alloc@U?$_Vec_base_types@HV?$allocator@H@std@@@std@@@std@@QEAAXXZ";
	.scl	2;
	.type	32;
	.endef
	.section	.text,"xr",discard,"?_Alloc_proxy@?$_Vector_alloc@U?$_Vec_base_types@HV?$allocator@H@std@@@std@@@std@@QEAAXXZ"
	.globl	"?_Alloc_proxy@?$_Vector_alloc@U?$_Vec_base_types@HV?$allocator@H@std@@@std@@@std@@QEAAXXZ" # -- Begin function ?_Alloc_proxy@?$_Vector_alloc@U?$_Vec_base_types@HV?$allocator@H@std@@@std@@@std@@QEAAXXZ
	.p2align	4, 0x90
"?_Alloc_proxy@?$_Vector_alloc@U?$_Vec_base_types@HV?$allocator@H@std@@@std@@@std@@QEAAXXZ": # @"?_Alloc_proxy@?$_Vector_alloc@U?$_Vec_base_types@HV?$allocator@H@std@@@std@@@std@@QEAAXXZ"
.Lfunc_begin68:
	.cv_func_id 68
	.cv_loc	68 4 501 0              # C:\Program Files (x86)\Microsoft Visual Studio\2017\Community\VC\Tools\MSVC\14.16.27023\include\vector:501:0
.seh_proc "?_Alloc_proxy@?$_Vector_alloc@U?$_Vec_base_types@HV?$allocator@H@std@@@std@@@std@@QEAAXXZ"
# %bb.0:
	sub	rsp, 120
	.seh_stackalloc 120
	.seh_endprologue
	mov	rax, qword ptr [rip + __security_cookie]
	xor	rax, rsp
	mov	qword ptr [rsp + 112], rax
	mov	qword ptr [rsp + 80], rcx
	mov	rax, qword ptr [rsp + 80]
.Ltmp222:
	.cv_loc	68 4 502 0              # C:\Program Files (x86)\Microsoft Visual Studio\2017\Community\VC\Tools\MSVC\14.16.27023\include\vector:502:0
	mov	rcx, rax
	mov	qword ptr [rsp + 72], rax # 8-byte Spill
	call	"?_Getal@?$_Vector_alloc@U?$_Vec_base_types@HV?$allocator@H@std@@@std@@@std@@QEAAAEAV?$allocator@H@2@XZ"
	lea	rcx, [rsp + 104]
	mov	rdx, rax
	call	"??$?0H@?$allocator@U_Container_proxy@std@@@std@@QEAA@AEBV?$allocator@H@1@@Z"
	mov	r8d, 1
	mov	edx, r8d
	.cv_loc	68 4 503 0              # C:\Program Files (x86)\Microsoft Visual Studio\2017\Community\VC\Tools\MSVC\14.16.27023\include\vector:503:0
	lea	rcx, [rsp + 104]
	mov	qword ptr [rsp + 64], rax # 8-byte Spill
	call	"?allocate@?$allocator@U_Container_proxy@std@@@std@@QEAAPEAU_Container_proxy@2@_K@Z"
	mov	rcx, rax
	call	"??$_Unfancy@U_Container_proxy@std@@@std@@YAPEAU_Container_proxy@0@PEAU10@@Z"
	mov	rcx, qword ptr [rsp + 72] # 8-byte Reload
	mov	qword ptr [rsp + 56], rax # 8-byte Spill
	call	"?_Myproxy@?$_Vector_alloc@U?$_Vec_base_types@HV?$allocator@H@std@@@std@@@std@@QEAAAEAPEAU_Container_proxy@2@XZ"
	mov	rcx, qword ptr [rsp + 56] # 8-byte Reload
	mov	qword ptr [rax], rcx
	.cv_loc	68 4 504 0              # C:\Program Files (x86)\Microsoft Visual Studio\2017\Community\VC\Tools\MSVC\14.16.27023\include\vector:504:0
	lea	rcx, [rsp + 88]
	call	"??0_Container_proxy@std@@QEAA@XZ"
	mov	rcx, qword ptr [rsp + 72] # 8-byte Reload
	mov	qword ptr [rsp + 48], rax # 8-byte Spill
	call	"?_Myproxy@?$_Vector_alloc@U?$_Vec_base_types@HV?$allocator@H@std@@@std@@@std@@QEAAAEAPEAU_Container_proxy@2@XZ"
	mov	rdx, qword ptr [rax]
	lea	rcx, [rsp + 104]
	lea	r8, [rsp + 88]
	call	"??$construct@U_Container_proxy@std@@U12@@?$_Default_allocator_traits@V?$allocator@U_Container_proxy@std@@@std@@@std@@SAXAEAV?$allocator@U_Container_proxy@std@@@1@QEAU_Container_proxy@1@$$QEAU31@@Z"
	.cv_loc	68 4 505 0              # C:\Program Files (x86)\Microsoft Visual Studio\2017\Community\VC\Tools\MSVC\14.16.27023\include\vector:505:0
	mov	rcx, qword ptr [rsp + 72] # 8-byte Reload
	call	"?_Get_data@?$_Vector_alloc@U?$_Vec_base_types@HV?$allocator@H@std@@@std@@@std@@QEAAAEAV?$_Vector_val@U?$_Simple_types@H@std@@@2@XZ"
	mov	rcx, rax
	call	"??$addressof@V?$_Vector_val@U?$_Simple_types@H@std@@@std@@@std@@YAPEAV?$_Vector_val@U?$_Simple_types@H@std@@@0@AEAV10@@Z"
	mov	rcx, qword ptr [rsp + 72] # 8-byte Reload
	mov	qword ptr [rsp + 40], rax # 8-byte Spill
	call	"?_Myproxy@?$_Vector_alloc@U?$_Vec_base_types@HV?$allocator@H@std@@@std@@@std@@QEAAAEAPEAU_Container_proxy@2@XZ"
	mov	rax, qword ptr [rax]
	mov	rcx, qword ptr [rsp + 40] # 8-byte Reload
	mov	qword ptr [rax], rcx
	mov	rax, qword ptr [rsp + 112]
	xor	rax, rsp
	mov	rcx, rax
	call	__security_check_cookie
	.cv_loc	68 4 506 0              # C:\Program Files (x86)\Microsoft Visual Studio\2017\Community\VC\Tools\MSVC\14.16.27023\include\vector:506:0
	nop
	add	rsp, 120
	ret
.Ltmp223:
.Lfunc_end68:
	.seh_handlerdata
	.section	.text,"xr",discard,"?_Alloc_proxy@?$_Vector_alloc@U?$_Vec_base_types@HV?$allocator@H@std@@@std@@@std@@QEAAXXZ"
	.seh_endproc
                                        # -- End function
	.def	 "??0?$_Vector_val@U?$_Simple_types@H@std@@@std@@QEAA@XZ";
	.scl	2;
	.type	32;
	.endef
	.section	.text,"xr",discard,"??0?$_Vector_val@U?$_Simple_types@H@std@@@std@@QEAA@XZ"
	.globl	"??0?$_Vector_val@U?$_Simple_types@H@std@@@std@@QEAA@XZ" # -- Begin function ??0?$_Vector_val@U?$_Simple_types@H@std@@@std@@QEAA@XZ
	.p2align	4, 0x90
"??0?$_Vector_val@U?$_Simple_types@H@std@@@std@@QEAA@XZ": # @"??0?$_Vector_val@U?$_Simple_types@H@std@@@std@@QEAA@XZ"
.Lfunc_begin69:
	.cv_func_id 69
	.cv_loc	69 4 392 0              # C:\Program Files (x86)\Microsoft Visual Studio\2017\Community\VC\Tools\MSVC\14.16.27023\include\vector:392:0
.seh_proc "??0?$_Vector_val@U?$_Simple_types@H@std@@@std@@QEAA@XZ"
# %bb.0:
	sub	rsp, 56
	.seh_stackalloc 56
	.seh_endprologue
	mov	qword ptr [rsp + 48], rcx
	mov	rcx, qword ptr [rsp + 48]
.Ltmp224:
	mov	rax, rcx
	mov	qword ptr [rsp + 40], rcx # 8-byte Spill
	mov	rcx, rax
	call	"??0_Container_base12@std@@QEAA@XZ"
	mov	rcx, qword ptr [rsp + 40] # 8-byte Reload
	mov	qword ptr [rcx + 8], 0
	mov	qword ptr [rcx + 16], 0
	mov	qword ptr [rcx + 24], 0
	.cv_loc	69 4 393 0              # C:\Program Files (x86)\Microsoft Visual Studio\2017\Community\VC\Tools\MSVC\14.16.27023\include\vector:393:0
	mov	qword ptr [rsp + 32], rax # 8-byte Spill
	mov	rax, rcx
	add	rsp, 56
	ret
.Ltmp225:
.Lfunc_end69:
	.seh_handlerdata
	.section	.text,"xr",discard,"??0?$_Vector_val@U?$_Simple_types@H@std@@@std@@QEAA@XZ"
	.seh_endproc
                                        # -- End function
	.def	 "??0_Container_base12@std@@QEAA@XZ";
	.scl	2;
	.type	32;
	.endef
	.section	.text,"xr",discard,"??0_Container_base12@std@@QEAA@XZ"
	.globl	"??0_Container_base12@std@@QEAA@XZ" # -- Begin function ??0_Container_base12@std@@QEAA@XZ
	.p2align	4, 0x90
"??0_Container_base12@std@@QEAA@XZ":    # @"??0_Container_base12@std@@QEAA@XZ"
.Lfunc_begin70:
	.cv_func_id 70
	.cv_loc	70 10 81 0              # C:\Program Files (x86)\Microsoft Visual Studio\2017\Community\VC\Tools\MSVC\14.16.27023\include\xutility:81:0
.seh_proc "??0_Container_base12@std@@QEAA@XZ"
# %bb.0:
	push	rax
	.seh_stackalloc 8
	.seh_endprologue
	mov	qword ptr [rsp], rcx
	mov	rcx, qword ptr [rsp]
.Ltmp226:
	mov	qword ptr [rcx], 0
	.cv_loc	70 10 82 0              # C:\Program Files (x86)\Microsoft Visual Studio\2017\Community\VC\Tools\MSVC\14.16.27023\include\xutility:82:0
	mov	rax, rcx
	pop	rcx
	ret
.Ltmp227:
.Lfunc_end70:
	.seh_handlerdata
	.section	.text,"xr",discard,"??0_Container_base12@std@@QEAA@XZ"
	.seh_endproc
                                        # -- End function
	.def	 "?_Getal@?$_Vector_alloc@U?$_Vec_base_types@HV?$allocator@H@std@@@std@@@std@@QEAAAEAV?$allocator@H@2@XZ";
	.scl	2;
	.type	32;
	.endef
	.section	.text,"xr",discard,"?_Getal@?$_Vector_alloc@U?$_Vec_base_types@HV?$allocator@H@std@@@std@@@std@@QEAAAEAV?$allocator@H@2@XZ"
	.globl	"?_Getal@?$_Vector_alloc@U?$_Vec_base_types@HV?$allocator@H@std@@@std@@@std@@QEAAAEAV?$allocator@H@2@XZ" # -- Begin function ?_Getal@?$_Vector_alloc@U?$_Vec_base_types@HV?$allocator@H@std@@@std@@@std@@QEAAAEAV?$allocator@H@2@XZ
	.p2align	4, 0x90
"?_Getal@?$_Vector_alloc@U?$_Vec_base_types@HV?$allocator@H@std@@@std@@@std@@QEAAAEAV?$allocator@H@2@XZ": # @"?_Getal@?$_Vector_alloc@U?$_Vec_base_types@HV?$allocator@H@std@@@std@@@std@@QEAAAEAV?$allocator@H@2@XZ"
.Lfunc_begin71:
	.cv_func_id 71
	.cv_loc	71 4 544 0              # C:\Program Files (x86)\Microsoft Visual Studio\2017\Community\VC\Tools\MSVC\14.16.27023\include\vector:544:0
.seh_proc "?_Getal@?$_Vector_alloc@U?$_Vec_base_types@HV?$allocator@H@std@@@std@@@std@@QEAAAEAV?$allocator@H@2@XZ"
# %bb.0:
	sub	rsp, 40
	.seh_stackalloc 40
	.seh_endprologue
	mov	qword ptr [rsp + 32], rcx
	mov	rcx, qword ptr [rsp + 32]
.Ltmp228:
	.cv_loc	71 4 545 0              # C:\Program Files (x86)\Microsoft Visual Studio\2017\Community\VC\Tools\MSVC\14.16.27023\include\vector:545:0
	call	"?_Get_first@?$_Compressed_pair@V?$allocator@H@std@@V?$_Vector_val@U?$_Simple_types@H@std@@@2@$00@std@@QEAAAEAV?$allocator@H@2@XZ"
	nop
	add	rsp, 40
	ret
.Ltmp229:
.Lfunc_end71:
	.seh_handlerdata
	.section	.text,"xr",discard,"?_Getal@?$_Vector_alloc@U?$_Vec_base_types@HV?$allocator@H@std@@@std@@@std@@QEAAAEAV?$allocator@H@2@XZ"
	.seh_endproc
                                        # -- End function
	.def	 "??$?0H@?$allocator@U_Container_proxy@std@@@std@@QEAA@AEBV?$allocator@H@1@@Z";
	.scl	2;
	.type	32;
	.endef
	.section	.text,"xr",discard,"??$?0H@?$allocator@U_Container_proxy@std@@@std@@QEAA@AEBV?$allocator@H@1@@Z"
	.globl	"??$?0H@?$allocator@U_Container_proxy@std@@@std@@QEAA@AEBV?$allocator@H@1@@Z" # -- Begin function ??$?0H@?$allocator@U_Container_proxy@std@@@std@@QEAA@AEBV?$allocator@H@1@@Z
	.p2align	4, 0x90
"??$?0H@?$allocator@U_Container_proxy@std@@@std@@QEAA@AEBV?$allocator@H@1@@Z": # @"??$?0H@?$allocator@U_Container_proxy@std@@@std@@QEAA@AEBV?$allocator@H@1@@Z"
.Lfunc_begin72:
	.cv_func_id 72
	.cv_loc	72 3 986 0              # C:\Program Files (x86)\Microsoft Visual Studio\2017\Community\VC\Tools\MSVC\14.16.27023\include\xmemory0:986:0
.seh_proc "??$?0H@?$allocator@U_Container_proxy@std@@@std@@QEAA@AEBV?$allocator@H@1@@Z"
# %bb.0:
	sub	rsp, 16
	.seh_stackalloc 16
	.seh_endprologue
	mov	qword ptr [rsp + 8], rdx
	mov	qword ptr [rsp], rcx
	mov	rax, qword ptr [rsp]
.Ltmp230:
	.cv_loc	72 3 987 0              # C:\Program Files (x86)\Microsoft Visual Studio\2017\Community\VC\Tools\MSVC\14.16.27023\include\xmemory0:987:0
	add	rsp, 16
	ret
.Ltmp231:
.Lfunc_end72:
	.seh_handlerdata
	.section	.text,"xr",discard,"??$?0H@?$allocator@U_Container_proxy@std@@@std@@QEAA@AEBV?$allocator@H@1@@Z"
	.seh_endproc
                                        # -- End function
	.def	 "??$_Unfancy@U_Container_proxy@std@@@std@@YAPEAU_Container_proxy@0@PEAU10@@Z";
	.scl	2;
	.type	32;
	.endef
	.section	.text,"xr",discard,"??$_Unfancy@U_Container_proxy@std@@@std@@YAPEAU_Container_proxy@0@PEAU10@@Z"
	.globl	"??$_Unfancy@U_Container_proxy@std@@@std@@YAPEAU_Container_proxy@0@PEAU10@@Z" # -- Begin function ??$_Unfancy@U_Container_proxy@std@@@std@@YAPEAU_Container_proxy@0@PEAU10@@Z
	.p2align	4, 0x90
"??$_Unfancy@U_Container_proxy@std@@@std@@YAPEAU_Container_proxy@0@PEAU10@@Z": # @"??$_Unfancy@U_Container_proxy@std@@@std@@YAPEAU_Container_proxy@0@PEAU10@@Z"
.Lfunc_begin73:
	.cv_func_id 73
	.cv_file	12 "C:\\Program Files (x86)\\Microsoft Visual Studio\\2017\\Community\\VC\\Tools\\MSVC\\14.16.27023\\include\\xstddef" "9F14E8187A77026EF6762781B0266A96" 1
	.cv_loc	73 12 345 0             # C:\Program Files (x86)\Microsoft Visual Studio\2017\Community\VC\Tools\MSVC\14.16.27023\include\xstddef:345:0
.seh_proc "??$_Unfancy@U_Container_proxy@std@@@std@@YAPEAU_Container_proxy@0@PEAU10@@Z"
# %bb.0:
	push	rax
	.seh_stackalloc 8
	.seh_endprologue
	mov	qword ptr [rsp], rcx
.Ltmp232:
	.cv_loc	73 12 346 0             # C:\Program Files (x86)\Microsoft Visual Studio\2017\Community\VC\Tools\MSVC\14.16.27023\include\xstddef:346:0
	mov	rax, qword ptr [rsp]
	pop	rcx
	ret
.Ltmp233:
.Lfunc_end73:
	.seh_handlerdata
	.section	.text,"xr",discard,"??$_Unfancy@U_Container_proxy@std@@@std@@YAPEAU_Container_proxy@0@PEAU10@@Z"
	.seh_endproc
                                        # -- End function
	.def	 "?allocate@?$allocator@U_Container_proxy@std@@@std@@QEAAPEAU_Container_proxy@2@_K@Z";
	.scl	2;
	.type	32;
	.endef
	.section	.text,"xr",discard,"?allocate@?$allocator@U_Container_proxy@std@@@std@@QEAAPEAU_Container_proxy@2@_K@Z"
	.globl	"?allocate@?$allocator@U_Container_proxy@std@@@std@@QEAAPEAU_Container_proxy@2@_K@Z" # -- Begin function ?allocate@?$allocator@U_Container_proxy@std@@@std@@QEAAPEAU_Container_proxy@2@_K@Z
	.p2align	4, 0x90
"?allocate@?$allocator@U_Container_proxy@std@@@std@@QEAAPEAU_Container_proxy@2@_K@Z": # @"?allocate@?$allocator@U_Container_proxy@std@@@std@@QEAAPEAU_Container_proxy@2@_K@Z"
.Lfunc_begin74:
	.cv_func_id 74
	.cv_loc	74 3 996 0              # C:\Program Files (x86)\Microsoft Visual Studio\2017\Community\VC\Tools\MSVC\14.16.27023\include\xmemory0:996:0
.seh_proc "?allocate@?$allocator@U_Container_proxy@std@@@std@@QEAAPEAU_Container_proxy@2@_K@Z"
# %bb.0:
	sub	rsp, 56
	.seh_stackalloc 56
	.seh_endprologue
	mov	qword ptr [rsp + 48], rdx
	mov	qword ptr [rsp + 40], rcx
.Ltmp234:
	.cv_loc	74 3 997 0              # C:\Program Files (x86)\Microsoft Visual Studio\2017\Community\VC\Tools\MSVC\14.16.27023\include\xmemory0:997:0
	mov	rcx, qword ptr [rsp + 48]
	call	"??$_Get_size_of_n@$0BA@@std@@YA_K_K@Z"
	mov	rcx, rax
	call	"??$_Allocate@$0BA@U_Default_allocate_traits@std@@$0A@@std@@YAPEAX_K@Z"
	nop
	add	rsp, 56
	ret
.Ltmp235:
.Lfunc_end74:
	.seh_handlerdata
	.section	.text,"xr",discard,"?allocate@?$allocator@U_Container_proxy@std@@@std@@QEAAPEAU_Container_proxy@2@_K@Z"
	.seh_endproc
                                        # -- End function
	.def	 "?_Myproxy@?$_Vector_alloc@U?$_Vec_base_types@HV?$allocator@H@std@@@std@@@std@@QEAAAEAPEAU_Container_proxy@2@XZ";
	.scl	2;
	.type	32;
	.endef
	.section	.text,"xr",discard,"?_Myproxy@?$_Vector_alloc@U?$_Vec_base_types@HV?$allocator@H@std@@@std@@@std@@QEAAAEAPEAU_Container_proxy@2@XZ"
	.globl	"?_Myproxy@?$_Vector_alloc@U?$_Vec_base_types@HV?$allocator@H@std@@@std@@@std@@QEAAAEAPEAU_Container_proxy@2@XZ" # -- Begin function ?_Myproxy@?$_Vector_alloc@U?$_Vec_base_types@HV?$allocator@H@std@@@std@@@std@@QEAAAEAPEAU_Container_proxy@2@XZ
	.p2align	4, 0x90
"?_Myproxy@?$_Vector_alloc@U?$_Vec_base_types@HV?$allocator@H@std@@@std@@@std@@QEAAAEAPEAU_Container_proxy@2@XZ": # @"?_Myproxy@?$_Vector_alloc@U?$_Vec_base_types@HV?$allocator@H@std@@@std@@@std@@QEAAAEAPEAU_Container_proxy@2@XZ"
.Lfunc_begin75:
	.cv_func_id 75
	.cv_loc	75 4 523 0              # C:\Program Files (x86)\Microsoft Visual Studio\2017\Community\VC\Tools\MSVC\14.16.27023\include\vector:523:0
.seh_proc "?_Myproxy@?$_Vector_alloc@U?$_Vec_base_types@HV?$allocator@H@std@@@std@@@std@@QEAAAEAPEAU_Container_proxy@2@XZ"
# %bb.0:
	sub	rsp, 40
	.seh_stackalloc 40
	.seh_endprologue
	mov	qword ptr [rsp + 32], rcx
	mov	rcx, qword ptr [rsp + 32]
.Ltmp236:
	.cv_loc	75 4 524 0              # C:\Program Files (x86)\Microsoft Visual Studio\2017\Community\VC\Tools\MSVC\14.16.27023\include\vector:524:0
	call	"?_Get_data@?$_Vector_alloc@U?$_Vec_base_types@HV?$allocator@H@std@@@std@@@std@@QEAAAEAV?$_Vector_val@U?$_Simple_types@H@std@@@2@XZ"
	nop
	add	rsp, 40
	ret
.Ltmp237:
.Lfunc_end75:
	.seh_handlerdata
	.section	.text,"xr",discard,"?_Myproxy@?$_Vector_alloc@U?$_Vec_base_types@HV?$allocator@H@std@@@std@@@std@@QEAAAEAPEAU_Container_proxy@2@XZ"
	.seh_endproc
                                        # -- End function
	.def	 "??$construct@U_Container_proxy@std@@U12@@?$_Default_allocator_traits@V?$allocator@U_Container_proxy@std@@@std@@@std@@SAXAEAV?$allocator@U_Container_proxy@std@@@1@QEAU_Container_proxy@1@$$QEAU31@@Z";
	.scl	2;
	.type	32;
	.endef
	.section	.text,"xr",discard,"??$construct@U_Container_proxy@std@@U12@@?$_Default_allocator_traits@V?$allocator@U_Container_proxy@std@@@std@@@std@@SAXAEAV?$allocator@U_Container_proxy@std@@@1@QEAU_Container_proxy@1@$$QEAU31@@Z"
	.globl	"??$construct@U_Container_proxy@std@@U12@@?$_Default_allocator_traits@V?$allocator@U_Container_proxy@std@@@std@@@std@@SAXAEAV?$allocator@U_Container_proxy@std@@@1@QEAU_Container_proxy@1@$$QEAU31@@Z" # -- Begin function ??$construct@U_Container_proxy@std@@U12@@?$_Default_allocator_traits@V?$allocator@U_Container_proxy@std@@@std@@@std@@SAXAEAV?$allocator@U_Container_proxy@std@@@1@QEAU_Container_proxy@1@$$QEAU31@@Z
	.p2align	4, 0x90
"??$construct@U_Container_proxy@std@@U12@@?$_Default_allocator_traits@V?$allocator@U_Container_proxy@std@@@std@@@std@@SAXAEAV?$allocator@U_Container_proxy@std@@@1@QEAU_Container_proxy@1@$$QEAU31@@Z": # @"??$construct@U_Container_proxy@std@@U12@@?$_Default_allocator_traits@V?$allocator@U_Container_proxy@std@@@std@@@std@@SAXAEAV?$allocator@U_Container_proxy@std@@@1@QEAU_Container_proxy@1@$$QEAU31@@Z"
.Lfunc_begin76:
	.cv_func_id 76
	.cv_loc	76 3 879 0              # C:\Program Files (x86)\Microsoft Visual Studio\2017\Community\VC\Tools\MSVC\14.16.27023\include\xmemory0:879:0
.seh_proc "??$construct@U_Container_proxy@std@@U12@@?$_Default_allocator_traits@V?$allocator@U_Container_proxy@std@@@std@@@std@@SAXAEAV?$allocator@U_Container_proxy@std@@@1@QEAU_Container_proxy@1@$$QEAU31@@Z"
# %bb.0:
	sub	rsp, 72
	.seh_stackalloc 72
	.seh_endprologue
	mov	qword ptr [rsp + 64], r8
	mov	qword ptr [rsp + 56], rdx
	mov	qword ptr [rsp + 48], rcx
.Ltmp238:
	.cv_loc	76 3 880 0              # C:\Program Files (x86)\Microsoft Visual Studio\2017\Community\VC\Tools\MSVC\14.16.27023\include\xmemory0:880:0
	mov	rcx, qword ptr [rsp + 56]
	mov	rdx, qword ptr [rsp + 64]
	mov	qword ptr [rsp + 40], rcx # 8-byte Spill
	mov	rcx, rdx
	call	"??$forward@U_Container_proxy@std@@@std@@YA$$QEAU_Container_proxy@0@AEAU10@@Z"
	mov	rcx, qword ptr [rax]
	mov	rdx, qword ptr [rsp + 40] # 8-byte Reload
	mov	qword ptr [rdx], rcx
	mov	rax, qword ptr [rax + 8]
	mov	qword ptr [rdx + 8], rax
	.cv_loc	76 3 882 0              # C:\Program Files (x86)\Microsoft Visual Studio\2017\Community\VC\Tools\MSVC\14.16.27023\include\xmemory0:882:0
	add	rsp, 72
	ret
.Ltmp239:
.Lfunc_end76:
	.seh_handlerdata
	.section	.text,"xr",discard,"??$construct@U_Container_proxy@std@@U12@@?$_Default_allocator_traits@V?$allocator@U_Container_proxy@std@@@std@@@std@@SAXAEAV?$allocator@U_Container_proxy@std@@@1@QEAU_Container_proxy@1@$$QEAU31@@Z"
	.seh_endproc
                                        # -- End function
	.def	 "??0_Container_proxy@std@@QEAA@XZ";
	.scl	2;
	.type	32;
	.endef
	.section	.text,"xr",discard,"??0_Container_proxy@std@@QEAA@XZ"
	.globl	"??0_Container_proxy@std@@QEAA@XZ" # -- Begin function ??0_Container_proxy@std@@QEAA@XZ
	.p2align	4, 0x90
"??0_Container_proxy@std@@QEAA@XZ":     # @"??0_Container_proxy@std@@QEAA@XZ"
.Lfunc_begin77:
	.cv_func_id 77
	.cv_loc	77 10 69 0              # C:\Program Files (x86)\Microsoft Visual Studio\2017\Community\VC\Tools\MSVC\14.16.27023\include\xutility:69:0
.seh_proc "??0_Container_proxy@std@@QEAA@XZ"
# %bb.0:
	push	rax
	.seh_stackalloc 8
	.seh_endprologue
	mov	qword ptr [rsp], rcx
	mov	rcx, qword ptr [rsp]
.Ltmp240:
	mov	qword ptr [rcx], 0
	mov	qword ptr [rcx + 8], 0
	.cv_loc	77 10 70 0              # C:\Program Files (x86)\Microsoft Visual Studio\2017\Community\VC\Tools\MSVC\14.16.27023\include\xutility:70:0
	mov	rax, rcx
	pop	rcx
	ret
.Ltmp241:
.Lfunc_end77:
	.seh_handlerdata
	.section	.text,"xr",discard,"??0_Container_proxy@std@@QEAA@XZ"
	.seh_endproc
                                        # -- End function
	.def	 "??$addressof@V?$_Vector_val@U?$_Simple_types@H@std@@@std@@@std@@YAPEAV?$_Vector_val@U?$_Simple_types@H@std@@@0@AEAV10@@Z";
	.scl	2;
	.type	32;
	.endef
	.section	.text,"xr",discard,"??$addressof@V?$_Vector_val@U?$_Simple_types@H@std@@@std@@@std@@YAPEAV?$_Vector_val@U?$_Simple_types@H@std@@@0@AEAV10@@Z"
	.globl	"??$addressof@V?$_Vector_val@U?$_Simple_types@H@std@@@std@@@std@@YAPEAV?$_Vector_val@U?$_Simple_types@H@std@@@0@AEAV10@@Z" # -- Begin function ??$addressof@V?$_Vector_val@U?$_Simple_types@H@std@@@std@@@std@@YAPEAV?$_Vector_val@U?$_Simple_types@H@std@@@0@AEAV10@@Z
	.p2align	4, 0x90
"??$addressof@V?$_Vector_val@U?$_Simple_types@H@std@@@std@@@std@@YAPEAV?$_Vector_val@U?$_Simple_types@H@std@@@0@AEAV10@@Z": # @"??$addressof@V?$_Vector_val@U?$_Simple_types@H@std@@@std@@@std@@YAPEAV?$_Vector_val@U?$_Simple_types@H@std@@@0@AEAV10@@Z"
.Lfunc_begin78:
	.cv_func_id 78
	.cv_loc	78 12 329 0             # C:\Program Files (x86)\Microsoft Visual Studio\2017\Community\VC\Tools\MSVC\14.16.27023\include\xstddef:329:0
.seh_proc "??$addressof@V?$_Vector_val@U?$_Simple_types@H@std@@@std@@@std@@YAPEAV?$_Vector_val@U?$_Simple_types@H@std@@@0@AEAV10@@Z"
# %bb.0:
	push	rax
	.seh_stackalloc 8
	.seh_endprologue
	mov	qword ptr [rsp], rcx
.Ltmp242:
	.cv_loc	78 12 330 0             # C:\Program Files (x86)\Microsoft Visual Studio\2017\Community\VC\Tools\MSVC\14.16.27023\include\xstddef:330:0
	mov	rax, qword ptr [rsp]
	pop	rcx
	ret
.Ltmp243:
.Lfunc_end78:
	.seh_handlerdata
	.section	.text,"xr",discard,"??$addressof@V?$_Vector_val@U?$_Simple_types@H@std@@@std@@@std@@YAPEAV?$_Vector_val@U?$_Simple_types@H@std@@@0@AEAV10@@Z"
	.seh_endproc
                                        # -- End function
	.def	 "?_Get_first@?$_Compressed_pair@V?$allocator@H@std@@V?$_Vector_val@U?$_Simple_types@H@std@@@2@$00@std@@QEAAAEAV?$allocator@H@2@XZ";
	.scl	2;
	.type	32;
	.endef
	.section	.text,"xr",discard,"?_Get_first@?$_Compressed_pair@V?$allocator@H@std@@V?$_Vector_val@U?$_Simple_types@H@std@@@2@$00@std@@QEAAAEAV?$allocator@H@2@XZ"
	.globl	"?_Get_first@?$_Compressed_pair@V?$allocator@H@std@@V?$_Vector_val@U?$_Simple_types@H@std@@@2@$00@std@@QEAAAEAV?$allocator@H@2@XZ" # -- Begin function ?_Get_first@?$_Compressed_pair@V?$allocator@H@std@@V?$_Vector_val@U?$_Simple_types@H@std@@@2@$00@std@@QEAAAEAV?$allocator@H@2@XZ
	.p2align	4, 0x90
"?_Get_first@?$_Compressed_pair@V?$allocator@H@std@@V?$_Vector_val@U?$_Simple_types@H@std@@@2@$00@std@@QEAAAEAV?$allocator@H@2@XZ": # @"?_Get_first@?$_Compressed_pair@V?$allocator@H@std@@V?$_Vector_val@U?$_Simple_types@H@std@@@2@$00@std@@QEAAAEAV?$allocator@H@2@XZ"
.Lfunc_begin79:
	.cv_func_id 79
	.cv_loc	79 10 291 0             # C:\Program Files (x86)\Microsoft Visual Studio\2017\Community\VC\Tools\MSVC\14.16.27023\include\xutility:291:0
.seh_proc "?_Get_first@?$_Compressed_pair@V?$allocator@H@std@@V?$_Vector_val@U?$_Simple_types@H@std@@@2@$00@std@@QEAAAEAV?$allocator@H@2@XZ"
# %bb.0:
	push	rax
	.seh_stackalloc 8
	.seh_endprologue
	mov	qword ptr [rsp], rcx
	mov	rcx, qword ptr [rsp]
.Ltmp244:
	.cv_loc	79 10 292 0             # C:\Program Files (x86)\Microsoft Visual Studio\2017\Community\VC\Tools\MSVC\14.16.27023\include\xutility:292:0
	mov	rax, rcx
	pop	rcx
	ret
.Ltmp245:
.Lfunc_end79:
	.seh_handlerdata
	.section	.text,"xr",discard,"?_Get_first@?$_Compressed_pair@V?$allocator@H@std@@V?$_Vector_val@U?$_Simple_types@H@std@@@2@$00@std@@QEAAAEAV?$allocator@H@2@XZ"
	.seh_endproc
                                        # -- End function
	.def	 "??$_Allocate@$0BA@U_Default_allocate_traits@std@@$0A@@std@@YAPEAX_K@Z";
	.scl	2;
	.type	32;
	.endef
	.section	.text,"xr",discard,"??$_Allocate@$0BA@U_Default_allocate_traits@std@@$0A@@std@@YAPEAX_K@Z"
	.globl	"??$_Allocate@$0BA@U_Default_allocate_traits@std@@$0A@@std@@YAPEAX_K@Z" # -- Begin function ??$_Allocate@$0BA@U_Default_allocate_traits@std@@$0A@@std@@YAPEAX_K@Z
	.p2align	4, 0x90
"??$_Allocate@$0BA@U_Default_allocate_traits@std@@$0A@@std@@YAPEAX_K@Z": # @"??$_Allocate@$0BA@U_Default_allocate_traits@std@@$0A@@std@@YAPEAX_K@Z"
.Lfunc_begin80:
	.cv_func_id 80
	.cv_loc	80 3 180 0              # C:\Program Files (x86)\Microsoft Visual Studio\2017\Community\VC\Tools\MSVC\14.16.27023\include\xmemory0:180:0
.seh_proc "??$_Allocate@$0BA@U_Default_allocate_traits@std@@$0A@@std@@YAPEAX_K@Z"
# %bb.0:
	sub	rsp, 56
	.seh_stackalloc 56
	.seh_endprologue
	mov	qword ptr [rsp + 40], rcx
.Ltmp246:
	.cv_loc	80 3 182 0              # C:\Program Files (x86)\Microsoft Visual Studio\2017\Community\VC\Tools\MSVC\14.16.27023\include\xmemory0:182:0
	cmp	qword ptr [rsp + 40], 4096
	jb	.LBB80_2
# %bb.1:
.Ltmp247:
	.cv_loc	80 3 184 0              # C:\Program Files (x86)\Microsoft Visual Studio\2017\Community\VC\Tools\MSVC\14.16.27023\include\xmemory0:184:0
	mov	rcx, qword ptr [rsp + 40]
	call	"??$_Allocate_manually_vector_aligned@U_Default_allocate_traits@std@@@std@@YAPEAX_K@Z"
	mov	qword ptr [rsp + 48], rax
	jmp	.LBB80_5
.Ltmp248:
.LBB80_2:
	.cv_loc	80 3 188 0              # C:\Program Files (x86)\Microsoft Visual Studio\2017\Community\VC\Tools\MSVC\14.16.27023\include\xmemory0:188:0
	cmp	qword ptr [rsp + 40], 0
	je	.LBB80_4
# %bb.3:
.Ltmp249:
	.cv_loc	80 3 190 0              # C:\Program Files (x86)\Microsoft Visual Studio\2017\Community\VC\Tools\MSVC\14.16.27023\include\xmemory0:190:0
	mov	rcx, qword ptr [rsp + 40]
	call	"?_Allocate@_Default_allocate_traits@std@@SAPEAX_K@Z"
	mov	qword ptr [rsp + 48], rax
	jmp	.LBB80_5
.Ltmp250:
.LBB80_4:
	.cv_loc	80 3 193 0              # C:\Program Files (x86)\Microsoft Visual Studio\2017\Community\VC\Tools\MSVC\14.16.27023\include\xmemory0:193:0
	mov	qword ptr [rsp + 48], 0
.LBB80_5:
	.cv_loc	80 3 194 0              # C:\Program Files (x86)\Microsoft Visual Studio\2017\Community\VC\Tools\MSVC\14.16.27023\include\xmemory0:194:0
	mov	rax, qword ptr [rsp + 48]
	add	rsp, 56
	ret
.Ltmp251:
.Lfunc_end80:
	.seh_handlerdata
	.section	.text,"xr",discard,"??$_Allocate@$0BA@U_Default_allocate_traits@std@@$0A@@std@@YAPEAX_K@Z"
	.seh_endproc
                                        # -- End function
	.def	 "??$_Get_size_of_n@$0BA@@std@@YA_K_K@Z";
	.scl	2;
	.type	32;
	.endef
	.section	.text,"xr",discard,"??$_Get_size_of_n@$0BA@@std@@YA_K_K@Z"
	.globl	"??$_Get_size_of_n@$0BA@@std@@YA_K_K@Z" # -- Begin function ??$_Get_size_of_n@$0BA@@std@@YA_K_K@Z
	.p2align	4, 0x90
"??$_Get_size_of_n@$0BA@@std@@YA_K_K@Z": # @"??$_Get_size_of_n@$0BA@@std@@YA_K_K@Z"
.Lfunc_begin81:
	.cv_func_id 81
	.cv_loc	81 3 23 0               # C:\Program Files (x86)\Microsoft Visual Studio\2017\Community\VC\Tools\MSVC\14.16.27023\include\xmemory0:23:0
.seh_proc "??$_Get_size_of_n@$0BA@@std@@YA_K_K@Z"
# %bb.0:
	sub	rsp, 24
	.seh_stackalloc 24
	.seh_endprologue
	mov	qword ptr [rsp + 16], rcx
.Ltmp252:
	.cv_loc	81 3 24 0               # C:\Program Files (x86)\Microsoft Visual Studio\2017\Community\VC\Tools\MSVC\14.16.27023\include\xmemory0:24:0
	movabs	rcx, 1152921504606846975
	mov	qword ptr [rsp + 8], rcx
	.cv_loc	81 3 25 0               # C:\Program Files (x86)\Microsoft Visual Studio\2017\Community\VC\Tools\MSVC\14.16.27023\include\xmemory0:25:0
	mov	rax, qword ptr [rsp + 16]
	shl	rax, 4
	mov	qword ptr [rsp], rax
	.cv_loc	81 3 26 0               # C:\Program Files (x86)\Microsoft Visual Studio\2017\Community\VC\Tools\MSVC\14.16.27023\include\xmemory0:26:0
	cmp	rcx, qword ptr [rsp + 16]
	jae	.LBB81_2
# %bb.1:
.Ltmp253:
	.cv_loc	81 3 29 0               # C:\Program Files (x86)\Microsoft Visual Studio\2017\Community\VC\Tools\MSVC\14.16.27023\include\xmemory0:29:0
	mov	qword ptr [rsp], -1
.Ltmp254:
.LBB81_2:
	.cv_loc	81 3 32 0               # C:\Program Files (x86)\Microsoft Visual Studio\2017\Community\VC\Tools\MSVC\14.16.27023\include\xmemory0:32:0
	mov	rax, qword ptr [rsp]
	add	rsp, 24
	ret
.Ltmp255:
.Lfunc_end81:
	.seh_handlerdata
	.section	.text,"xr",discard,"??$_Get_size_of_n@$0BA@@std@@YA_K_K@Z"
	.seh_endproc
                                        # -- End function
	.def	 "??$_Allocate_manually_vector_aligned@U_Default_allocate_traits@std@@@std@@YAPEAX_K@Z";
	.scl	2;
	.type	32;
	.endef
	.section	.text,"xr",discard,"??$_Allocate_manually_vector_aligned@U_Default_allocate_traits@std@@@std@@YAPEAX_K@Z"
	.globl	"??$_Allocate_manually_vector_aligned@U_Default_allocate_traits@std@@@std@@YAPEAX_K@Z" # -- Begin function ??$_Allocate_manually_vector_aligned@U_Default_allocate_traits@std@@@std@@YAPEAX_K@Z
	.p2align	4, 0x90
"??$_Allocate_manually_vector_aligned@U_Default_allocate_traits@std@@@std@@YAPEAX_K@Z": # @"??$_Allocate_manually_vector_aligned@U_Default_allocate_traits@std@@@std@@YAPEAX_K@Z"
.Lfunc_begin82:
	.cv_func_id 82
	.cv_loc	82 3 92 0               # C:\Program Files (x86)\Microsoft Visual Studio\2017\Community\VC\Tools\MSVC\14.16.27023\include\xmemory0:92:0
.seh_proc "??$_Allocate_manually_vector_aligned@U_Default_allocate_traits@std@@@std@@YAPEAX_K@Z"
# %bb.0:
	sub	rsp, 88
	.seh_stackalloc 88
	.seh_endprologue
	mov	qword ptr [rsp + 80], rcx
.Ltmp256:
	.cv_loc	82 3 93 0               # C:\Program Files (x86)\Microsoft Visual Studio\2017\Community\VC\Tools\MSVC\14.16.27023\include\xmemory0:93:0
	mov	rcx, qword ptr [rsp + 80]
	add	rcx, 47
	mov	qword ptr [rsp + 72], rcx
	.cv_loc	82 3 94 0               # C:\Program Files (x86)\Microsoft Visual Studio\2017\Community\VC\Tools\MSVC\14.16.27023\include\xmemory0:94:0
	mov	rcx, qword ptr [rsp + 72]
	cmp	rcx, qword ptr [rsp + 80]
	ja	.LBB82_2
# %bb.1:
.Ltmp257:
	.cv_loc	82 3 97 0               # C:\Program Files (x86)\Microsoft Visual Studio\2017\Community\VC\Tools\MSVC\14.16.27023\include\xmemory0:97:0
	mov	qword ptr [rsp + 72], -1
.Ltmp258:
.LBB82_2:
	.cv_loc	82 3 100 0              # C:\Program Files (x86)\Microsoft Visual Studio\2017\Community\VC\Tools\MSVC\14.16.27023\include\xmemory0:100:0
	mov	rcx, qword ptr [rsp + 72]
	call	"?_Allocate@_Default_allocate_traits@std@@SAPEAX_K@Z"
	mov	qword ptr [rsp + 64], rax
# %bb.3:
.Ltmp259:
	.cv_loc	82 3 101 0              # C:\Program Files (x86)\Microsoft Visual Studio\2017\Community\VC\Tools\MSVC\14.16.27023\include\xmemory0:101:0
	cmp	qword ptr [rsp + 64], 0
	je	.LBB82_5
# %bb.4:
.Ltmp260:
	.cv_loc	82 3 101 0              # C:\Program Files (x86)\Microsoft Visual Studio\2017\Community\VC\Tools\MSVC\14.16.27023\include\xmemory0:101:0
	jmp	.LBB82_10
.Ltmp261:
.LBB82_5:
	.cv_loc	82 3 101 0              # C:\Program Files (x86)\Microsoft Visual Studio\2017\Community\VC\Tools\MSVC\14.16.27023\include\xmemory0:101:0
	jmp	.LBB82_6
.LBB82_6:
.Ltmp262:
	.cv_loc	82 3 101 0              # C:\Program Files (x86)\Microsoft Visual Studio\2017\Community\VC\Tools\MSVC\14.16.27023\include\xmemory0:101:0
	lea	rax, [rip + "??_C@_0BB@FCMFBGOM@invalid?5argument?$AA@"]
	mov	rcx, rsp
	mov	qword ptr [rcx + 40], rax
	lea	rax, [rip + "??_C@_02DKCKIIND@?$CFs?$AA@"]
	mov	qword ptr [rcx + 32], rax
	lea	rdx, [rip + "??_C@_0GJ@MAEDLLFA@C?3?2Program?5Files?5?$CIx86?$CJ?2Microsoft@"]
	mov	rax, qword ptr [rip + __imp__CrtDbgReport]
	xor	r8d, r8d
	mov	r9d, r8d
	mov	ecx, 2
	mov	r8d, 101
	call	rax
	mov	ecx, 1
	cmp	ecx, eax
	jne	.LBB82_8
# %bb.7:
	int3
.LBB82_8:
	xor	eax, eax
	mov	ecx, eax
	lea	rdx, [rip + "??_C@_1CG@JNLFBNGN@?$AA?$CC?$AAi?$AAn?$AAv?$AAa?$AAl?$AAi?$AAd?$AA?5?$AAa?$AAr?$AAg?$AAu?$AAm?$AAe?$AAn?$AAt?$AA?$CC?$AA?$AA@"]
	mov	qword ptr [rsp + 48], rcx # 8-byte Spill
	mov	rcx, rdx
	lea	rdx, [rip + "??_C@_1EE@NLJGENNL@?$AA_?$AAA?$AAl?$AAl?$AAo?$AAc?$AAa?$AAt?$AAe?$AA_?$AAm?$AAa?$AAn?$AAu?$AAa?$AAl?$AAl?$AAy?$AA_?$AAv?$AAe?$AAc?$AAt?$AAo?$AAr?$AA_?$AAa?$AAl?$AAi?$AAg?$AAn?$AAe@"]
	lea	r8, [rip + "??_C@_1NC@LMCNBOC@?$AAC?$AA?3?$AA?2?$AAP?$AAr?$AAo?$AAg?$AAr?$AAa?$AAm?$AA?5?$AAF?$AAi?$AAl?$AAe?$AAs?$AA?5?$AA?$CI?$AAx?$AA8?$AA6?$AA?$CJ?$AA?2?$AAM?$AAi?$AAc?$AAr?$AAo?$AAs?$AAo?$AAf?$AAt@"]
	mov	r9d, 101
	mov	qword ptr [rsp + 32], 0
	call	qword ptr [rip + __imp__invalid_parameter]
.Ltmp263:
# %bb.9:
	.cv_loc	82 3 101 0              # C:\Program Files (x86)\Microsoft Visual Studio\2017\Community\VC\Tools\MSVC\14.16.27023\include\xmemory0:101:0
	jmp	.LBB82_10
.Ltmp264:
.LBB82_10:
	.cv_loc	82 3 101 0              # C:\Program Files (x86)\Microsoft Visual Studio\2017\Community\VC\Tools\MSVC\14.16.27023\include\xmemory0:101:0
	jmp	.LBB82_11
.Ltmp265:
.LBB82_11:
	.cv_loc	82 3 102 0              # C:\Program Files (x86)\Microsoft Visual Studio\2017\Community\VC\Tools\MSVC\14.16.27023\include\xmemory0:102:0
	mov	rax, qword ptr [rsp + 64]
	add	rax, 47
	and	rax, -32
	mov	qword ptr [rsp + 56], rax
	.cv_loc	82 3 104 0              # C:\Program Files (x86)\Microsoft Visual Studio\2017\Community\VC\Tools\MSVC\14.16.27023\include\xmemory0:104:0
	mov	rax, qword ptr [rsp + 64]
	mov	rcx, qword ptr [rsp + 56]
	mov	qword ptr [rcx - 8], rax
	.cv_loc	82 3 107 0              # C:\Program Files (x86)\Microsoft Visual Studio\2017\Community\VC\Tools\MSVC\14.16.27023\include\xmemory0:107:0
	mov	rax, qword ptr [rsp + 56]
	movabs	rcx, -361700864190383366
	mov	qword ptr [rax - 16], rcx
	.cv_loc	82 3 109 0              # C:\Program Files (x86)\Microsoft Visual Studio\2017\Community\VC\Tools\MSVC\14.16.27023\include\xmemory0:109:0
	mov	rax, qword ptr [rsp + 56]
	add	rsp, 88
	ret
.Ltmp266:
.Lfunc_end82:
	.seh_handlerdata
	.section	.text,"xr",discard,"??$_Allocate_manually_vector_aligned@U_Default_allocate_traits@std@@@std@@YAPEAX_K@Z"
	.seh_endproc
                                        # -- End function
	.def	 "?_Allocate@_Default_allocate_traits@std@@SAPEAX_K@Z";
	.scl	2;
	.type	32;
	.endef
	.section	.text,"xr",discard,"?_Allocate@_Default_allocate_traits@std@@SAPEAX_K@Z"
	.globl	"?_Allocate@_Default_allocate_traits@std@@SAPEAX_K@Z" # -- Begin function ?_Allocate@_Default_allocate_traits@std@@SAPEAX_K@Z
	.p2align	4, 0x90
"?_Allocate@_Default_allocate_traits@std@@SAPEAX_K@Z": # @"?_Allocate@_Default_allocate_traits@std@@SAPEAX_K@Z"
.Lfunc_begin83:
	.cv_func_id 83
	.cv_loc	83 3 51 0               # C:\Program Files (x86)\Microsoft Visual Studio\2017\Community\VC\Tools\MSVC\14.16.27023\include\xmemory0:51:0
.seh_proc "?_Allocate@_Default_allocate_traits@std@@SAPEAX_K@Z"
# %bb.0:
	sub	rsp, 40
	.seh_stackalloc 40
	.seh_endprologue
	mov	qword ptr [rsp + 32], rcx
.Ltmp267:
	.cv_loc	83 3 52 0               # C:\Program Files (x86)\Microsoft Visual Studio\2017\Community\VC\Tools\MSVC\14.16.27023\include\xmemory0:52:0
	mov	rcx, qword ptr [rsp + 32]
	call	"??2@YAPEAX_K@Z"
	nop
	add	rsp, 40
	ret
.Ltmp268:
.Lfunc_end83:
	.seh_handlerdata
	.section	.text,"xr",discard,"?_Allocate@_Default_allocate_traits@std@@SAPEAX_K@Z"
	.seh_endproc
                                        # -- End function
	.def	 "??$forward@U_Container_proxy@std@@@std@@YA$$QEAU_Container_proxy@0@AEAU10@@Z";
	.scl	2;
	.type	32;
	.endef
	.section	.text,"xr",discard,"??$forward@U_Container_proxy@std@@@std@@YA$$QEAU_Container_proxy@0@AEAU10@@Z"
	.globl	"??$forward@U_Container_proxy@std@@@std@@YA$$QEAU_Container_proxy@0@AEAU10@@Z" # -- Begin function ??$forward@U_Container_proxy@std@@@std@@YA$$QEAU_Container_proxy@0@AEAU10@@Z
	.p2align	4, 0x90
"??$forward@U_Container_proxy@std@@@std@@YA$$QEAU_Container_proxy@0@AEAU10@@Z": # @"??$forward@U_Container_proxy@std@@@std@@YA$$QEAU_Container_proxy@0@AEAU10@@Z"
.Lfunc_begin84:
	.cv_func_id 84
	.cv_loc	84 6 1573 0             # C:\Program Files (x86)\Microsoft Visual Studio\2017\Community\VC\Tools\MSVC\14.16.27023\include\type_traits:1573:0
.seh_proc "??$forward@U_Container_proxy@std@@@std@@YA$$QEAU_Container_proxy@0@AEAU10@@Z"
# %bb.0:
	push	rax
	.seh_stackalloc 8
	.seh_endprologue
	mov	qword ptr [rsp], rcx
.Ltmp269:
	.cv_loc	84 6 1574 0             # C:\Program Files (x86)\Microsoft Visual Studio\2017\Community\VC\Tools\MSVC\14.16.27023\include\type_traits:1574:0
	mov	rax, qword ptr [rsp]
	pop	rcx
	ret
.Ltmp270:
.Lfunc_end84:
	.seh_handlerdata
	.section	.text,"xr",discard,"??$forward@U_Container_proxy@std@@@std@@YA$$QEAU_Container_proxy@0@AEAU10@@Z"
	.seh_endproc
                                        # -- End function
	.def	 "?_Buy@?$vector@HV?$allocator@H@std@@@std@@AEAA_N_K@Z";
	.scl	2;
	.type	32;
	.endef
	.section	.text,"xr",discard,"?_Buy@?$vector@HV?$allocator@H@std@@@std@@AEAA_N_K@Z"
	.globl	"?_Buy@?$vector@HV?$allocator@H@std@@@std@@AEAA_N_K@Z" # -- Begin function ?_Buy@?$vector@HV?$allocator@H@std@@@std@@AEAA_N_K@Z
	.p2align	4, 0x90
"?_Buy@?$vector@HV?$allocator@H@std@@@std@@AEAA_N_K@Z": # @"?_Buy@?$vector@HV?$allocator@H@std@@@std@@AEAA_N_K@Z"
.Lfunc_begin85:
	.cv_func_id 85
	.cv_loc	85 4 1872 0             # C:\Program Files (x86)\Microsoft Visual Studio\2017\Community\VC\Tools\MSVC\14.16.27023\include\vector:1872:0
.seh_proc "?_Buy@?$vector@HV?$allocator@H@std@@@std@@AEAA_N_K@Z"
# %bb.0:
	sub	rsp, 104
	.seh_stackalloc 104
	.seh_endprologue
	mov	qword ptr [rsp + 88], rdx
	mov	qword ptr [rsp + 80], rcx
	mov	rcx, qword ptr [rsp + 80]
.Ltmp271:
	.cv_loc	85 4 1873 0             # C:\Program Files (x86)\Microsoft Visual Studio\2017\Community\VC\Tools\MSVC\14.16.27023\include\vector:1873:0
	mov	rdx, rcx
	mov	qword ptr [rsp + 72], rcx # 8-byte Spill
	mov	rcx, rdx
	call	"?_Myfirst@?$_Vector_alloc@U?$_Vec_base_types@HV?$allocator@H@std@@@std@@@std@@QEAAAEAPEAHXZ"
	mov	qword ptr [rax], 0
	.cv_loc	85 4 1874 0             # C:\Program Files (x86)\Microsoft Visual Studio\2017\Community\VC\Tools\MSVC\14.16.27023\include\vector:1874:0
	mov	rax, qword ptr [rsp + 72] # 8-byte Reload
	mov	rcx, rax
	call	"?_Mylast@?$_Vector_alloc@U?$_Vec_base_types@HV?$allocator@H@std@@@std@@@std@@QEAAAEAPEAHXZ"
	mov	qword ptr [rax], 0
	.cv_loc	85 4 1875 0             # C:\Program Files (x86)\Microsoft Visual Studio\2017\Community\VC\Tools\MSVC\14.16.27023\include\vector:1875:0
	mov	rax, qword ptr [rsp + 72] # 8-byte Reload
	mov	rcx, rax
	call	"?_Myend@?$_Vector_alloc@U?$_Vec_base_types@HV?$allocator@H@std@@@std@@@std@@QEAAAEAPEAHXZ"
	mov	qword ptr [rax], 0
	.cv_loc	85 4 1877 0             # C:\Program Files (x86)\Microsoft Visual Studio\2017\Community\VC\Tools\MSVC\14.16.27023\include\vector:1877:0
	cmp	qword ptr [rsp + 88], 0
	jne	.LBB85_2
# %bb.1:
.Ltmp272:
	.cv_loc	85 4 1879 0             # C:\Program Files (x86)\Microsoft Visual Studio\2017\Community\VC\Tools\MSVC\14.16.27023\include\vector:1879:0
	mov	byte ptr [rsp + 103], 0
	jmp	.LBB85_5
.Ltmp273:
.LBB85_2:
	.cv_loc	85 4 1882 0             # C:\Program Files (x86)\Microsoft Visual Studio\2017\Community\VC\Tools\MSVC\14.16.27023\include\vector:1882:0
	mov	rax, qword ptr [rsp + 88]
	mov	rcx, qword ptr [rsp + 72] # 8-byte Reload
	mov	qword ptr [rsp + 64], rax # 8-byte Spill
	call	"?max_size@?$vector@HV?$allocator@H@std@@@std@@QEBA_KXZ"
	mov	rcx, qword ptr [rsp + 64] # 8-byte Reload
	cmp	rcx, rax
	jbe	.LBB85_4
# %bb.3:
.Ltmp274:
	.cv_loc	85 4 1884 0             # C:\Program Files (x86)\Microsoft Visual Studio\2017\Community\VC\Tools\MSVC\14.16.27023\include\vector:1884:0
	call	"?_Xlength@?$vector@HV?$allocator@H@std@@@std@@CAXXZ"
	ud2
.Ltmp275:
.LBB85_4:
	.cv_loc	85 4 1887 0             # C:\Program Files (x86)\Microsoft Visual Studio\2017\Community\VC\Tools\MSVC\14.16.27023\include\vector:1887:0
	mov	rax, qword ptr [rsp + 72] # 8-byte Reload
	mov	rcx, rax
	call	"?_Getal@?$_Vector_alloc@U?$_Vec_base_types@HV?$allocator@H@std@@@std@@@std@@QEAAAEAV?$allocator@H@2@XZ"
	mov	rdx, qword ptr [rsp + 88]
	mov	rcx, rax
	call	"?allocate@?$allocator@H@std@@QEAAPEAH_K@Z"
	mov	rcx, qword ptr [rsp + 72] # 8-byte Reload
	mov	qword ptr [rsp + 56], rax # 8-byte Spill
	call	"?_Myfirst@?$_Vector_alloc@U?$_Vec_base_types@HV?$allocator@H@std@@@std@@@std@@QEAAAEAPEAHXZ"
	mov	rcx, qword ptr [rsp + 56] # 8-byte Reload
	mov	qword ptr [rax], rcx
	.cv_loc	85 4 1888 0             # C:\Program Files (x86)\Microsoft Visual Studio\2017\Community\VC\Tools\MSVC\14.16.27023\include\vector:1888:0
	mov	rax, qword ptr [rsp + 72] # 8-byte Reload
	mov	rcx, rax
	call	"?_Myfirst@?$_Vector_alloc@U?$_Vec_base_types@HV?$allocator@H@std@@@std@@@std@@QEAAAEAPEAHXZ"
	mov	rax, qword ptr [rax]
	mov	rcx, qword ptr [rsp + 72] # 8-byte Reload
	mov	qword ptr [rsp + 48], rax # 8-byte Spill
	call	"?_Mylast@?$_Vector_alloc@U?$_Vec_base_types@HV?$allocator@H@std@@@std@@@std@@QEAAAEAPEAHXZ"
	mov	rcx, qword ptr [rsp + 48] # 8-byte Reload
	mov	qword ptr [rax], rcx
	.cv_loc	85 4 1889 0             # C:\Program Files (x86)\Microsoft Visual Studio\2017\Community\VC\Tools\MSVC\14.16.27023\include\vector:1889:0
	mov	rax, qword ptr [rsp + 72] # 8-byte Reload
	mov	rcx, rax
	call	"?_Myfirst@?$_Vector_alloc@U?$_Vec_base_types@HV?$allocator@H@std@@@std@@@std@@QEAAAEAPEAHXZ"
	mov	rax, qword ptr [rax]
	mov	rcx, qword ptr [rsp + 88]
	shl	rcx, 2
	add	rax, rcx
	mov	rcx, qword ptr [rsp + 72] # 8-byte Reload
	mov	qword ptr [rsp + 40], rax # 8-byte Spill
	call	"?_Myend@?$_Vector_alloc@U?$_Vec_base_types@HV?$allocator@H@std@@@std@@@std@@QEAAAEAPEAHXZ"
	mov	rcx, qword ptr [rsp + 40] # 8-byte Reload
	mov	qword ptr [rax], rcx
	.cv_loc	85 4 1891 0             # C:\Program Files (x86)\Microsoft Visual Studio\2017\Community\VC\Tools\MSVC\14.16.27023\include\vector:1891:0
	mov	byte ptr [rsp + 103], 1
.LBB85_5:
	.cv_loc	85 4 1892 0             # C:\Program Files (x86)\Microsoft Visual Studio\2017\Community\VC\Tools\MSVC\14.16.27023\include\vector:1892:0
	mov	al, byte ptr [rsp + 103]
	and	al, 1
	movzx	eax, al
	add	rsp, 104
	ret
.Ltmp276:
.Lfunc_end85:
	.seh_handlerdata
	.section	.text,"xr",discard,"?_Buy@?$vector@HV?$allocator@H@std@@@std@@AEAA_N_K@Z"
	.seh_endproc
                                        # -- End function
	.def	 "??$_Convert_size@_K@std@@YA_K_K@Z";
	.scl	2;
	.type	32;
	.endef
	.section	.text,"xr",discard,"??$_Convert_size@_K@std@@YA_K_K@Z"
	.globl	"??$_Convert_size@_K@std@@YA_K_K@Z" # -- Begin function ??$_Convert_size@_K@std@@YA_K_K@Z
	.p2align	4, 0x90
"??$_Convert_size@_K@std@@YA_K_K@Z":    # @"??$_Convert_size@_K@std@@YA_K_K@Z"
.Lfunc_begin86:
	.cv_func_id 86
	.cv_loc	86 3 1203 0             # C:\Program Files (x86)\Microsoft Visual Studio\2017\Community\VC\Tools\MSVC\14.16.27023\include\xmemory0:1203:0
.seh_proc "??$_Convert_size@_K@std@@YA_K_K@Z"
# %bb.0:
	push	rax
	.seh_stackalloc 8
	.seh_endprologue
	mov	qword ptr [rsp], rcx
.Ltmp277:
	.cv_loc	86 3 1204 0             # C:\Program Files (x86)\Microsoft Visual Studio\2017\Community\VC\Tools\MSVC\14.16.27023\include\xmemory0:1204:0
	mov	rax, qword ptr [rsp]
	pop	rcx
	ret
.Ltmp278:
.Lfunc_end86:
	.seh_handlerdata
	.section	.text,"xr",discard,"??$_Convert_size@_K@std@@YA_K_K@Z"
	.seh_endproc
                                        # -- End function
	.def	 "??$distance@PEBH@std@@YA_JPEBH0@Z";
	.scl	2;
	.type	32;
	.endef
	.section	.text,"xr",discard,"??$distance@PEBH@std@@YA_JPEBH0@Z"
	.globl	"??$distance@PEBH@std@@YA_JPEBH0@Z" # -- Begin function ??$distance@PEBH@std@@YA_JPEBH0@Z
	.p2align	4, 0x90
"??$distance@PEBH@std@@YA_JPEBH0@Z":    # @"??$distance@PEBH@std@@YA_JPEBH0@Z"
.Lfunc_begin87:
	.cv_func_id 87
	.cv_loc	87 10 1240 0            # C:\Program Files (x86)\Microsoft Visual Studio\2017\Community\VC\Tools\MSVC\14.16.27023\include\xutility:1240:0
.seh_proc "??$distance@PEBH@std@@YA_JPEBH0@Z"
# %bb.0:
	sub	rsp, 56
	.seh_stackalloc 56
	.seh_endprologue
	mov	qword ptr [rsp + 48], rdx
	mov	qword ptr [rsp + 40], rcx
.Ltmp279:
	.cv_loc	87 10 1241 0            # C:\Program Files (x86)\Microsoft Visual Studio\2017\Community\VC\Tools\MSVC\14.16.27023\include\xutility:1241:0
	mov	rdx, qword ptr [rsp + 48]
	mov	rcx, qword ptr [rsp + 40]
	mov	r8b, byte ptr [rsp + 32]
	call	"??$_Distance1@PEBH@std@@YA_JPEBH0Urandom_access_iterator_tag@0@@Z"
	nop
	add	rsp, 56
	ret
.Ltmp280:
.Lfunc_end87:
	.seh_handlerdata
	.section	.text,"xr",discard,"??$distance@PEBH@std@@YA_JPEBH0@Z"
	.seh_endproc
                                        # -- End function
	.def	 "??$_Ucopy@PEBH@?$vector@HV?$allocator@H@std@@@std@@AEAAPEAHPEBH0PEAH@Z";
	.scl	2;
	.type	32;
	.endef
	.section	.text,"xr",discard,"??$_Ucopy@PEBH@?$vector@HV?$allocator@H@std@@@std@@AEAAPEAHPEBH0PEAH@Z"
	.globl	"??$_Ucopy@PEBH@?$vector@HV?$allocator@H@std@@@std@@AEAAPEAHPEBH0PEAH@Z" # -- Begin function ??$_Ucopy@PEBH@?$vector@HV?$allocator@H@std@@@std@@AEAAPEAHPEBH0PEAH@Z
	.p2align	4, 0x90
"??$_Ucopy@PEBH@?$vector@HV?$allocator@H@std@@@std@@AEAAPEAHPEBH0PEAH@Z": # @"??$_Ucopy@PEBH@?$vector@HV?$allocator@H@std@@@std@@AEAAPEAHPEBH0PEAH@Z"
.Lfunc_begin88:
	.cv_func_id 88
	.cv_loc	88 4 1822 0             # C:\Program Files (x86)\Microsoft Visual Studio\2017\Community\VC\Tools\MSVC\14.16.27023\include\vector:1822:0
.seh_proc "??$_Ucopy@PEBH@?$vector@HV?$allocator@H@std@@@std@@AEAAPEAHPEBH0PEAH@Z"
# %bb.0:
	sub	rsp, 72
	.seh_stackalloc 72
	.seh_endprologue
	mov	qword ptr [rsp + 64], r9
	mov	qword ptr [rsp + 56], r8
	mov	qword ptr [rsp + 48], rdx
	mov	qword ptr [rsp + 40], rcx
	mov	rcx, qword ptr [rsp + 40]
.Ltmp281:
	.cv_loc	88 4 1823 0             # C:\Program Files (x86)\Microsoft Visual Studio\2017\Community\VC\Tools\MSVC\14.16.27023\include\vector:1823:0
	call	"?_Getal@?$_Vector_alloc@U?$_Vec_base_types@HV?$allocator@H@std@@@std@@@std@@QEAAAEAV?$allocator@H@2@XZ"
	mov	r8, qword ptr [rsp + 64]
	mov	rdx, qword ptr [rsp + 56]
	mov	rcx, qword ptr [rsp + 48]
	mov	r9, rax
	call	"??$_Uninitialized_copy@PEBHPEAHV?$allocator@H@std@@@std@@YAPEAHQEBH0PEAHAEAV?$allocator@H@0@@Z"
	nop
	add	rsp, 72
	ret
.Ltmp282:
.Lfunc_end88:
	.seh_handlerdata
	.section	.text,"xr",discard,"??$_Ucopy@PEBH@?$vector@HV?$allocator@H@std@@@std@@AEAAPEAHPEBH0PEAH@Z"
	.seh_endproc
                                        # -- End function
	.def	 "?_Mylast@?$_Vector_alloc@U?$_Vec_base_types@HV?$allocator@H@std@@@std@@@std@@QEAAAEAPEAHXZ";
	.scl	2;
	.type	32;
	.endef
	.section	.text,"xr",discard,"?_Mylast@?$_Vector_alloc@U?$_Vec_base_types@HV?$allocator@H@std@@@std@@@std@@QEAAAEAPEAHXZ"
	.globl	"?_Mylast@?$_Vector_alloc@U?$_Vec_base_types@HV?$allocator@H@std@@@std@@@std@@QEAAAEAPEAHXZ" # -- Begin function ?_Mylast@?$_Vector_alloc@U?$_Vec_base_types@HV?$allocator@H@std@@@std@@@std@@QEAAAEAPEAHXZ
	.p2align	4, 0x90
"?_Mylast@?$_Vector_alloc@U?$_Vec_base_types@HV?$allocator@H@std@@@std@@@std@@QEAAAEAPEAHXZ": # @"?_Mylast@?$_Vector_alloc@U?$_Vec_base_types@HV?$allocator@H@std@@@std@@@std@@QEAAAEAPEAHXZ"
.Lfunc_begin89:
	.cv_func_id 89
	.cv_loc	89 4 585 0              # C:\Program Files (x86)\Microsoft Visual Studio\2017\Community\VC\Tools\MSVC\14.16.27023\include\vector:585:0
.seh_proc "?_Mylast@?$_Vector_alloc@U?$_Vec_base_types@HV?$allocator@H@std@@@std@@@std@@QEAAAEAPEAHXZ"
# %bb.0:
	sub	rsp, 40
	.seh_stackalloc 40
	.seh_endprologue
	mov	qword ptr [rsp + 32], rcx
	mov	rcx, qword ptr [rsp + 32]
.Ltmp283:
	.cv_loc	89 4 586 0              # C:\Program Files (x86)\Microsoft Visual Studio\2017\Community\VC\Tools\MSVC\14.16.27023\include\vector:586:0
	call	"?_Get_data@?$_Vector_alloc@U?$_Vec_base_types@HV?$allocator@H@std@@@std@@@std@@QEAAAEAV?$_Vector_val@U?$_Simple_types@H@std@@@2@XZ"
	add	rax, 16
	add	rsp, 40
	ret
.Ltmp284:
.Lfunc_end89:
	.seh_handlerdata
	.section	.text,"xr",discard,"?_Mylast@?$_Vector_alloc@U?$_Vec_base_types@HV?$allocator@H@std@@@std@@@std@@QEAAAEAPEAHXZ"
	.seh_endproc
                                        # -- End function
	.def	 "?_Tidy@?$vector@HV?$allocator@H@std@@@std@@AEAAXXZ";
	.scl	2;
	.type	32;
	.endef
	.section	.text,"xr",discard,"?_Tidy@?$vector@HV?$allocator@H@std@@@std@@AEAAXXZ"
	.globl	"?_Tidy@?$vector@HV?$allocator@H@std@@@std@@AEAAXXZ" # -- Begin function ?_Tidy@?$vector@HV?$allocator@H@std@@@std@@AEAAXXZ
	.p2align	4, 0x90
"?_Tidy@?$vector@HV?$allocator@H@std@@@std@@AEAAXXZ": # @"?_Tidy@?$vector@HV?$allocator@H@std@@@std@@AEAAXXZ"
.Lfunc_begin90:
	.cv_func_id 90
	.cv_loc	90 4 1910 0             # C:\Program Files (x86)\Microsoft Visual Studio\2017\Community\VC\Tools\MSVC\14.16.27023\include\vector:1910:0
.seh_proc "?_Tidy@?$vector@HV?$allocator@H@std@@@std@@AEAAXXZ"
# %bb.0:
	sub	rsp, 72
	.seh_stackalloc 72
	.seh_endprologue
	mov	qword ptr [rsp + 64], rcx
	mov	rcx, qword ptr [rsp + 64]
.Ltmp285:
	.cv_loc	90 4 1911 0             # C:\Program Files (x86)\Microsoft Visual Studio\2017\Community\VC\Tools\MSVC\14.16.27023\include\vector:1911:0
	mov	rax, rcx
	mov	qword ptr [rsp + 56], rcx # 8-byte Spill
	mov	rcx, rax
	call	"?_Orphan_all@?$_Vector_alloc@U?$_Vec_base_types@HV?$allocator@H@std@@@std@@@std@@QEAAXXZ"
	.cv_loc	90 4 1913 0             # C:\Program Files (x86)\Microsoft Visual Studio\2017\Community\VC\Tools\MSVC\14.16.27023\include\vector:1913:0
	mov	rax, qword ptr [rsp + 56] # 8-byte Reload
	mov	rcx, rax
	call	"?_Myfirst@?$_Vector_alloc@U?$_Vec_base_types@HV?$allocator@H@std@@@std@@@std@@QEAAAEAPEAHXZ"
	cmp	qword ptr [rax], 0
	je	.LBB90_2
# %bb.1:
.Ltmp286:
	.cv_loc	90 4 1915 0             # C:\Program Files (x86)\Microsoft Visual Studio\2017\Community\VC\Tools\MSVC\14.16.27023\include\vector:1915:0
	mov	rax, qword ptr [rsp + 56] # 8-byte Reload
	mov	rcx, rax
	call	"?_Mylast@?$_Vector_alloc@U?$_Vec_base_types@HV?$allocator@H@std@@@std@@@std@@QEAAAEAPEAHXZ"
	mov	r8, qword ptr [rax]
	mov	rax, qword ptr [rsp + 56] # 8-byte Reload
	mov	rcx, rax
	mov	qword ptr [rsp + 48], r8 # 8-byte Spill
	call	"?_Myfirst@?$_Vector_alloc@U?$_Vec_base_types@HV?$allocator@H@std@@@std@@@std@@QEAAAEAPEAHXZ"
	mov	rdx, qword ptr [rax]
	mov	rcx, qword ptr [rsp + 56] # 8-byte Reload
	mov	r8, qword ptr [rsp + 48] # 8-byte Reload
	call	"?_Destroy@?$vector@HV?$allocator@H@std@@@std@@AEAAXPEAH0@Z"
	.cv_loc	90 4 1916 0             # C:\Program Files (x86)\Microsoft Visual Studio\2017\Community\VC\Tools\MSVC\14.16.27023\include\vector:1916:0
	mov	rax, qword ptr [rsp + 56] # 8-byte Reload
	mov	rcx, rax
	call	"?_Getal@?$_Vector_alloc@U?$_Vec_base_types@HV?$allocator@H@std@@@std@@@std@@QEAAAEAV?$allocator@H@2@XZ"
	mov	rcx, qword ptr [rsp + 56] # 8-byte Reload
	mov	qword ptr [rsp + 40], rax # 8-byte Spill
	call	"?capacity@?$vector@HV?$allocator@H@std@@@std@@QEBA_KXZ"
	mov	rcx, qword ptr [rsp + 56] # 8-byte Reload
	mov	qword ptr [rsp + 32], rax # 8-byte Spill
	call	"?_Myfirst@?$_Vector_alloc@U?$_Vec_base_types@HV?$allocator@H@std@@@std@@@std@@QEAAAEAPEAHXZ"
	mov	rdx, qword ptr [rax]
	mov	rcx, qword ptr [rsp + 40] # 8-byte Reload
	mov	r8, qword ptr [rsp + 32] # 8-byte Reload
	call	"?deallocate@?$allocator@H@std@@QEAAXQEAH_K@Z"
	.cv_loc	90 4 1918 0             # C:\Program Files (x86)\Microsoft Visual Studio\2017\Community\VC\Tools\MSVC\14.16.27023\include\vector:1918:0
	mov	rax, qword ptr [rsp + 56] # 8-byte Reload
	mov	rcx, rax
	call	"?_Myfirst@?$_Vector_alloc@U?$_Vec_base_types@HV?$allocator@H@std@@@std@@@std@@QEAAAEAPEAHXZ"
	mov	qword ptr [rax], 0
	.cv_loc	90 4 1919 0             # C:\Program Files (x86)\Microsoft Visual Studio\2017\Community\VC\Tools\MSVC\14.16.27023\include\vector:1919:0
	mov	rax, qword ptr [rsp + 56] # 8-byte Reload
	mov	rcx, rax
	call	"?_Mylast@?$_Vector_alloc@U?$_Vec_base_types@HV?$allocator@H@std@@@std@@@std@@QEAAAEAPEAHXZ"
	mov	qword ptr [rax], 0
	.cv_loc	90 4 1920 0             # C:\Program Files (x86)\Microsoft Visual Studio\2017\Community\VC\Tools\MSVC\14.16.27023\include\vector:1920:0
	mov	rax, qword ptr [rsp + 56] # 8-byte Reload
	mov	rcx, rax
	call	"?_Myend@?$_Vector_alloc@U?$_Vec_base_types@HV?$allocator@H@std@@@std@@@std@@QEAAAEAPEAHXZ"
	mov	qword ptr [rax], 0
.Ltmp287:
.LBB90_2:
	.cv_loc	90 4 1922 0             # C:\Program Files (x86)\Microsoft Visual Studio\2017\Community\VC\Tools\MSVC\14.16.27023\include\vector:1922:0
	add	rsp, 72
	ret
.Ltmp288:
.Lfunc_end90:
	.seh_handlerdata
	.section	.text,"xr",discard,"?_Tidy@?$vector@HV?$allocator@H@std@@@std@@AEAAXXZ"
	.seh_endproc
                                        # -- End function
	.def	 "?_Myend@?$_Vector_alloc@U?$_Vec_base_types@HV?$allocator@H@std@@@std@@@std@@QEAAAEAPEAHXZ";
	.scl	2;
	.type	32;
	.endef
	.section	.text,"xr",discard,"?_Myend@?$_Vector_alloc@U?$_Vec_base_types@HV?$allocator@H@std@@@std@@@std@@QEAAAEAPEAHXZ"
	.globl	"?_Myend@?$_Vector_alloc@U?$_Vec_base_types@HV?$allocator@H@std@@@std@@@std@@QEAAAEAPEAHXZ" # -- Begin function ?_Myend@?$_Vector_alloc@U?$_Vec_base_types@HV?$allocator@H@std@@@std@@@std@@QEAAAEAPEAHXZ
	.p2align	4, 0x90
"?_Myend@?$_Vector_alloc@U?$_Vec_base_types@HV?$allocator@H@std@@@std@@@std@@QEAAAEAPEAHXZ": # @"?_Myend@?$_Vector_alloc@U?$_Vec_base_types@HV?$allocator@H@std@@@std@@@std@@QEAAAEAPEAHXZ"
.Lfunc_begin91:
	.cv_func_id 91
	.cv_loc	91 4 595 0              # C:\Program Files (x86)\Microsoft Visual Studio\2017\Community\VC\Tools\MSVC\14.16.27023\include\vector:595:0
.seh_proc "?_Myend@?$_Vector_alloc@U?$_Vec_base_types@HV?$allocator@H@std@@@std@@@std@@QEAAAEAPEAHXZ"
# %bb.0:
	sub	rsp, 40
	.seh_stackalloc 40
	.seh_endprologue
	mov	qword ptr [rsp + 32], rcx
	mov	rcx, qword ptr [rsp + 32]
.Ltmp289:
	.cv_loc	91 4 596 0              # C:\Program Files (x86)\Microsoft Visual Studio\2017\Community\VC\Tools\MSVC\14.16.27023\include\vector:596:0
	call	"?_Get_data@?$_Vector_alloc@U?$_Vec_base_types@HV?$allocator@H@std@@@std@@@std@@QEAAAEAV?$_Vector_val@U?$_Simple_types@H@std@@@2@XZ"
	add	rax, 24
	add	rsp, 40
	ret
.Ltmp290:
.Lfunc_end91:
	.seh_handlerdata
	.section	.text,"xr",discard,"?_Myend@?$_Vector_alloc@U?$_Vec_base_types@HV?$allocator@H@std@@@std@@@std@@QEAAAEAPEAHXZ"
	.seh_endproc
                                        # -- End function
	.def	 "?max_size@?$vector@HV?$allocator@H@std@@@std@@QEBA_KXZ";
	.scl	2;
	.type	32;
	.endef
	.section	.text,"xr",discard,"?max_size@?$vector@HV?$allocator@H@std@@@std@@QEBA_KXZ"
	.globl	"?max_size@?$vector@HV?$allocator@H@std@@@std@@QEBA_KXZ" # -- Begin function ?max_size@?$vector@HV?$allocator@H@std@@@std@@QEBA_KXZ
	.p2align	4, 0x90
"?max_size@?$vector@HV?$allocator@H@std@@@std@@QEBA_KXZ": # @"?max_size@?$vector@HV?$allocator@H@std@@@std@@QEBA_KXZ"
.Lfunc_begin92:
	.cv_func_id 92
	.cv_loc	92 4 1708 0             # C:\Program Files (x86)\Microsoft Visual Studio\2017\Community\VC\Tools\MSVC\14.16.27023\include\vector:1708:0
.seh_proc "?max_size@?$vector@HV?$allocator@H@std@@@std@@QEBA_KXZ"
# %bb.0:
	sub	rsp, 72
	.seh_stackalloc 72
	.seh_endprologue
	mov	rax, qword ptr [rip + __security_cookie]
	xor	rax, rsp
	mov	qword ptr [rsp + 64], rax
	mov	qword ptr [rsp + 40], rcx
	mov	rax, qword ptr [rsp + 40]
.Ltmp291:
	.cv_loc	92 4 1709 0             # C:\Program Files (x86)\Microsoft Visual Studio\2017\Community\VC\Tools\MSVC\14.16.27023\include\vector:1709:0
	mov	rcx, rax
	call	"?_Getal@?$_Vector_alloc@U?$_Vec_base_types@HV?$allocator@H@std@@@std@@@std@@QEBAAEBV?$allocator@H@2@XZ"
	mov	rcx, rax
	call	"?max_size@?$_Default_allocator_traits@V?$allocator@H@std@@@std@@SA_KAEBV?$allocator@H@2@@Z"
	mov	qword ptr [rsp + 56], rax
	call	"?max@?$numeric_limits@_J@std@@SA_JXZ"
	mov	qword ptr [rsp + 48], rax
	lea	rcx, [rsp + 48]
	lea	rdx, [rsp + 56]
	call	"??$_Min_value@_K@std@@YAAEB_KAEB_K0@Z"
	mov	rax, qword ptr [rax]
	mov	rcx, qword ptr [rsp + 64]
	xor	rcx, rsp
	mov	qword ptr [rsp + 32], rax # 8-byte Spill
	call	__security_check_cookie
	mov	rax, qword ptr [rsp + 32] # 8-byte Reload
	add	rsp, 72
	ret
.Ltmp292:
.Lfunc_end92:
	.seh_handlerdata
	.section	.text,"xr",discard,"?max_size@?$vector@HV?$allocator@H@std@@@std@@QEBA_KXZ"
	.seh_endproc
                                        # -- End function
	.def	 "?_Xlength@?$vector@HV?$allocator@H@std@@@std@@CAXXZ";
	.scl	2;
	.type	32;
	.endef
	.section	.text,"xr",discard,"?_Xlength@?$vector@HV?$allocator@H@std@@@std@@CAXXZ"
	.globl	"?_Xlength@?$vector@HV?$allocator@H@std@@@std@@CAXXZ" # -- Begin function ?_Xlength@?$vector@HV?$allocator@H@std@@@std@@CAXXZ
	.p2align	4, 0x90
"?_Xlength@?$vector@HV?$allocator@H@std@@@std@@CAXXZ": # @"?_Xlength@?$vector@HV?$allocator@H@std@@@std@@CAXXZ"
.Lfunc_begin93:
	.cv_func_id 93
	.cv_loc	93 4 1925 0             # C:\Program Files (x86)\Microsoft Visual Studio\2017\Community\VC\Tools\MSVC\14.16.27023\include\vector:1925:0
.seh_proc "?_Xlength@?$vector@HV?$allocator@H@std@@@std@@CAXXZ"
# %bb.0:
	sub	rsp, 40
	.seh_stackalloc 40
	.seh_endprologue
.Ltmp293:
	.cv_loc	93 4 1926 0             # C:\Program Files (x86)\Microsoft Visual Studio\2017\Community\VC\Tools\MSVC\14.16.27023\include\vector:1926:0
	lea	rcx, [rip + "??_C@_0BD@OLBABOEK@vector?$DMT?$DO?5too?5long?$AA@"]
	call	"?_Xlength_error@std@@YAXPEBD@Z"
	ud2
.Ltmp294:
.Lfunc_end93:
	.seh_handlerdata
	.section	.text,"xr",discard,"?_Xlength@?$vector@HV?$allocator@H@std@@@std@@CAXXZ"
	.seh_endproc
                                        # -- End function
	.def	 "?allocate@?$allocator@H@std@@QEAAPEAH_K@Z";
	.scl	2;
	.type	32;
	.endef
	.section	.text,"xr",discard,"?allocate@?$allocator@H@std@@QEAAPEAH_K@Z"
	.globl	"?allocate@?$allocator@H@std@@QEAAPEAH_K@Z" # -- Begin function ?allocate@?$allocator@H@std@@QEAAPEAH_K@Z
	.p2align	4, 0x90
"?allocate@?$allocator@H@std@@QEAAPEAH_K@Z": # @"?allocate@?$allocator@H@std@@QEAAPEAH_K@Z"
.Lfunc_begin94:
	.cv_func_id 94
	.cv_loc	94 3 996 0              # C:\Program Files (x86)\Microsoft Visual Studio\2017\Community\VC\Tools\MSVC\14.16.27023\include\xmemory0:996:0
.seh_proc "?allocate@?$allocator@H@std@@QEAAPEAH_K@Z"
# %bb.0:
	sub	rsp, 56
	.seh_stackalloc 56
	.seh_endprologue
	mov	qword ptr [rsp + 48], rdx
	mov	qword ptr [rsp + 40], rcx
.Ltmp295:
	.cv_loc	94 3 997 0              # C:\Program Files (x86)\Microsoft Visual Studio\2017\Community\VC\Tools\MSVC\14.16.27023\include\xmemory0:997:0
	mov	rcx, qword ptr [rsp + 48]
	call	"??$_Get_size_of_n@$03@std@@YA_K_K@Z"
	mov	rcx, rax
	call	"??$_Allocate@$0BA@U_Default_allocate_traits@std@@$0A@@std@@YAPEAX_K@Z"
	nop
	add	rsp, 56
	ret
.Ltmp296:
.Lfunc_end94:
	.seh_handlerdata
	.section	.text,"xr",discard,"?allocate@?$allocator@H@std@@QEAAPEAH_K@Z"
	.seh_endproc
                                        # -- End function
	.def	 "??$_Min_value@_K@std@@YAAEB_KAEB_K0@Z";
	.scl	2;
	.type	32;
	.endef
	.section	.text,"xr",discard,"??$_Min_value@_K@std@@YAAEB_KAEB_K0@Z"
	.globl	"??$_Min_value@_K@std@@YAAEB_KAEB_K0@Z" # -- Begin function ??$_Min_value@_K@std@@YAAEB_KAEB_K0@Z
	.p2align	4, 0x90
"??$_Min_value@_K@std@@YAAEB_KAEB_K0@Z": # @"??$_Min_value@_K@std@@YAAEB_KAEB_K0@Z"
.Lfunc_begin95:
	.cv_func_id 95
	.cv_file	13 "C:\\Program Files (x86)\\Microsoft Visual Studio\\2017\\Community\\VC\\Tools\\MSVC\\14.16.27023\\include\\utility" "6DCFB0D398453B2C01F756F21EBE97AD" 1
	.cv_loc	95 13 23 0              # C:\Program Files (x86)\Microsoft Visual Studio\2017\Community\VC\Tools\MSVC\14.16.27023\include\utility:23:0
.seh_proc "??$_Min_value@_K@std@@YAAEB_KAEB_K0@Z"
# %bb.0:
	sub	rsp, 24
	.seh_stackalloc 24
	.seh_endprologue
	mov	qword ptr [rsp + 16], rdx
	mov	qword ptr [rsp + 8], rcx
.Ltmp297:
	.cv_loc	95 13 24 0              # C:\Program Files (x86)\Microsoft Visual Studio\2017\Community\VC\Tools\MSVC\14.16.27023\include\utility:24:0
	mov	rcx, qword ptr [rsp + 16]
	mov	rcx, qword ptr [rcx]
	mov	rdx, qword ptr [rsp + 8]
	cmp	rcx, qword ptr [rdx]
	jae	.LBB95_2
# %bb.1:
	mov	rax, qword ptr [rsp + 16]
	mov	qword ptr [rsp], rax    # 8-byte Spill
	jmp	.LBB95_3
.LBB95_2:
	mov	rax, qword ptr [rsp + 8]
	mov	qword ptr [rsp], rax    # 8-byte Spill
.LBB95_3:
	mov	rax, qword ptr [rsp]    # 8-byte Reload
	add	rsp, 24
	ret
.Ltmp298:
.Lfunc_end95:
	.seh_handlerdata
	.section	.text,"xr",discard,"??$_Min_value@_K@std@@YAAEB_KAEB_K0@Z"
	.seh_endproc
                                        # -- End function
	.def	 "?max_size@?$_Default_allocator_traits@V?$allocator@H@std@@@std@@SA_KAEBV?$allocator@H@2@@Z";
	.scl	2;
	.type	32;
	.endef
	.section	.text,"xr",discard,"?max_size@?$_Default_allocator_traits@V?$allocator@H@std@@@std@@SA_KAEBV?$allocator@H@2@@Z"
	.globl	"?max_size@?$_Default_allocator_traits@V?$allocator@H@std@@@std@@SA_KAEBV?$allocator@H@2@@Z" # -- Begin function ?max_size@?$_Default_allocator_traits@V?$allocator@H@std@@@std@@SA_KAEBV?$allocator@H@2@@Z
	.p2align	4, 0x90
"?max_size@?$_Default_allocator_traits@V?$allocator@H@std@@@std@@SA_KAEBV?$allocator@H@2@@Z": # @"?max_size@?$_Default_allocator_traits@V?$allocator@H@std@@@std@@SA_KAEBV?$allocator@H@2@@Z"
.Lfunc_begin96:
	.cv_func_id 96
	.cv_loc	96 3 891 0              # C:\Program Files (x86)\Microsoft Visual Studio\2017\Community\VC\Tools\MSVC\14.16.27023\include\xmemory0:891:0
.seh_proc "?max_size@?$_Default_allocator_traits@V?$allocator@H@std@@@std@@SA_KAEBV?$allocator@H@2@@Z"
# %bb.0:
	push	rax
	.seh_stackalloc 8
	.seh_endprologue
	mov	qword ptr [rsp], rcx
.Ltmp299:
	.cv_loc	96 3 892 0              # C:\Program Files (x86)\Microsoft Visual Studio\2017\Community\VC\Tools\MSVC\14.16.27023\include\xmemory0:892:0
	movabs	rax, 4611686018427387903
	pop	rcx
	ret
.Ltmp300:
.Lfunc_end96:
	.seh_handlerdata
	.section	.text,"xr",discard,"?max_size@?$_Default_allocator_traits@V?$allocator@H@std@@@std@@SA_KAEBV?$allocator@H@2@@Z"
	.seh_endproc
                                        # -- End function
	.def	 "?_Getal@?$_Vector_alloc@U?$_Vec_base_types@HV?$allocator@H@std@@@std@@@std@@QEBAAEBV?$allocator@H@2@XZ";
	.scl	2;
	.type	32;
	.endef
	.section	.text,"xr",discard,"?_Getal@?$_Vector_alloc@U?$_Vec_base_types@HV?$allocator@H@std@@@std@@@std@@QEBAAEBV?$allocator@H@2@XZ"
	.globl	"?_Getal@?$_Vector_alloc@U?$_Vec_base_types@HV?$allocator@H@std@@@std@@@std@@QEBAAEBV?$allocator@H@2@XZ" # -- Begin function ?_Getal@?$_Vector_alloc@U?$_Vec_base_types@HV?$allocator@H@std@@@std@@@std@@QEBAAEBV?$allocator@H@2@XZ
	.p2align	4, 0x90
"?_Getal@?$_Vector_alloc@U?$_Vec_base_types@HV?$allocator@H@std@@@std@@@std@@QEBAAEBV?$allocator@H@2@XZ": # @"?_Getal@?$_Vector_alloc@U?$_Vec_base_types@HV?$allocator@H@std@@@std@@@std@@QEBAAEBV?$allocator@H@2@XZ"
.Lfunc_begin97:
	.cv_func_id 97
	.cv_loc	97 4 549 0              # C:\Program Files (x86)\Microsoft Visual Studio\2017\Community\VC\Tools\MSVC\14.16.27023\include\vector:549:0
.seh_proc "?_Getal@?$_Vector_alloc@U?$_Vec_base_types@HV?$allocator@H@std@@@std@@@std@@QEBAAEBV?$allocator@H@2@XZ"
# %bb.0:
	sub	rsp, 40
	.seh_stackalloc 40
	.seh_endprologue
	mov	qword ptr [rsp + 32], rcx
	mov	rcx, qword ptr [rsp + 32]
.Ltmp301:
	.cv_loc	97 4 550 0              # C:\Program Files (x86)\Microsoft Visual Studio\2017\Community\VC\Tools\MSVC\14.16.27023\include\vector:550:0
	call	"?_Get_first@?$_Compressed_pair@V?$allocator@H@std@@V?$_Vector_val@U?$_Simple_types@H@std@@@2@$00@std@@QEBAAEBV?$allocator@H@2@XZ"
	nop
	add	rsp, 40
	ret
.Ltmp302:
.Lfunc_end97:
	.seh_handlerdata
	.section	.text,"xr",discard,"?_Getal@?$_Vector_alloc@U?$_Vec_base_types@HV?$allocator@H@std@@@std@@@std@@QEBAAEBV?$allocator@H@2@XZ"
	.seh_endproc
                                        # -- End function
	.def	 "?max@?$numeric_limits@_J@std@@SA_JXZ";
	.scl	2;
	.type	32;
	.endef
	.section	.text,"xr",discard,"?max@?$numeric_limits@_J@std@@SA_JXZ"
	.globl	"?max@?$numeric_limits@_J@std@@SA_JXZ" # -- Begin function ?max@?$numeric_limits@_J@std@@SA_JXZ
	.p2align	4, 0x90
"?max@?$numeric_limits@_J@std@@SA_JXZ": # @"?max@?$numeric_limits@_J@std@@SA_JXZ"
.Lfunc_begin98:
	.cv_func_id 98
# %bb.0:
	.cv_file	14 "C:\\Program Files (x86)\\Microsoft Visual Studio\\2017\\Community\\VC\\Tools\\MSVC\\14.16.27023\\include\\limits" "A85F6C29B0D4BF37FA72F4E1E598AB5F" 1
	.cv_loc	98 14 894 0             # C:\Program Files (x86)\Microsoft Visual Studio\2017\Community\VC\Tools\MSVC\14.16.27023\include\limits:894:0
	movabs	rax, 9223372036854775807
	ret
.Ltmp303:
.Lfunc_end98:
                                        # -- End function
	.def	 "?_Get_first@?$_Compressed_pair@V?$allocator@H@std@@V?$_Vector_val@U?$_Simple_types@H@std@@@2@$00@std@@QEBAAEBV?$allocator@H@2@XZ";
	.scl	2;
	.type	32;
	.endef
	.section	.text,"xr",discard,"?_Get_first@?$_Compressed_pair@V?$allocator@H@std@@V?$_Vector_val@U?$_Simple_types@H@std@@@2@$00@std@@QEBAAEBV?$allocator@H@2@XZ"
	.globl	"?_Get_first@?$_Compressed_pair@V?$allocator@H@std@@V?$_Vector_val@U?$_Simple_types@H@std@@@2@$00@std@@QEBAAEBV?$allocator@H@2@XZ" # -- Begin function ?_Get_first@?$_Compressed_pair@V?$allocator@H@std@@V?$_Vector_val@U?$_Simple_types@H@std@@@2@$00@std@@QEBAAEBV?$allocator@H@2@XZ
	.p2align	4, 0x90
"?_Get_first@?$_Compressed_pair@V?$allocator@H@std@@V?$_Vector_val@U?$_Simple_types@H@std@@@2@$00@std@@QEBAAEBV?$allocator@H@2@XZ": # @"?_Get_first@?$_Compressed_pair@V?$allocator@H@std@@V?$_Vector_val@U?$_Simple_types@H@std@@@2@$00@std@@QEBAAEBV?$allocator@H@2@XZ"
.Lfunc_begin99:
	.cv_func_id 99
	.cv_loc	99 10 296 0             # C:\Program Files (x86)\Microsoft Visual Studio\2017\Community\VC\Tools\MSVC\14.16.27023\include\xutility:296:0
.seh_proc "?_Get_first@?$_Compressed_pair@V?$allocator@H@std@@V?$_Vector_val@U?$_Simple_types@H@std@@@2@$00@std@@QEBAAEBV?$allocator@H@2@XZ"
# %bb.0:
	push	rax
	.seh_stackalloc 8
	.seh_endprologue
	mov	qword ptr [rsp], rcx
	mov	rcx, qword ptr [rsp]
.Ltmp304:
	.cv_loc	99 10 297 0             # C:\Program Files (x86)\Microsoft Visual Studio\2017\Community\VC\Tools\MSVC\14.16.27023\include\xutility:297:0
	mov	rax, rcx
	pop	rcx
	ret
.Ltmp305:
.Lfunc_end99:
	.seh_handlerdata
	.section	.text,"xr",discard,"?_Get_first@?$_Compressed_pair@V?$allocator@H@std@@V?$_Vector_val@U?$_Simple_types@H@std@@@2@$00@std@@QEBAAEBV?$allocator@H@2@XZ"
	.seh_endproc
                                        # -- End function
	.def	 "??$_Get_size_of_n@$03@std@@YA_K_K@Z";
	.scl	2;
	.type	32;
	.endef
	.section	.text,"xr",discard,"??$_Get_size_of_n@$03@std@@YA_K_K@Z"
	.globl	"??$_Get_size_of_n@$03@std@@YA_K_K@Z" # -- Begin function ??$_Get_size_of_n@$03@std@@YA_K_K@Z
	.p2align	4, 0x90
"??$_Get_size_of_n@$03@std@@YA_K_K@Z":  # @"??$_Get_size_of_n@$03@std@@YA_K_K@Z"
.Lfunc_begin100:
	.cv_func_id 100
	.cv_loc	100 3 23 0              # C:\Program Files (x86)\Microsoft Visual Studio\2017\Community\VC\Tools\MSVC\14.16.27023\include\xmemory0:23:0
.seh_proc "??$_Get_size_of_n@$03@std@@YA_K_K@Z"
# %bb.0:
	sub	rsp, 24
	.seh_stackalloc 24
	.seh_endprologue
	mov	qword ptr [rsp + 16], rcx
.Ltmp306:
	.cv_loc	100 3 24 0              # C:\Program Files (x86)\Microsoft Visual Studio\2017\Community\VC\Tools\MSVC\14.16.27023\include\xmemory0:24:0
	movabs	rcx, 4611686018427387903
	mov	qword ptr [rsp + 8], rcx
	.cv_loc	100 3 25 0              # C:\Program Files (x86)\Microsoft Visual Studio\2017\Community\VC\Tools\MSVC\14.16.27023\include\xmemory0:25:0
	mov	rax, qword ptr [rsp + 16]
	shl	rax, 2
	mov	qword ptr [rsp], rax
	.cv_loc	100 3 26 0              # C:\Program Files (x86)\Microsoft Visual Studio\2017\Community\VC\Tools\MSVC\14.16.27023\include\xmemory0:26:0
	cmp	rcx, qword ptr [rsp + 16]
	jae	.LBB100_2
# %bb.1:
.Ltmp307:
	.cv_loc	100 3 29 0              # C:\Program Files (x86)\Microsoft Visual Studio\2017\Community\VC\Tools\MSVC\14.16.27023\include\xmemory0:29:0
	mov	qword ptr [rsp], -1
.Ltmp308:
.LBB100_2:
	.cv_loc	100 3 32 0              # C:\Program Files (x86)\Microsoft Visual Studio\2017\Community\VC\Tools\MSVC\14.16.27023\include\xmemory0:32:0
	mov	rax, qword ptr [rsp]
	add	rsp, 24
	ret
.Ltmp309:
.Lfunc_end100:
	.seh_handlerdata
	.section	.text,"xr",discard,"??$_Get_size_of_n@$03@std@@YA_K_K@Z"
	.seh_endproc
                                        # -- End function
	.def	 "??$_Distance1@PEBH@std@@YA_JPEBH0Urandom_access_iterator_tag@0@@Z";
	.scl	2;
	.type	32;
	.endef
	.section	.text,"xr",discard,"??$_Distance1@PEBH@std@@YA_JPEBH0Urandom_access_iterator_tag@0@@Z"
	.globl	"??$_Distance1@PEBH@std@@YA_JPEBH0Urandom_access_iterator_tag@0@@Z" # -- Begin function ??$_Distance1@PEBH@std@@YA_JPEBH0Urandom_access_iterator_tag@0@@Z
	.p2align	4, 0x90
"??$_Distance1@PEBH@std@@YA_JPEBH0Urandom_access_iterator_tag@0@@Z": # @"??$_Distance1@PEBH@std@@YA_JPEBH0Urandom_access_iterator_tag@0@@Z"
.Lfunc_begin101:
	.cv_func_id 101
	.cv_loc	101 10 1234 0           # C:\Program Files (x86)\Microsoft Visual Studio\2017\Community\VC\Tools\MSVC\14.16.27023\include\xutility:1234:0
.seh_proc "??$_Distance1@PEBH@std@@YA_JPEBH0Urandom_access_iterator_tag@0@@Z"
# %bb.0:
	sub	rsp, 24
	.seh_stackalloc 24
	.seh_endprologue
	mov	byte ptr [rsp + 16], r8b
	mov	qword ptr [rsp + 8], rdx
	mov	qword ptr [rsp], rcx
.Ltmp310:
	.cv_loc	101 10 1235 0           # C:\Program Files (x86)\Microsoft Visual Studio\2017\Community\VC\Tools\MSVC\14.16.27023\include\xutility:1235:0
	mov	rcx, qword ptr [rsp + 8]
	mov	rdx, qword ptr [rsp]
	sub	rcx, rdx
	sar	rcx, 2
	mov	rax, rcx
	add	rsp, 24
	ret
.Ltmp311:
.Lfunc_end101:
	.seh_handlerdata
	.section	.text,"xr",discard,"??$_Distance1@PEBH@std@@YA_JPEBH0Urandom_access_iterator_tag@0@@Z"
	.seh_endproc
                                        # -- End function
	.def	 "??$_Uninitialized_copy@PEBHPEAHV?$allocator@H@std@@@std@@YAPEAHQEBH0PEAHAEAV?$allocator@H@0@@Z";
	.scl	2;
	.type	32;
	.endef
	.section	.text,"xr",discard,"??$_Uninitialized_copy@PEBHPEAHV?$allocator@H@std@@@std@@YAPEAHQEBH0PEAHAEAV?$allocator@H@0@@Z"
	.globl	"??$_Uninitialized_copy@PEBHPEAHV?$allocator@H@std@@@std@@YAPEAHQEBH0PEAHAEAV?$allocator@H@0@@Z" # -- Begin function ??$_Uninitialized_copy@PEBHPEAHV?$allocator@H@std@@@std@@YAPEAHQEBH0PEAHAEAV?$allocator@H@0@@Z
	.p2align	4, 0x90
"??$_Uninitialized_copy@PEBHPEAHV?$allocator@H@std@@@std@@YAPEAHQEBH0PEAHAEAV?$allocator@H@0@@Z": # @"??$_Uninitialized_copy@PEBHPEAHV?$allocator@H@std@@@std@@YAPEAHQEBH0PEAHAEAV?$allocator@H@0@@Z"
.Lfunc_begin102:
	.cv_func_id 102
	.cv_file	15 "C:\\Program Files (x86)\\Microsoft Visual Studio\\2017\\Community\\VC\\Tools\\MSVC\\14.16.27023\\include\\xmemory" "845C7EE7A72CC1DC0D3D28310F1C2156" 1
	.cv_loc	102 15 209 0            # C:\Program Files (x86)\Microsoft Visual Studio\2017\Community\VC\Tools\MSVC\14.16.27023\include\xmemory:209:0
.seh_proc "??$_Uninitialized_copy@PEBHPEAHV?$allocator@H@std@@@std@@YAPEAHQEBH0PEAHAEAV?$allocator@H@0@@Z"
# %bb.0:
	sub	rsp, 136
	.seh_stackalloc 136
	.seh_endprologue
	mov	rax, qword ptr [rip + __security_cookie]
	xor	rax, rsp
	mov	qword ptr [rsp + 128], rax
	mov	qword ptr [rsp + 80], r9
	mov	qword ptr [rsp + 120], r8
	mov	qword ptr [rsp + 72], rdx
	mov	qword ptr [rsp + 64], rcx
.Ltmp312:
	.cv_loc	102 15 211 0            # C:\Program Files (x86)\Microsoft Visual Studio\2017\Community\VC\Tools\MSVC\14.16.27023\include\xmemory:211:0
	mov	rcx, qword ptr [rsp + 64]
	call	"??$_Get_unwrapped@$$CBH@std@@YAPEBHQEBH@Z"
	mov	qword ptr [rsp + 112], rax
	.cv_loc	102 15 212 0            # C:\Program Files (x86)\Microsoft Visual Studio\2017\Community\VC\Tools\MSVC\14.16.27023\include\xmemory:212:0
	mov	rcx, qword ptr [rsp + 72]
	call	"??$_Get_unwrapped@$$CBH@std@@YAPEBHQEBH@Z"
	mov	qword ptr [rsp + 104], rax
	.cv_loc	102 15 213 0            # C:\Program Files (x86)\Microsoft Visual Studio\2017\Community\VC\Tools\MSVC\14.16.27023\include\xmemory:213:0
	lea	rcx, [rsp + 112]
	lea	rdx, [rsp + 104]
	call	"??$_Idl_distance@PEBHPEBH@std@@YA?A?<auto>@@AEBQEBH0@Z"
	mov	rcx, qword ptr [rsp + 120]
	mov	rdx, rax
	call	"??$_Get_unwrapped_n@H_J$0A@@std@@YAPEAHQEAH_J@Z"
	mov	qword ptr [rsp + 96], rax
	.cv_loc	102 15 214 0            # C:\Program Files (x86)\Microsoft Visual Studio\2017\Community\VC\Tools\MSVC\14.16.27023\include\xmemory:214:0
	lea	rcx, [rsp + 88]
	lea	rdx, [rsp + 112]
	lea	r8, [rsp + 96]
	call	"??$_Ptr_copy_cat@$$CBHH@std@@YA?AU_Really_trivial_ptr_iterator_tag@0@AEBQEBHAEBQEAH@Z"
	mov	r9, qword ptr [rsp + 80]
	mov	r8, qword ptr [rsp + 96]
	mov	rdx, qword ptr [rsp + 104]
	mov	rcx, qword ptr [rsp + 112]
	mov	r10b, byte ptr [rsp + 88]
	mov	r11b, byte ptr [rsp + 56]
	mov	byte ptr [rsp + 32], r10b
	mov	byte ptr [rsp + 40], r11b
	call	"??$_Uninitialized_copy_al_unchecked@$$CBHHV?$allocator@H@std@@@std@@YAPEAHQEBH0QEAHAEAV?$allocator@H@0@U_Really_trivial_ptr_iterator_tag@0@U?$integral_constant@_N$00@0@@Z"
	lea	rcx, [rsp + 120]
	mov	rdx, rax
	call	"??$_Seek_wrapped@H@std@@YAXAEAPEAHQEAH@Z"
	.cv_loc	102 15 219 0            # C:\Program Files (x86)\Microsoft Visual Studio\2017\Community\VC\Tools\MSVC\14.16.27023\include\xmemory:219:0
	mov	rax, qword ptr [rsp + 120]
	mov	rcx, qword ptr [rsp + 128]
	xor	rcx, rsp
	mov	qword ptr [rsp + 48], rax # 8-byte Spill
	call	__security_check_cookie
	mov	rax, qword ptr [rsp + 48] # 8-byte Reload
	add	rsp, 136
	ret
.Ltmp313:
.Lfunc_end102:
	.seh_handlerdata
	.section	.text,"xr",discard,"??$_Uninitialized_copy@PEBHPEAHV?$allocator@H@std@@@std@@YAPEAHQEBH0PEAHAEAV?$allocator@H@0@@Z"
	.seh_endproc
                                        # -- End function
	.def	 "??$_Get_unwrapped@$$CBH@std@@YAPEBHQEBH@Z";
	.scl	2;
	.type	32;
	.endef
	.section	.text,"xr",discard,"??$_Get_unwrapped@$$CBH@std@@YAPEBHQEBH@Z"
	.globl	"??$_Get_unwrapped@$$CBH@std@@YAPEBHQEBH@Z" # -- Begin function ??$_Get_unwrapped@$$CBH@std@@YAPEBHQEBH@Z
	.p2align	4, 0x90
"??$_Get_unwrapped@$$CBH@std@@YAPEBHQEBH@Z": # @"??$_Get_unwrapped@$$CBH@std@@YAPEBHQEBH@Z"
.Lfunc_begin103:
	.cv_func_id 103
	.cv_loc	103 10 662 0            # C:\Program Files (x86)\Microsoft Visual Studio\2017\Community\VC\Tools\MSVC\14.16.27023\include\xutility:662:0
.seh_proc "??$_Get_unwrapped@$$CBH@std@@YAPEBHQEBH@Z"
# %bb.0:
	push	rax
	.seh_stackalloc 8
	.seh_endprologue
	mov	qword ptr [rsp], rcx
.Ltmp314:
	.cv_loc	103 10 663 0            # C:\Program Files (x86)\Microsoft Visual Studio\2017\Community\VC\Tools\MSVC\14.16.27023\include\xutility:663:0
	mov	rax, qword ptr [rsp]
	pop	rcx
	ret
.Ltmp315:
.Lfunc_end103:
	.seh_handlerdata
	.section	.text,"xr",discard,"??$_Get_unwrapped@$$CBH@std@@YAPEBHQEBH@Z"
	.seh_endproc
                                        # -- End function
	.def	 "??$_Get_unwrapped_n@H_J$0A@@std@@YAPEAHQEAH_J@Z";
	.scl	2;
	.type	32;
	.endef
	.section	.text,"xr",discard,"??$_Get_unwrapped_n@H_J$0A@@std@@YAPEAHQEAH_J@Z"
	.globl	"??$_Get_unwrapped_n@H_J$0A@@std@@YAPEAHQEAH_J@Z" # -- Begin function ??$_Get_unwrapped_n@H_J$0A@@std@@YAPEAHQEAH_J@Z
	.p2align	4, 0x90
"??$_Get_unwrapped_n@H_J$0A@@std@@YAPEAHQEAH_J@Z": # @"??$_Get_unwrapped_n@H_J$0A@@std@@YAPEAHQEAH_J@Z"
.Lfunc_begin104:
	.cv_func_id 104
	.cv_loc	104 10 808 0            # C:\Program Files (x86)\Microsoft Visual Studio\2017\Community\VC\Tools\MSVC\14.16.27023\include\xutility:808:0
.seh_proc "??$_Get_unwrapped_n@H_J$0A@@std@@YAPEAHQEAH_J@Z"
# %bb.0:
	sub	rsp, 16
	.seh_stackalloc 16
	.seh_endprologue
	mov	qword ptr [rsp + 8], rdx
	mov	qword ptr [rsp], rcx
.Ltmp316:
	.cv_loc	104 10 809 0            # C:\Program Files (x86)\Microsoft Visual Studio\2017\Community\VC\Tools\MSVC\14.16.27023\include\xutility:809:0
	mov	rax, qword ptr [rsp]
	add	rsp, 16
	ret
.Ltmp317:
.Lfunc_end104:
	.seh_handlerdata
	.section	.text,"xr",discard,"??$_Get_unwrapped_n@H_J$0A@@std@@YAPEAHQEAH_J@Z"
	.seh_endproc
                                        # -- End function
	.def	 "??$_Idl_distance@PEBHPEBH@std@@YA?A?<auto>@@AEBQEBH0@Z";
	.scl	2;
	.type	32;
	.endef
	.section	.text,"xr",discard,"??$_Idl_distance@PEBHPEBH@std@@YA?A?<auto>@@AEBQEBH0@Z"
	.globl	"??$_Idl_distance@PEBHPEBH@std@@YA?A?<auto>@@AEBQEBH0@Z" # -- Begin function ??$_Idl_distance@PEBHPEBH@std@@YA?A?<auto>@@AEBQEBH0@Z
	.p2align	4, 0x90
"??$_Idl_distance@PEBHPEBH@std@@YA?A?<auto>@@AEBQEBH0@Z": # @"??$_Idl_distance@PEBHPEBH@std@@YA?A?<auto>@@AEBQEBH0@Z"
.Lfunc_begin105:
	.cv_func_id 105
	.cv_loc	105 10 974 0            # C:\Program Files (x86)\Microsoft Visual Studio\2017\Community\VC\Tools\MSVC\14.16.27023\include\xutility:974:0
.seh_proc "??$_Idl_distance@PEBHPEBH@std@@YA?A?<auto>@@AEBQEBH0@Z"
# %bb.0:
	sub	rsp, 56
	.seh_stackalloc 56
	.seh_endprologue
	mov	qword ptr [rsp + 48], rdx
	mov	qword ptr [rsp + 40], rcx
.Ltmp318:
	.cv_loc	105 10 975 0            # C:\Program Files (x86)\Microsoft Visual Studio\2017\Community\VC\Tools\MSVC\14.16.27023\include\xutility:975:0
	mov	rdx, qword ptr [rsp + 48]
	mov	rcx, qword ptr [rsp + 40]
	mov	r8b, byte ptr [rsp + 32]
	call	"??$_Idl_distance1@PEBHPEBH@std@@YA_JAEBQEBH0Urandom_access_iterator_tag@0@@Z"
	nop
	add	rsp, 56
	ret
.Ltmp319:
.Lfunc_end105:
	.seh_handlerdata
	.section	.text,"xr",discard,"??$_Idl_distance@PEBHPEBH@std@@YA?A?<auto>@@AEBQEBH0@Z"
	.seh_endproc
                                        # -- End function
	.def	 "??$_Seek_wrapped@H@std@@YAXAEAPEAHQEAH@Z";
	.scl	2;
	.type	32;
	.endef
	.section	.text,"xr",discard,"??$_Seek_wrapped@H@std@@YAXAEAPEAHQEAH@Z"
	.globl	"??$_Seek_wrapped@H@std@@YAXAEAPEAHQEAH@Z" # -- Begin function ??$_Seek_wrapped@H@std@@YAXAEAPEAHQEAH@Z
	.p2align	4, 0x90
"??$_Seek_wrapped@H@std@@YAXAEAPEAHQEAH@Z": # @"??$_Seek_wrapped@H@std@@YAXAEAPEAHQEAH@Z"
.Lfunc_begin106:
	.cv_func_id 106
	.cv_loc	106 10 871 0            # C:\Program Files (x86)\Microsoft Visual Studio\2017\Community\VC\Tools\MSVC\14.16.27023\include\xutility:871:0
.seh_proc "??$_Seek_wrapped@H@std@@YAXAEAPEAHQEAH@Z"
# %bb.0:
	sub	rsp, 16
	.seh_stackalloc 16
	.seh_endprologue
	mov	qword ptr [rsp + 8], rdx
	mov	qword ptr [rsp], rcx
.Ltmp320:
	.cv_loc	106 10 872 0            # C:\Program Files (x86)\Microsoft Visual Studio\2017\Community\VC\Tools\MSVC\14.16.27023\include\xutility:872:0
	mov	rcx, qword ptr [rsp + 8]
	mov	rdx, qword ptr [rsp]
	mov	qword ptr [rdx], rcx
	.cv_loc	106 10 873 0            # C:\Program Files (x86)\Microsoft Visual Studio\2017\Community\VC\Tools\MSVC\14.16.27023\include\xutility:873:0
	add	rsp, 16
	ret
.Ltmp321:
.Lfunc_end106:
	.seh_handlerdata
	.section	.text,"xr",discard,"??$_Seek_wrapped@H@std@@YAXAEAPEAHQEAH@Z"
	.seh_endproc
                                        # -- End function
	.def	 "??$_Uninitialized_copy_al_unchecked@$$CBHHV?$allocator@H@std@@@std@@YAPEAHQEBH0QEAHAEAV?$allocator@H@0@U_Really_trivial_ptr_iterator_tag@0@U?$integral_constant@_N$00@0@@Z";
	.scl	2;
	.type	32;
	.endef
	.section	.text,"xr",discard,"??$_Uninitialized_copy_al_unchecked@$$CBHHV?$allocator@H@std@@@std@@YAPEAHQEBH0QEAHAEAV?$allocator@H@0@U_Really_trivial_ptr_iterator_tag@0@U?$integral_constant@_N$00@0@@Z"
	.globl	"??$_Uninitialized_copy_al_unchecked@$$CBHHV?$allocator@H@std@@@std@@YAPEAHQEBH0QEAHAEAV?$allocator@H@0@U_Really_trivial_ptr_iterator_tag@0@U?$integral_constant@_N$00@0@@Z" # -- Begin function ??$_Uninitialized_copy_al_unchecked@$$CBHHV?$allocator@H@std@@@std@@YAPEAHQEBH0QEAHAEAV?$allocator@H@0@U_Really_trivial_ptr_iterator_tag@0@U?$integral_constant@_N$00@0@@Z
	.p2align	4, 0x90
"??$_Uninitialized_copy_al_unchecked@$$CBHHV?$allocator@H@std@@@std@@YAPEAHQEBH0QEAHAEAV?$allocator@H@0@U_Really_trivial_ptr_iterator_tag@0@U?$integral_constant@_N$00@0@@Z": # @"??$_Uninitialized_copy_al_unchecked@$$CBHHV?$allocator@H@std@@@std@@YAPEAHQEBH0QEAHAEAV?$allocator@H@0@U_Really_trivial_ptr_iterator_tag@0@U?$integral_constant@_N$00@0@@Z"
.Lfunc_begin107:
	.cv_func_id 107
	.cv_loc	107 15 201 0            # C:\Program Files (x86)\Microsoft Visual Studio\2017\Community\VC\Tools\MSVC\14.16.27023\include\xmemory:201:0
.seh_proc "??$_Uninitialized_copy_al_unchecked@$$CBHHV?$allocator@H@std@@@std@@YAPEAHQEBH0QEAHAEAV?$allocator@H@0@U_Really_trivial_ptr_iterator_tag@0@U?$integral_constant@_N$00@0@@Z"
# %bb.0:
	sub	rsp, 88
	.seh_stackalloc 88
	.seh_endprologue
	mov	al, byte ptr [rsp + 136]
	mov	r10b, byte ptr [rsp + 128]
	mov	byte ptr [rsp + 80], r10b
	mov	byte ptr [rsp + 72], al
	mov	qword ptr [rsp + 64], r9
	mov	qword ptr [rsp + 56], r8
	mov	qword ptr [rsp + 48], rdx
	mov	qword ptr [rsp + 40], rcx
.Ltmp322:
	.cv_loc	107 15 202 0            # C:\Program Files (x86)\Microsoft Visual Studio\2017\Community\VC\Tools\MSVC\14.16.27023\include\xmemory:202:0
	mov	r8, qword ptr [rsp + 56]
	mov	rdx, qword ptr [rsp + 48]
	mov	rcx, qword ptr [rsp + 40]
	call	"??$_Copy_memmove@PEBHPEAH@std@@YAPEAHPEBH0PEAH@Z"
	nop
	add	rsp, 88
	ret
.Ltmp323:
.Lfunc_end107:
	.seh_handlerdata
	.section	.text,"xr",discard,"??$_Uninitialized_copy_al_unchecked@$$CBHHV?$allocator@H@std@@@std@@YAPEAHQEBH0QEAHAEAV?$allocator@H@0@U_Really_trivial_ptr_iterator_tag@0@U?$integral_constant@_N$00@0@@Z"
	.seh_endproc
                                        # -- End function
	.def	 "??$_Ptr_copy_cat@$$CBHH@std@@YA?AU_Really_trivial_ptr_iterator_tag@0@AEBQEBHAEBQEAH@Z";
	.scl	2;
	.type	32;
	.endef
	.section	.text,"xr",discard,"??$_Ptr_copy_cat@$$CBHH@std@@YA?AU_Really_trivial_ptr_iterator_tag@0@AEBQEBHAEBQEAH@Z"
	.globl	"??$_Ptr_copy_cat@$$CBHH@std@@YA?AU_Really_trivial_ptr_iterator_tag@0@AEBQEBHAEBQEAH@Z" # -- Begin function ??$_Ptr_copy_cat@$$CBHH@std@@YA?AU_Really_trivial_ptr_iterator_tag@0@AEBQEBHAEBQEAH@Z
	.p2align	4, 0x90
"??$_Ptr_copy_cat@$$CBHH@std@@YA?AU_Really_trivial_ptr_iterator_tag@0@AEBQEBHAEBQEAH@Z": # @"??$_Ptr_copy_cat@$$CBHH@std@@YA?AU_Really_trivial_ptr_iterator_tag@0@AEBQEBHAEBQEAH@Z"
.Lfunc_begin108:
	.cv_func_id 108
	.cv_loc	108 10 1069 0           # C:\Program Files (x86)\Microsoft Visual Studio\2017\Community\VC\Tools\MSVC\14.16.27023\include\xutility:1069:0
.seh_proc "??$_Ptr_copy_cat@$$CBHH@std@@YA?AU_Really_trivial_ptr_iterator_tag@0@AEBQEBHAEBQEAH@Z"
# %bb.0:
	sub	rsp, 16
	.seh_stackalloc 16
	.seh_endprologue
	mov	qword ptr [rsp + 8], r8
	mov	qword ptr [rsp], rdx
.Ltmp324:
	.cv_loc	108 10 1070 0           # C:\Program Files (x86)\Microsoft Visual Studio\2017\Community\VC\Tools\MSVC\14.16.27023\include\xutility:1070:0
	mov	rax, rcx
	add	rsp, 16
	ret
.Ltmp325:
.Lfunc_end108:
	.seh_handlerdata
	.section	.text,"xr",discard,"??$_Ptr_copy_cat@$$CBHH@std@@YA?AU_Really_trivial_ptr_iterator_tag@0@AEBQEBHAEBQEAH@Z"
	.seh_endproc
                                        # -- End function
	.def	 "??$_Idl_distance1@PEBHPEBH@std@@YA_JAEBQEBH0Urandom_access_iterator_tag@0@@Z";
	.scl	2;
	.type	32;
	.endef
	.section	.text,"xr",discard,"??$_Idl_distance1@PEBHPEBH@std@@YA_JAEBQEBH0Urandom_access_iterator_tag@0@@Z"
	.globl	"??$_Idl_distance1@PEBHPEBH@std@@YA_JAEBQEBH0Urandom_access_iterator_tag@0@@Z" # -- Begin function ??$_Idl_distance1@PEBHPEBH@std@@YA_JAEBQEBH0Urandom_access_iterator_tag@0@@Z
	.p2align	4, 0x90
"??$_Idl_distance1@PEBHPEBH@std@@YA_JAEBQEBH0Urandom_access_iterator_tag@0@@Z": # @"??$_Idl_distance1@PEBHPEBH@std@@YA_JAEBQEBH0Urandom_access_iterator_tag@0@@Z"
.Lfunc_begin109:
	.cv_func_id 109
	.cv_loc	109 10 967 0            # C:\Program Files (x86)\Microsoft Visual Studio\2017\Community\VC\Tools\MSVC\14.16.27023\include\xutility:967:0
.seh_proc "??$_Idl_distance1@PEBHPEBH@std@@YA_JAEBQEBH0Urandom_access_iterator_tag@0@@Z"
# %bb.0:
	sub	rsp, 24
	.seh_stackalloc 24
	.seh_endprologue
	mov	byte ptr [rsp + 16], r8b
	mov	qword ptr [rsp + 8], rdx
	mov	qword ptr [rsp], rcx
.Ltmp326:
	.cv_loc	109 10 968 0            # C:\Program Files (x86)\Microsoft Visual Studio\2017\Community\VC\Tools\MSVC\14.16.27023\include\xutility:968:0
	mov	rcx, qword ptr [rsp + 8]
	mov	rcx, qword ptr [rcx]
	mov	rdx, qword ptr [rsp]
	mov	rdx, qword ptr [rdx]
	sub	rcx, rdx
	sar	rcx, 2
	mov	rax, rcx
	add	rsp, 24
	ret
.Ltmp327:
.Lfunc_end109:
	.seh_handlerdata
	.section	.text,"xr",discard,"??$_Idl_distance1@PEBHPEBH@std@@YA_JAEBQEBH0Urandom_access_iterator_tag@0@@Z"
	.seh_endproc
                                        # -- End function
	.def	 "??$_Copy_memmove@PEBHPEAH@std@@YAPEAHPEBH0PEAH@Z";
	.scl	2;
	.type	32;
	.endef
	.section	.text,"xr",discard,"??$_Copy_memmove@PEBHPEAH@std@@YAPEAHPEBH0PEAH@Z"
	.globl	"??$_Copy_memmove@PEBHPEAH@std@@YAPEAHPEBH0PEAH@Z" # -- Begin function ??$_Copy_memmove@PEBHPEAH@std@@YAPEAHPEBH0PEAH@Z
	.p2align	4, 0x90
"??$_Copy_memmove@PEBHPEAH@std@@YAPEAHPEBH0PEAH@Z": # @"??$_Copy_memmove@PEBHPEAH@std@@YAPEAHPEBH0PEAH@Z"
.Lfunc_begin110:
	.cv_func_id 110
	.cv_loc	110 10 2398 0           # C:\Program Files (x86)\Microsoft Visual Studio\2017\Community\VC\Tools\MSVC\14.16.27023\include\xutility:2398:0
.seh_proc "??$_Copy_memmove@PEBHPEAH@std@@YAPEAHPEBH0PEAH@Z"
# %bb.0:
	sub	rsp, 104
	.seh_stackalloc 104
	.seh_endprologue
	mov	qword ptr [rsp + 96], r8
	mov	qword ptr [rsp + 88], rdx
	mov	qword ptr [rsp + 80], rcx
.Ltmp328:
	.cv_loc	110 10 2399 0           # C:\Program Files (x86)\Microsoft Visual Studio\2017\Community\VC\Tools\MSVC\14.16.27023\include\xutility:2399:0
	mov	rcx, qword ptr [rsp + 80]
	mov	qword ptr [rsp + 72], rcx
	.cv_loc	110 10 2400 0           # C:\Program Files (x86)\Microsoft Visual Studio\2017\Community\VC\Tools\MSVC\14.16.27023\include\xutility:2400:0
	mov	rcx, qword ptr [rsp + 88]
	mov	qword ptr [rsp + 64], rcx
	.cv_loc	110 10 2401 0           # C:\Program Files (x86)\Microsoft Visual Studio\2017\Community\VC\Tools\MSVC\14.16.27023\include\xutility:2401:0
	mov	rcx, qword ptr [rsp + 96]
	mov	qword ptr [rsp + 56], rcx
	.cv_loc	110 10 2402 0           # C:\Program Files (x86)\Microsoft Visual Studio\2017\Community\VC\Tools\MSVC\14.16.27023\include\xutility:2402:0
	mov	rcx, qword ptr [rsp + 64]
	mov	rdx, qword ptr [rsp + 72]
	sub	rcx, rdx
	mov	qword ptr [rsp + 48], rcx
	.cv_loc	110 10 2403 0           # C:\Program Files (x86)\Microsoft Visual Studio\2017\Community\VC\Tools\MSVC\14.16.27023\include\xutility:2403:0
	mov	rcx, qword ptr [rsp + 56]
	mov	rdx, qword ptr [rsp + 72]
	mov	r8, qword ptr [rsp + 48]
	call	memmove
	.cv_loc	110 10 2404 0           # C:\Program Files (x86)\Microsoft Visual Studio\2017\Community\VC\Tools\MSVC\14.16.27023\include\xutility:2404:0
	mov	rcx, qword ptr [rsp + 56]
	add	rcx, qword ptr [rsp + 48]
	mov	qword ptr [rsp + 40], rax # 8-byte Spill
	mov	rax, rcx
	add	rsp, 104
	ret
.Ltmp329:
.Lfunc_end110:
	.seh_handlerdata
	.section	.text,"xr",discard,"??$_Copy_memmove@PEBHPEAH@std@@YAPEAHPEBH0PEAH@Z"
	.seh_endproc
                                        # -- End function
	.def	 "?_Orphan_all@?$_Vector_alloc@U?$_Vec_base_types@HV?$allocator@H@std@@@std@@@std@@QEAAXXZ";
	.scl	2;
	.type	32;
	.endef
	.section	.text,"xr",discard,"?_Orphan_all@?$_Vector_alloc@U?$_Vec_base_types@HV?$allocator@H@std@@@std@@@std@@QEAAXXZ"
	.globl	"?_Orphan_all@?$_Vector_alloc@U?$_Vec_base_types@HV?$allocator@H@std@@@std@@@std@@QEAAXXZ" # -- Begin function ?_Orphan_all@?$_Vector_alloc@U?$_Vec_base_types@HV?$allocator@H@std@@@std@@@std@@QEAAXXZ
	.p2align	4, 0x90
"?_Orphan_all@?$_Vector_alloc@U?$_Vec_base_types@HV?$allocator@H@std@@@std@@@std@@QEAAXXZ": # @"?_Orphan_all@?$_Vector_alloc@U?$_Vec_base_types@HV?$allocator@H@std@@@std@@@std@@QEAAXXZ"
.Lfunc_begin111:
	.cv_func_id 111
	.cv_loc	111 4 534 0             # C:\Program Files (x86)\Microsoft Visual Studio\2017\Community\VC\Tools\MSVC\14.16.27023\include\vector:534:0
.seh_proc "?_Orphan_all@?$_Vector_alloc@U?$_Vec_base_types@HV?$allocator@H@std@@@std@@@std@@QEAAXXZ"
# %bb.0:
	sub	rsp, 40
	.seh_stackalloc 40
	.seh_endprologue
	mov	qword ptr [rsp + 32], rcx
	mov	rcx, qword ptr [rsp + 32]
.Ltmp330:
	.cv_loc	111 4 535 0             # C:\Program Files (x86)\Microsoft Visual Studio\2017\Community\VC\Tools\MSVC\14.16.27023\include\vector:535:0
	call	"?_Get_data@?$_Vector_alloc@U?$_Vec_base_types@HV?$allocator@H@std@@@std@@@std@@QEAAAEAV?$_Vector_val@U?$_Simple_types@H@std@@@2@XZ"
	mov	rcx, rax
	call	"?_Orphan_all@_Container_base12@std@@QEAAXXZ"
	.cv_loc	111 4 536 0             # C:\Program Files (x86)\Microsoft Visual Studio\2017\Community\VC\Tools\MSVC\14.16.27023\include\vector:536:0
	nop
	add	rsp, 40
	ret
.Ltmp331:
.Lfunc_end111:
	.seh_handlerdata
	.section	.text,"xr",discard,"?_Orphan_all@?$_Vector_alloc@U?$_Vec_base_types@HV?$allocator@H@std@@@std@@@std@@QEAAXXZ"
	.seh_endproc
                                        # -- End function
	.def	 "?_Destroy@?$vector@HV?$allocator@H@std@@@std@@AEAAXPEAH0@Z";
	.scl	2;
	.type	32;
	.endef
	.section	.text,"xr",discard,"?_Destroy@?$vector@HV?$allocator@H@std@@@std@@AEAAXPEAH0@Z"
	.globl	"?_Destroy@?$vector@HV?$allocator@H@std@@@std@@AEAAXPEAH0@Z" # -- Begin function ?_Destroy@?$vector@HV?$allocator@H@std@@@std@@AEAAXPEAH0@Z
	.p2align	4, 0x90
"?_Destroy@?$vector@HV?$allocator@H@std@@@std@@AEAAXPEAH0@Z": # @"?_Destroy@?$vector@HV?$allocator@H@std@@@std@@AEAAXPEAH0@Z"
.Lfunc_begin112:
	.cv_func_id 112
	.cv_loc	112 4 1848 0            # C:\Program Files (x86)\Microsoft Visual Studio\2017\Community\VC\Tools\MSVC\14.16.27023\include\vector:1848:0
.seh_proc "?_Destroy@?$vector@HV?$allocator@H@std@@@std@@AEAAXPEAH0@Z"
# %bb.0:
	sub	rsp, 56
	.seh_stackalloc 56
	.seh_endprologue
	mov	qword ptr [rsp + 48], r8
	mov	qword ptr [rsp + 40], rdx
	mov	qword ptr [rsp + 32], rcx
	mov	rcx, qword ptr [rsp + 32]
.Ltmp332:
	.cv_loc	112 4 1849 0            # C:\Program Files (x86)\Microsoft Visual Studio\2017\Community\VC\Tools\MSVC\14.16.27023\include\vector:1849:0
	call	"?_Getal@?$_Vector_alloc@U?$_Vec_base_types@HV?$allocator@H@std@@@std@@@std@@QEAAAEAV?$allocator@H@2@XZ"
	mov	rdx, qword ptr [rsp + 48]
	mov	rcx, qword ptr [rsp + 40]
	mov	r8, rax
	call	"??$_Destroy_range@V?$allocator@H@std@@@std@@YAXPEAH0AEAV?$allocator@H@0@@Z"
	.cv_loc	112 4 1850 0            # C:\Program Files (x86)\Microsoft Visual Studio\2017\Community\VC\Tools\MSVC\14.16.27023\include\vector:1850:0
	nop
	add	rsp, 56
	ret
.Ltmp333:
.Lfunc_end112:
	.seh_handlerdata
	.section	.text,"xr",discard,"?_Destroy@?$vector@HV?$allocator@H@std@@@std@@AEAAXPEAH0@Z"
	.seh_endproc
                                        # -- End function
	.def	 "?deallocate@?$allocator@H@std@@QEAAXQEAH_K@Z";
	.scl	2;
	.type	32;
	.endef
	.section	.text,"xr",discard,"?deallocate@?$allocator@H@std@@QEAAXQEAH_K@Z"
	.globl	"?deallocate@?$allocator@H@std@@QEAAXQEAH_K@Z" # -- Begin function ?deallocate@?$allocator@H@std@@QEAAXQEAH_K@Z
	.p2align	4, 0x90
"?deallocate@?$allocator@H@std@@QEAAXQEAH_K@Z": # @"?deallocate@?$allocator@H@std@@QEAAXQEAH_K@Z"
.Lfunc_begin113:
	.cv_func_id 113
	.cv_loc	113 3 990 0             # C:\Program Files (x86)\Microsoft Visual Studio\2017\Community\VC\Tools\MSVC\14.16.27023\include\xmemory0:990:0
.seh_proc "?deallocate@?$allocator@H@std@@QEAAXQEAH_K@Z"
# %bb.0:
	sub	rsp, 72
	.seh_stackalloc 72
	.seh_endprologue
	mov	qword ptr [rsp + 64], r8
	mov	qword ptr [rsp + 56], rdx
	mov	qword ptr [rsp + 48], rcx
.Ltmp334:
	.cv_loc	113 3 992 0             # C:\Program Files (x86)\Microsoft Visual Studio\2017\Community\VC\Tools\MSVC\14.16.27023\include\xmemory0:992:0
	mov	rcx, qword ptr [rsp + 64]
	shl	rcx, 2
	mov	rdx, qword ptr [rsp + 56]
	mov	qword ptr [rsp + 40], rcx # 8-byte Spill
	mov	rcx, rdx
	mov	rdx, qword ptr [rsp + 40] # 8-byte Reload
	call	"??$_Deallocate@$0BA@$0A@@std@@YAXPEAX_K@Z"
	.cv_loc	113 3 993 0             # C:\Program Files (x86)\Microsoft Visual Studio\2017\Community\VC\Tools\MSVC\14.16.27023\include\xmemory0:993:0
	nop
	add	rsp, 72
	ret
.Ltmp335:
.Lfunc_end113:
	.seh_handlerdata
	.section	.text,"xr",discard,"?deallocate@?$allocator@H@std@@QEAAXQEAH_K@Z"
	.seh_endproc
                                        # -- End function
	.def	 "?capacity@?$vector@HV?$allocator@H@std@@@std@@QEBA_KXZ";
	.scl	2;
	.type	32;
	.endef
	.section	.text,"xr",discard,"?capacity@?$vector@HV?$allocator@H@std@@@std@@QEBA_KXZ"
	.globl	"?capacity@?$vector@HV?$allocator@H@std@@@std@@QEBA_KXZ" # -- Begin function ?capacity@?$vector@HV?$allocator@H@std@@@std@@QEBA_KXZ
	.p2align	4, 0x90
"?capacity@?$vector@HV?$allocator@H@std@@@std@@QEBA_KXZ": # @"?capacity@?$vector@HV?$allocator@H@std@@@std@@QEBA_KXZ"
.Lfunc_begin114:
	.cv_func_id 114
	.cv_loc	114 4 1714 0            # C:\Program Files (x86)\Microsoft Visual Studio\2017\Community\VC\Tools\MSVC\14.16.27023\include\vector:1714:0
.seh_proc "?capacity@?$vector@HV?$allocator@H@std@@@std@@QEBA_KXZ"
# %bb.0:
	sub	rsp, 56
	.seh_stackalloc 56
	.seh_endprologue
	mov	qword ptr [rsp + 48], rcx
	mov	rcx, qword ptr [rsp + 48]
.Ltmp336:
	.cv_loc	114 4 1715 0            # C:\Program Files (x86)\Microsoft Visual Studio\2017\Community\VC\Tools\MSVC\14.16.27023\include\vector:1715:0
	mov	rax, rcx
	mov	qword ptr [rsp + 40], rcx # 8-byte Spill
	mov	rcx, rax
	call	"?_Myend@?$_Vector_alloc@U?$_Vec_base_types@HV?$allocator@H@std@@@std@@@std@@QEBAAEBQEAHXZ"
	mov	rax, qword ptr [rax]
	mov	rcx, qword ptr [rsp + 40] # 8-byte Reload
	mov	qword ptr [rsp + 32], rax # 8-byte Spill
	call	"?_Myfirst@?$_Vector_alloc@U?$_Vec_base_types@HV?$allocator@H@std@@@std@@@std@@QEBAAEBQEAHXZ"
	mov	rax, qword ptr [rax]
	mov	rcx, qword ptr [rsp + 32] # 8-byte Reload
	sub	rcx, rax
	sar	rcx, 2
	mov	rax, rcx
	add	rsp, 56
	ret
.Ltmp337:
.Lfunc_end114:
	.seh_handlerdata
	.section	.text,"xr",discard,"?capacity@?$vector@HV?$allocator@H@std@@@std@@QEBA_KXZ"
	.seh_endproc
                                        # -- End function
	.def	 "?_Orphan_all@_Container_base12@std@@QEAAXXZ";
	.scl	2;
	.type	32;
	.endef
	.section	.text,"xr",discard,"?_Orphan_all@_Container_base12@std@@QEAAXXZ"
	.globl	"?_Orphan_all@_Container_base12@std@@QEAAXXZ" # -- Begin function ?_Orphan_all@_Container_base12@std@@QEAAXXZ
	.p2align	4, 0x90
"?_Orphan_all@_Container_base12@std@@QEAAXXZ": # @"?_Orphan_all@_Container_base12@std@@QEAAXXZ"
.Lfunc_begin115:
	.cv_func_id 115
	.cv_loc	115 10 214 0            # C:\Program Files (x86)\Microsoft Visual Studio\2017\Community\VC\Tools\MSVC\14.16.27023\include\xutility:214:0
.seh_proc "?_Orphan_all@_Container_base12@std@@QEAAXXZ"
	.seh_handler __CxxFrameHandler3, @unwind, @except
# %bb.0:
	push	rbp
	.seh_pushreg 5
	sub	rsp, 80
	.seh_stackalloc 80
	lea	rbp, [rsp + 80]
	.seh_setframe 5, 80
	.seh_endprologue
	mov	qword ptr [rbp - 8], -2
	mov	qword ptr [rbp - 16], rcx
	mov	rcx, qword ptr [rbp - 16]
.Ltmp340:
	.cv_loc	115 10 216 0            # C:\Program Files (x86)\Microsoft Visual Studio\2017\Community\VC\Tools\MSVC\14.16.27023\include\xutility:216:0
	cmp	qword ptr [rcx], 0
	mov	qword ptr [rbp - 40], rcx # 8-byte Spill
	je	.LBB115_6
# %bb.1:
	.cv_loc	115 10 218 0            # C:\Program Files (x86)\Microsoft Visual Studio\2017\Community\VC\Tools\MSVC\14.16.27023\include\xutility:218:0
.Ltmp338:
.Ltmp341:
	mov	rax, qword ptr [rip + "__imp_??0_Lockit@std@@QEAA@H@Z"]
	lea	rcx, [rbp - 24]
	mov	edx, 3
	call	rax
.Ltmp339:
	mov	qword ptr [rbp - 48], rax # 8-byte Spill
	jmp	.LBB115_2
.LBB115_2:
.Ltmp342:
	.cv_loc	115 10 220 0            # C:\Program Files (x86)\Microsoft Visual Studio\2017\Community\VC\Tools\MSVC\14.16.27023\include\xutility:220:0
	mov	rax, qword ptr [rbp - 40] # 8-byte Reload
	mov	rcx, qword ptr [rax]
	add	rcx, 8
	mov	qword ptr [rbp - 32], rcx
.LBB115_3:                              # =>This Inner Loop Header: Depth=1
	mov	rax, qword ptr [rbp - 32]
	cmp	qword ptr [rax], 0
	je	.LBB115_5
# %bb.4:                                #   in Loop: Header=BB115_3 Depth=1
.Ltmp343:
	.cv_loc	115 10 222 0            # C:\Program Files (x86)\Microsoft Visual Studio\2017\Community\VC\Tools\MSVC\14.16.27023\include\xutility:222:0
	mov	rax, qword ptr [rbp - 32]
	mov	rax, qword ptr [rax]
	mov	qword ptr [rax], 0
	.cv_loc	115 10 221 0            # C:\Program Files (x86)\Microsoft Visual Studio\2017\Community\VC\Tools\MSVC\14.16.27023\include\xutility:221:0
	mov	rax, qword ptr [rbp - 32]
	mov	rax, qword ptr [rax]
	mov	rax, qword ptr [rax + 8]
	mov	rcx, qword ptr [rbp - 32]
	mov	qword ptr [rcx], rax
	.cv_loc	115 10 220 0            # C:\Program Files (x86)\Microsoft Visual Studio\2017\Community\VC\Tools\MSVC\14.16.27023\include\xutility:220:0
	jmp	.LBB115_3
.Ltmp344:
.LBB115_5:
	.cv_loc	115 10 223 0            # C:\Program Files (x86)\Microsoft Visual Studio\2017\Community\VC\Tools\MSVC\14.16.27023\include\xutility:223:0
	mov	rax, qword ptr [rbp - 40] # 8-byte Reload
	mov	rcx, qword ptr [rax]
	mov	qword ptr [rcx + 8], 0
	.cv_loc	115 10 224 0            # C:\Program Files (x86)\Microsoft Visual Studio\2017\Community\VC\Tools\MSVC\14.16.27023\include\xutility:224:0
	lea	rcx, [rbp - 24]
	call	qword ptr [rip + "__imp_??1_Lockit@std@@QEAA@XZ"]
.Ltmp345:
.LBB115_6:
	.cv_loc	115 10 226 0            # C:\Program Files (x86)\Microsoft Visual Studio\2017\Community\VC\Tools\MSVC\14.16.27023\include\xutility:226:0
	nop
	add	rsp, 80
	pop	rbp
	ret
	.seh_handlerdata
	.long	("$cppxdata$?_Orphan_all@_Container_base12@std@@QEAAXXZ")@IMGREL
	.section	.text,"xr",discard,"?_Orphan_all@_Container_base12@std@@QEAAXXZ"
	.seh_endproc
	.def	 "?dtor$7@?0??_Orphan_all@_Container_base12@std@@QEAAXXZ@4HA";
	.scl	3;
	.type	32;
	.endef
	.p2align	4, 0x90
"?dtor$7@?0??_Orphan_all@_Container_base12@std@@QEAAXXZ@4HA":
.seh_proc "?dtor$7@?0??_Orphan_all@_Container_base12@std@@QEAAXXZ@4HA"
.LBB115_7:
	mov	qword ptr [rsp + 16], rdx
	push	rbp
	.seh_pushreg 5
	sub	rsp, 32
	.seh_stackalloc 32
	lea	rbp, [rdx + 80]
	.seh_endprologue
.Ltmp346:
	.cv_loc	115 10 218 0            # C:\Program Files (x86)\Microsoft Visual Studio\2017\Community\VC\Tools\MSVC\14.16.27023\include\xutility:218:0
	mov	rax, qword ptr [rip + __imp___std_terminate]
	call	rax
	ud2
.Ltmp347:
.Lfunc_end115:
	.seh_handlerdata
	.section	.text,"xr",discard,"?_Orphan_all@_Container_base12@std@@QEAAXXZ"
	.seh_endproc
	.section	.xdata,"dr",associative,"?_Orphan_all@_Container_base12@std@@QEAAXXZ"
	.p2align	2
"$cppxdata$?_Orphan_all@_Container_base12@std@@QEAAXXZ":
	.long	429065506               # MagicNumber
	.long	1                       # MaxState
	.long	("$stateUnwindMap$?_Orphan_all@_Container_base12@std@@QEAAXXZ")@IMGREL # UnwindMap
	.long	0                       # NumTryBlocks
	.long	0                       # TryBlockMap
	.long	3                       # IPMapEntries
	.long	("$ip2state$?_Orphan_all@_Container_base12@std@@QEAAXXZ")@IMGREL # IPToStateXData
	.long	72                      # UnwindHelp
	.long	0                       # ESTypeList
	.long	1                       # EHFlags
"$stateUnwindMap$?_Orphan_all@_Container_base12@std@@QEAAXXZ":
	.long	-1                      # ToState
	.long	"?dtor$7@?0??_Orphan_all@_Container_base12@std@@QEAAXXZ@4HA"@IMGREL # Action
"$ip2state$?_Orphan_all@_Container_base12@std@@QEAAXXZ":
	.long	.Lfunc_begin115@IMGREL  # IP
	.long	-1                      # ToState
	.long	.Ltmp338@IMGREL+1       # IP
	.long	0                       # ToState
	.long	.Ltmp339@IMGREL+1       # IP
	.long	-1                      # ToState
	.section	.text,"xr",discard,"?_Orphan_all@_Container_base12@std@@QEAAXXZ"
                                        # -- End function
	.def	 "??$_Destroy_range@V?$allocator@H@std@@@std@@YAXPEAH0AEAV?$allocator@H@0@@Z";
	.scl	2;
	.type	32;
	.endef
	.section	.text,"xr",discard,"??$_Destroy_range@V?$allocator@H@std@@@std@@YAXPEAH0AEAV?$allocator@H@0@@Z"
	.globl	"??$_Destroy_range@V?$allocator@H@std@@@std@@YAXPEAH0AEAV?$allocator@H@0@@Z" # -- Begin function ??$_Destroy_range@V?$allocator@H@std@@@std@@YAXPEAH0AEAV?$allocator@H@0@@Z
	.p2align	4, 0x90
"??$_Destroy_range@V?$allocator@H@std@@@std@@YAXPEAH0AEAV?$allocator@H@0@@Z": # @"??$_Destroy_range@V?$allocator@H@std@@@std@@YAXPEAH0AEAV?$allocator@H@0@@Z"
.Lfunc_begin116:
	.cv_func_id 116
	.cv_loc	116 3 1154 0            # C:\Program Files (x86)\Microsoft Visual Studio\2017\Community\VC\Tools\MSVC\14.16.27023\include\xmemory0:1154:0
.seh_proc "??$_Destroy_range@V?$allocator@H@std@@@std@@YAXPEAH0AEAV?$allocator@H@0@@Z"
# %bb.0:
	sub	rsp, 72
	.seh_stackalloc 72
	.seh_endprologue
	mov	qword ptr [rsp + 64], r8
	mov	qword ptr [rsp + 56], rdx
	mov	qword ptr [rsp + 48], rcx
.Ltmp348:
	.cv_loc	116 3 1158 0            # C:\Program Files (x86)\Microsoft Visual Studio\2017\Community\VC\Tools\MSVC\14.16.27023\include\xmemory0:1158:0
	mov	r8, qword ptr [rsp + 64]
	mov	rdx, qword ptr [rsp + 56]
	mov	rcx, qword ptr [rsp + 48]
	mov	r9b, byte ptr [rsp + 40]
	call	"??$_Destroy_range1@V?$allocator@H@std@@@std@@YAXPEAH0AEAV?$allocator@H@0@U?$integral_constant@_N$00@0@@Z"
	.cv_loc	116 3 1161 0            # C:\Program Files (x86)\Microsoft Visual Studio\2017\Community\VC\Tools\MSVC\14.16.27023\include\xmemory0:1161:0
	nop
	add	rsp, 72
	ret
.Ltmp349:
.Lfunc_end116:
	.seh_handlerdata
	.section	.text,"xr",discard,"??$_Destroy_range@V?$allocator@H@std@@@std@@YAXPEAH0AEAV?$allocator@H@0@@Z"
	.seh_endproc
                                        # -- End function
	.def	 "??$_Destroy_range1@V?$allocator@H@std@@@std@@YAXPEAH0AEAV?$allocator@H@0@U?$integral_constant@_N$00@0@@Z";
	.scl	2;
	.type	32;
	.endef
	.section	.text,"xr",discard,"??$_Destroy_range1@V?$allocator@H@std@@@std@@YAXPEAH0AEAV?$allocator@H@0@U?$integral_constant@_N$00@0@@Z"
	.globl	"??$_Destroy_range1@V?$allocator@H@std@@@std@@YAXPEAH0AEAV?$allocator@H@0@U?$integral_constant@_N$00@0@@Z" # -- Begin function ??$_Destroy_range1@V?$allocator@H@std@@@std@@YAXPEAH0AEAV?$allocator@H@0@U?$integral_constant@_N$00@0@@Z
	.p2align	4, 0x90
"??$_Destroy_range1@V?$allocator@H@std@@@std@@YAXPEAH0AEAV?$allocator@H@0@U?$integral_constant@_N$00@0@@Z": # @"??$_Destroy_range1@V?$allocator@H@std@@@std@@YAXPEAH0AEAV?$allocator@H@0@U?$integral_constant@_N$00@0@@Z"
.Lfunc_begin117:
	.cv_func_id 117
	.cv_loc	117 3 1145 0            # C:\Program Files (x86)\Microsoft Visual Studio\2017\Community\VC\Tools\MSVC\14.16.27023\include\xmemory0:1145:0
.seh_proc "??$_Destroy_range1@V?$allocator@H@std@@@std@@YAXPEAH0AEAV?$allocator@H@0@U?$integral_constant@_N$00@0@@Z"
# %bb.0:
	sub	rsp, 32
	.seh_stackalloc 32
	.seh_endprologue
	mov	byte ptr [rsp + 24], r9b
	mov	qword ptr [rsp + 16], r8
	mov	qword ptr [rsp + 8], rdx
	mov	qword ptr [rsp], rcx
.Ltmp350:
	.cv_loc	117 3 1147 0            # C:\Program Files (x86)\Microsoft Visual Studio\2017\Community\VC\Tools\MSVC\14.16.27023\include\xmemory0:1147:0
	add	rsp, 32
	ret
.Ltmp351:
.Lfunc_end117:
	.seh_handlerdata
	.section	.text,"xr",discard,"??$_Destroy_range1@V?$allocator@H@std@@@std@@YAXPEAH0AEAV?$allocator@H@0@U?$integral_constant@_N$00@0@@Z"
	.seh_endproc
