	.text
	.intel_syntax noprefix
	.def	 "?test_span_unoptimizable_rangecheck@@YAXV?$span@H$0?0@gsl@@H@Z";
	.scl	2;
	.type	32;
	.endef
	.globl	"?test_span_unoptimizable_rangecheck@@YAXV?$span@H$0?0@gsl@@H@Z" # -- Begin function ?test_span_unoptimizable_rangecheck@@YAXV?$span@H$0?0@gsl@@H@Z
	.p2align	4, 0x90
"?test_span_unoptimizable_rangecheck@@YAXV?$span@H$0?0@gsl@@H@Z": # @"?test_span_unoptimizable_rangecheck@@YAXV?$span@H$0?0@gsl@@H@Z"
.Lfunc_begin0:
	.cv_func_id 0
	.cv_file	1 "C:\\projects\\gsl\\tests\\span_compile_only.cpp" "4EBBAB2DAA6A3AA59A2E9ADA8BB26538" 1
	.cv_loc	0 1 41 0 is_stmt 0      # ..\tests\span_compile_only.cpp:41:0
.seh_proc "?test_span_unoptimizable_rangecheck@@YAXV?$span@H$0?0@gsl@@H@Z"
# %bb.0:
	sub	rsp, 56
	.seh_stackalloc 56
	.seh_endprologue
	mov	dword ptr [rsp + 52], edx
	#DEBUG_VALUE: test_span_unoptimizable_rangecheck:s <- [$rcx+0]
.Ltmp0:
	.cv_loc	0 1 42 0                # ..\tests\span_compile_only.cpp:42:0
	mov	qword ptr [rsp + 40], 0
	mov	qword ptr [rsp + 32], rcx # 8-byte Spill
.Ltmp1:
	#DEBUG_VALUE: test_span_unoptimizable_rangecheck:s <- [DW_OP_plus_uconst 32, DW_OP_deref] [$rsp+0]
.LBB0_1:                                # =>This Inner Loop Header: Depth=1
	#DEBUG_VALUE: test_span_unoptimizable_rangecheck:s <- [DW_OP_plus_uconst 32, DW_OP_deref] [$rsp+0]
	mov	rax, qword ptr [rsp + 40]
	movsxd	rcx, dword ptr [rsp + 52]
	cmp	rax, rcx
	jge	.LBB0_4
.Ltmp2:
# %bb.2:                                #   in Loop: Header=BB0_1 Depth=1
	#DEBUG_VALUE: test_span_unoptimizable_rangecheck:s <- [DW_OP_plus_uconst 32, DW_OP_deref] [$rsp+0]
	.cv_loc	0 1 44 0                # ..\tests\span_compile_only.cpp:44:0
	mov	rdx, qword ptr [rsp + 40]
	mov	rcx, qword ptr [rsp + 32] # 8-byte Reload
	call	"??A?$span@H$0?0@gsl@@QEBAAEAH_J@Z"
	mov	r8d, dword ptr [rax]
	add	r8d, 1
	mov	dword ptr [rax], r8d
.Ltmp3:
# %bb.3:                                #   in Loop: Header=BB0_1 Depth=1
	#DEBUG_VALUE: test_span_unoptimizable_rangecheck:s <- [DW_OP_plus_uconst 32, DW_OP_deref] [$rsp+0]
	.cv_loc	0 1 42 0                # ..\tests\span_compile_only.cpp:42:0
	mov	rax, qword ptr [rsp + 40]
	add	rax, 1
	mov	qword ptr [rsp + 40], rax
	jmp	.LBB0_1
.Ltmp4:
.LBB0_4:
	#DEBUG_VALUE: test_span_unoptimizable_rangecheck:s <- [DW_OP_plus_uconst 32, DW_OP_deref] [$rsp+0]
	.cv_loc	0 1 46 0                # ..\tests\span_compile_only.cpp:46:0
	add	rsp, 56
.Ltmp5:
	ret
.Ltmp6:
.Lfunc_end0:
	.seh_handlerdata
	.text
	.seh_endproc
                                        # -- End function
	.def	 "??A?$span@H$0?0@gsl@@QEBAAEAH_J@Z";
	.scl	2;
	.type	32;
	.endef
	.section	.text,"xr",discard,"??A?$span@H$0?0@gsl@@QEBAAEAH_J@Z"
	.globl	"??A?$span@H$0?0@gsl@@QEBAAEAH_J@Z" # -- Begin function ??A?$span@H$0?0@gsl@@QEBAAEAH_J@Z
	.p2align	4, 0x90
"??A?$span@H$0?0@gsl@@QEBAAEAH_J@Z":    # @"??A?$span@H$0?0@gsl@@QEBAAEAH_J@Z"
.Lfunc_begin1:
	.cv_func_id 1
	.cv_file	2 "C:\\projects\\gsl\\include\\gsl\\span" "3BAA3FB91BA159E545E305706709D4CE" 1
	.cv_loc	1 2 508 0               # ..\include\gsl/span:508:0
.seh_proc "??A?$span@H$0?0@gsl@@QEBAAEAH_J@Z"
	.seh_handler __CxxFrameHandler3, @unwind, @except
# %bb.0:
	push	rbp
	.seh_pushreg 5
	sub	rsp, 112
	.seh_stackalloc 112
	lea	rbp, [rsp + 112]
	.seh_setframe 5, 112
	.seh_endprologue
	mov	qword ptr [rbp - 8], -2
	mov	qword ptr [rbp - 16], rdx
	mov	qword ptr [rbp - 24], rcx
	mov	rcx, qword ptr [rbp - 24]
.Ltmp9:
	.cv_loc	1 2 509 0               # ..\include\gsl/span:509:0
	mov	rdx, rcx
	mov	qword ptr [rbp - 64], rcx # 8-byte Spill
	mov	rcx, rdx
	call	"?size@?$extent_type@$0?0@details@gsl@@QEBA_JXZ"
	mov	rcx, qword ptr [rbp - 16]
	mov	rdx, rax
	call	"?CheckRange@?$span@H$0?0@gsl@@CA_N_J0@Z"
	mov	byte ptr [rbp - 49], 0
	test	al, 1
	jne	.LBB1_1
	jmp	.LBB1_2
.LBB1_1:
	test	byte ptr [rbp - 49], 1
	jne	.LBB1_4
	jmp	.LBB1_5
.LBB1_2:
	lea	rdx, [rip + "??_C@_0DG@BJDFKDLA@GSL?3?5Precondition?5failure?5at?5?4?4?2@"]
	lea	rax, [rbp - 48]
	mov	rcx, rax
	mov	qword ptr [rbp - 72], rax # 8-byte Spill
	call	"??0fail_fast@gsl@@QEAA@QEBD@Z"
	mov	byte ptr [rbp - 49], 1
.Ltmp7:
	mov	rcx, qword ptr [rbp - 72] # 8-byte Reload
	mov	qword ptr [rbp - 80], rax # 8-byte Spill
	call	"??$throw_exception@Ufail_fast@gsl@@@details@gsl@@YAX$$QEAUfail_fast@1@@Z"
.Ltmp8:
	jmp	.LBB1_3
.LBB1_3:
	ud2
.LBB1_4:
	lea	rcx, [rbp - 48]
	call	"??1fail_fast@gsl@@UEAA@XZ"
.LBB1_5:
	.cv_loc	1 2 510 0               # ..\include\gsl/span:510:0
	mov	rcx, qword ptr [rbp - 64] # 8-byte Reload
	call	"?data@?$span@H$0?0@gsl@@QEBAPEAHXZ"
	mov	rcx, qword ptr [rbp - 16]
	shl	rcx, 2
	add	rax, rcx
	add	rsp, 112
	pop	rbp
	ret
	.seh_handlerdata
	.long	("$cppxdata$??A?$span@H$0?0@gsl@@QEBAAEAH_J@Z")@IMGREL
	.section	.text,"xr",discard,"??A?$span@H$0?0@gsl@@QEBAAEAH_J@Z"
	.seh_endproc
	.def	 "?dtor$6@?0???A?$span@H$0?0@gsl@@QEBAAEAH_J@Z@4HA";
	.scl	3;
	.type	32;
	.endef
	.p2align	4, 0x90
"?dtor$6@?0???A?$span@H$0?0@gsl@@QEBAAEAH_J@Z@4HA":
.seh_proc "?dtor$6@?0???A?$span@H$0?0@gsl@@QEBAAEAH_J@Z@4HA"
.LBB1_6:
	mov	qword ptr [rsp + 16], rdx
	push	rbp
	.seh_pushreg 5
	sub	rsp, 32
	.seh_stackalloc 32
	lea	rbp, [rdx + 112]
	.seh_endprologue
	.cv_loc	1 2 509 0               # ..\include\gsl/span:509:0
	test	byte ptr [rbp - 49], 1
	jne	.LBB1_7
	jmp	.LBB1_8
.LBB1_7:
	lea	rcx, [rbp - 48]
	call	"??1fail_fast@gsl@@UEAA@XZ"
.LBB1_8:
	nop
	add	rsp, 32
	pop	rbp
	ret                             # CLEANUPRET
.Ltmp10:
.Lfunc_end1:
	.seh_handlerdata
	.section	.text,"xr",discard,"??A?$span@H$0?0@gsl@@QEBAAEAH_J@Z"
	.seh_endproc
	.section	.xdata,"dr",associative,"??A?$span@H$0?0@gsl@@QEBAAEAH_J@Z"
	.p2align	2
"$cppxdata$??A?$span@H$0?0@gsl@@QEBAAEAH_J@Z":
	.long	429065506               # MagicNumber
	.long	1                       # MaxState
	.long	("$stateUnwindMap$??A?$span@H$0?0@gsl@@QEBAAEAH_J@Z")@IMGREL # UnwindMap
	.long	0                       # NumTryBlocks
	.long	0                       # TryBlockMap
	.long	3                       # IPMapEntries
	.long	("$ip2state$??A?$span@H$0?0@gsl@@QEBAAEAH_J@Z")@IMGREL # IPToStateXData
	.long	104                     # UnwindHelp
	.long	0                       # ESTypeList
	.long	1                       # EHFlags
"$stateUnwindMap$??A?$span@H$0?0@gsl@@QEBAAEAH_J@Z":
	.long	-1                      # ToState
	.long	"?dtor$6@?0???A?$span@H$0?0@gsl@@QEBAAEAH_J@Z@4HA"@IMGREL # Action
"$ip2state$??A?$span@H$0?0@gsl@@QEBAAEAH_J@Z":
	.long	.Lfunc_begin1@IMGREL    # IP
	.long	-1                      # ToState
	.long	.Ltmp7@IMGREL+1         # IP
	.long	0                       # ToState
	.long	.Ltmp8@IMGREL+1         # IP
	.long	-1                      # ToState
	.section	.text,"xr",discard,"??A?$span@H$0?0@gsl@@QEBAAEAH_J@Z"
                                        # -- End function
	.def	 "?test_span_for@@YAXV?$span@H$0?0@gsl@@@Z";
	.scl	2;
	.type	32;
	.endef
	.text
	.globl	"?test_span_for@@YAXV?$span@H$0?0@gsl@@@Z" # -- Begin function ?test_span_for@@YAXV?$span@H$0?0@gsl@@@Z
	.p2align	4, 0x90
"?test_span_for@@YAXV?$span@H$0?0@gsl@@@Z": # @"?test_span_for@@YAXV?$span@H$0?0@gsl@@@Z"
.Lfunc_begin2:
	.cv_func_id 2
	.cv_loc	2 1 51 0                # ..\tests\span_compile_only.cpp:51:0
.seh_proc "?test_span_for@@YAXV?$span@H$0?0@gsl@@@Z"
# %bb.0:
	sub	rsp, 56
	.seh_stackalloc 56
	.seh_endprologue
	#DEBUG_VALUE: test_span_for:s <- [$rcx+0]
.Ltmp11:
	.cv_loc	2 1 52 0                # ..\tests\span_compile_only.cpp:52:0
	mov	qword ptr [rsp + 48], 0
	mov	qword ptr [rsp + 40], rcx # 8-byte Spill
.Ltmp12:
	#DEBUG_VALUE: test_span_for:s <- [DW_OP_plus_uconst 40, DW_OP_deref] [$rsp+0]
.LBB2_1:                                # =>This Inner Loop Header: Depth=1
	#DEBUG_VALUE: test_span_for:s <- [DW_OP_plus_uconst 40, DW_OP_deref] [$rsp+0]
	mov	rax, qword ptr [rsp + 48]
	mov	rcx, qword ptr [rsp + 40] # 8-byte Reload
	mov	qword ptr [rsp + 32], rax # 8-byte Spill
	call	"?size@?$span@H$0?0@gsl@@QEBA_JXZ"
	mov	rcx, qword ptr [rsp + 32] # 8-byte Reload
	cmp	rcx, rax
	jge	.LBB2_4
.Ltmp13:
# %bb.2:                                #   in Loop: Header=BB2_1 Depth=1
	#DEBUG_VALUE: test_span_for:s <- [DW_OP_plus_uconst 40, DW_OP_deref] [$rsp+0]
	.cv_loc	2 1 54 0                # ..\tests\span_compile_only.cpp:54:0
	mov	rdx, qword ptr [rsp + 48]
	mov	rcx, qword ptr [rsp + 40] # 8-byte Reload
	call	"??A?$span@H$0?0@gsl@@QEBAAEAH_J@Z"
	mov	r8d, dword ptr [rax]
	add	r8d, 1
	mov	dword ptr [rax], r8d
.Ltmp14:
# %bb.3:                                #   in Loop: Header=BB2_1 Depth=1
	#DEBUG_VALUE: test_span_for:s <- [DW_OP_plus_uconst 40, DW_OP_deref] [$rsp+0]
	.cv_loc	2 1 52 0                # ..\tests\span_compile_only.cpp:52:0
	mov	rax, qword ptr [rsp + 48]
	add	rax, 1
	mov	qword ptr [rsp + 48], rax
	jmp	.LBB2_1
.Ltmp15:
.LBB2_4:
	#DEBUG_VALUE: test_span_for:s <- [DW_OP_plus_uconst 40, DW_OP_deref] [$rsp+0]
	.cv_loc	2 1 56 0                # ..\tests\span_compile_only.cpp:56:0
	add	rsp, 56
.Ltmp16:
	ret
.Ltmp17:
.Lfunc_end2:
	.seh_handlerdata
	.text
	.seh_endproc
                                        # -- End function
	.def	 "?size@?$span@H$0?0@gsl@@QEBA_JXZ";
	.scl	2;
	.type	32;
	.endef
	.section	.text,"xr",discard,"?size@?$span@H$0?0@gsl@@QEBA_JXZ"
	.globl	"?size@?$span@H$0?0@gsl@@QEBA_JXZ" # -- Begin function ?size@?$span@H$0?0@gsl@@QEBA_JXZ
	.p2align	4, 0x90
"?size@?$span@H$0?0@gsl@@QEBA_JXZ":     # @"?size@?$span@H$0?0@gsl@@QEBA_JXZ"
.Lfunc_begin3:
	.cv_func_id 3
	.cv_loc	3 2 498 0               # ..\include\gsl/span:498:0
.seh_proc "?size@?$span@H$0?0@gsl@@QEBA_JXZ"
# %bb.0:
	sub	rsp, 40
	.seh_stackalloc 40
	.seh_endprologue
	mov	qword ptr [rsp + 32], rcx
	mov	rcx, qword ptr [rsp + 32]
.Ltmp18:
	call	"?size@?$extent_type@$0?0@details@gsl@@QEBA_JXZ"
	nop
	add	rsp, 40
	ret
.Ltmp19:
.Lfunc_end3:
	.seh_handlerdata
	.section	.text,"xr",discard,"?size@?$span@H$0?0@gsl@@QEBA_JXZ"
	.seh_endproc
                                        # -- End function
	.def	 "?test_span_iter@@YAXV?$span@H$0?0@gsl@@@Z";
	.scl	2;
	.type	32;
	.endef
	.text
	.globl	"?test_span_iter@@YAXV?$span@H$0?0@gsl@@@Z" # -- Begin function ?test_span_iter@@YAXV?$span@H$0?0@gsl@@@Z
	.p2align	4, 0x90
"?test_span_iter@@YAXV?$span@H$0?0@gsl@@@Z": # @"?test_span_iter@@YAXV?$span@H$0?0@gsl@@@Z"
.Lfunc_begin4:
	.cv_func_id 4
	.cv_loc	4 1 60 0                # ..\tests\span_compile_only.cpp:60:0
.seh_proc "?test_span_iter@@YAXV?$span@H$0?0@gsl@@@Z"
# %bb.0:
	sub	rsp, 104
	.seh_stackalloc 104
	.seh_endprologue
	mov	rax, qword ptr [rip + __security_cookie]
	xor	rax, rsp
	mov	qword ptr [rsp + 96], rax
	#DEBUG_VALUE: test_span_iter:s <- [$rcx+0]
.Ltmp20:
	.cv_loc	4 1 61 0                # ..\tests\span_compile_only.cpp:61:0
	mov	qword ptr [rsp + 40], rcx # 8-byte Spill
.Ltmp21:
	#DEBUG_VALUE: test_span_iter:s <- [DW_OP_plus_uconst 40, DW_OP_deref] [$rsp+0]
	lea	rdx, [rsp + 80]
.Ltmp22:
	#DEBUG_VALUE: it <- [$rdx+0]
	call	"?begin@?$span@H$0?0@gsl@@QEBA?AV?$span_iterator@V?$span@H$0?0@gsl@@$0A@@details@2@XZ"
.Ltmp23:
.LBB4_1:                                # =>This Inner Loop Header: Depth=1
	#DEBUG_VALUE: test_span_iter:s <- [DW_OP_plus_uconst 40, DW_OP_deref] [$rsp+0]
	mov	rcx, qword ptr [rsp + 40] # 8-byte Reload
	lea	rdx, [rsp + 64]
	call	"?end@?$span@H$0?0@gsl@@QEBA?AV?$span_iterator@V?$span@H$0?0@gsl@@$0A@@details@2@XZ"
	mov	rcx, qword ptr [rsp + 80]
	mov	qword ptr [rsp + 48], rcx
	mov	rcx, qword ptr [rsp + 88]
	mov	qword ptr [rsp + 56], rcx
	lea	rcx, [rsp + 48]
	lea	rdx, [rsp + 64]
	call	"??9details@gsl@@YA_NV?$span_iterator@V?$span@H$0?0@gsl@@$0A@@01@0@Z"
	test	al, 1
	jne	.LBB4_2
	jmp	.LBB4_4
.Ltmp24:
.LBB4_2:                                #   in Loop: Header=BB4_1 Depth=1
	#DEBUG_VALUE: test_span_iter:s <- [DW_OP_plus_uconst 40, DW_OP_deref] [$rsp+0]
	.cv_loc	4 1 63 0                # ..\tests\span_compile_only.cpp:63:0
	lea	rcx, [rsp + 80]
	call	"??D?$span_iterator@V?$span@H$0?0@gsl@@$0A@@details@gsl@@QEBAAEAHXZ"
	mov	edx, dword ptr [rax]
	add	edx, 1
	mov	dword ptr [rax], edx
.Ltmp25:
# %bb.3:                                #   in Loop: Header=BB4_1 Depth=1
	#DEBUG_VALUE: test_span_iter:s <- [DW_OP_plus_uconst 40, DW_OP_deref] [$rsp+0]
	.cv_loc	4 1 61 0                # ..\tests\span_compile_only.cpp:61:0
	lea	rcx, [rsp + 80]
	call	"??E?$span_iterator@V?$span@H$0?0@gsl@@$0A@@details@gsl@@QEAAAEAV012@XZ"
	mov	qword ptr [rsp + 32], rax # 8-byte Spill
	jmp	.LBB4_1
.Ltmp26:
.LBB4_4:
	#DEBUG_VALUE: test_span_iter:s <- [DW_OP_plus_uconst 40, DW_OP_deref] [$rsp+0]
	.cv_loc	4 1 65 0                # ..\tests\span_compile_only.cpp:65:0
	mov	rax, qword ptr [rsp + 96]
	xor	rax, rsp
	mov	rcx, rax
	call	__security_check_cookie
	nop
	add	rsp, 104
.Ltmp27:
	ret
.Ltmp28:
.Lfunc_end4:
	.seh_handlerdata
	.text
	.seh_endproc
                                        # -- End function
	.def	 "?begin@?$span@H$0?0@gsl@@QEBA?AV?$span_iterator@V?$span@H$0?0@gsl@@$0A@@details@2@XZ";
	.scl	2;
	.type	32;
	.endef
	.section	.text,"xr",discard,"?begin@?$span@H$0?0@gsl@@QEBA?AV?$span_iterator@V?$span@H$0?0@gsl@@$0A@@details@2@XZ"
	.globl	"?begin@?$span@H$0?0@gsl@@QEBA?AV?$span_iterator@V?$span@H$0?0@gsl@@$0A@@details@2@XZ" # -- Begin function ?begin@?$span@H$0?0@gsl@@QEBA?AV?$span_iterator@V?$span@H$0?0@gsl@@$0A@@details@2@XZ
	.p2align	4, 0x90
"?begin@?$span@H$0?0@gsl@@QEBA?AV?$span_iterator@V?$span@H$0?0@gsl@@$0A@@details@2@XZ": # @"?begin@?$span@H$0?0@gsl@@QEBA?AV?$span_iterator@V?$span@H$0?0@gsl@@$0A@@details@2@XZ"
.Lfunc_begin5:
	.cv_func_id 5
	.cv_loc	5 2 518 0               # ..\include\gsl/span:518:0
.seh_proc "?begin@?$span@H$0?0@gsl@@QEBA?AV?$span_iterator@V?$span@H$0?0@gsl@@$0A@@details@2@XZ"
# %bb.0:
	sub	rsp, 72
	.seh_stackalloc 72
	.seh_endprologue
	mov	rax, rdx
	xor	r8d, r8d
                                        # kill: def $r8 killed $r8d
	mov	qword ptr [rsp + 64], rcx
	mov	rcx, qword ptr [rsp + 64]
.Ltmp29:
	mov	qword ptr [rsp + 56], rcx # 8-byte Spill
	mov	rcx, rdx
	mov	rdx, qword ptr [rsp + 56] # 8-byte Reload
	mov	qword ptr [rsp + 48], rax # 8-byte Spill
	call	"??0?$span_iterator@V?$span@H$0?0@gsl@@$0A@@details@gsl@@QEAA@PEBV?$span@H$0?0@2@_J@Z"
	mov	rcx, qword ptr [rsp + 48] # 8-byte Reload
	mov	qword ptr [rsp + 40], rax # 8-byte Spill
	mov	rax, rcx
	add	rsp, 72
	ret
.Ltmp30:
.Lfunc_end5:
	.seh_handlerdata
	.section	.text,"xr",discard,"?begin@?$span@H$0?0@gsl@@QEBA?AV?$span_iterator@V?$span@H$0?0@gsl@@$0A@@details@2@XZ"
	.seh_endproc
                                        # -- End function
	.def	 "??9details@gsl@@YA_NV?$span_iterator@V?$span@H$0?0@gsl@@$0A@@01@0@Z";
	.scl	2;
	.type	32;
	.endef
	.section	.text,"xr",discard,"??9details@gsl@@YA_NV?$span_iterator@V?$span@H$0?0@gsl@@$0A@@01@0@Z"
	.globl	"??9details@gsl@@YA_NV?$span_iterator@V?$span@H$0?0@gsl@@$0A@@01@0@Z" # -- Begin function ??9details@gsl@@YA_NV?$span_iterator@V?$span@H$0?0@gsl@@$0A@@01@0@Z
	.p2align	4, 0x90
"??9details@gsl@@YA_NV?$span_iterator@V?$span@H$0?0@gsl@@$0A@@01@0@Z": # @"??9details@gsl@@YA_NV?$span_iterator@V?$span@H$0?0@gsl@@$0A@@01@0@Z"
.Lfunc_begin6:
	.cv_func_id 6
	.cv_loc	6 2 235 0               # ..\include\gsl/span:235:0
.seh_proc "??9details@gsl@@YA_NV?$span_iterator@V?$span@H$0?0@gsl@@$0A@@01@0@Z"
# %bb.0:
	sub	rsp, 88
	.seh_stackalloc 88
	.seh_endprologue
	mov	rax, qword ptr [rip + __security_cookie]
	xor	rax, rsp
	mov	qword ptr [rsp + 80], rax
	#DEBUG_VALUE: operator!=:rhs <- [$rdx+0]
	#DEBUG_VALUE: operator!=:lhs <- [$rcx+0]
.Ltmp31:
	.cv_loc	6 2 236 0               # ..\include\gsl/span:236:0
	mov	rax, qword ptr [rdx]
	mov	qword ptr [rsp + 64], rax
	mov	rax, qword ptr [rdx + 8]
	mov	qword ptr [rsp + 72], rax
	mov	rax, qword ptr [rcx]
	mov	qword ptr [rsp + 48], rax
	mov	rax, qword ptr [rcx + 8]
	mov	qword ptr [rsp + 56], rax
	lea	rcx, [rsp + 48]
.Ltmp32:
	lea	rdx, [rsp + 64]
.Ltmp33:
	call	"??8details@gsl@@YA_NV?$span_iterator@V?$span@H$0?0@gsl@@$0A@@01@0@Z"
	xor	al, -1
	and	al, 1
	movzx	eax, al
	mov	rcx, qword ptr [rsp + 80]
	xor	rcx, rsp
	mov	dword ptr [rsp + 44], eax # 4-byte Spill
	call	__security_check_cookie
	mov	eax, dword ptr [rsp + 44] # 4-byte Reload
	add	rsp, 88
	ret
.Ltmp34:
.Lfunc_end6:
	.seh_handlerdata
	.section	.text,"xr",discard,"??9details@gsl@@YA_NV?$span_iterator@V?$span@H$0?0@gsl@@$0A@@01@0@Z"
	.seh_endproc
                                        # -- End function
	.def	 "?end@?$span@H$0?0@gsl@@QEBA?AV?$span_iterator@V?$span@H$0?0@gsl@@$0A@@details@2@XZ";
	.scl	2;
	.type	32;
	.endef
	.section	.text,"xr",discard,"?end@?$span@H$0?0@gsl@@QEBA?AV?$span_iterator@V?$span@H$0?0@gsl@@$0A@@details@2@XZ"
	.globl	"?end@?$span@H$0?0@gsl@@QEBA?AV?$span_iterator@V?$span@H$0?0@gsl@@$0A@@details@2@XZ" # -- Begin function ?end@?$span@H$0?0@gsl@@QEBA?AV?$span_iterator@V?$span@H$0?0@gsl@@$0A@@details@2@XZ
	.p2align	4, 0x90
"?end@?$span@H$0?0@gsl@@QEBA?AV?$span_iterator@V?$span@H$0?0@gsl@@$0A@@details@2@XZ": # @"?end@?$span@H$0?0@gsl@@QEBA?AV?$span_iterator@V?$span@H$0?0@gsl@@$0A@@details@2@XZ"
.Lfunc_begin7:
	.cv_func_id 7
	.cv_loc	7 2 519 0               # ..\include\gsl/span:519:0
.seh_proc "?end@?$span@H$0?0@gsl@@QEBA?AV?$span_iterator@V?$span@H$0?0@gsl@@$0A@@details@2@XZ"
# %bb.0:
	sub	rsp, 72
	.seh_stackalloc 72
	.seh_endprologue
	mov	rax, rdx
	mov	qword ptr [rsp + 64], rcx
	mov	rcx, qword ptr [rsp + 64]
.Ltmp35:
	mov	qword ptr [rsp + 56], rcx # 8-byte Spill
	mov	qword ptr [rsp + 48], rax # 8-byte Spill
	mov	qword ptr [rsp + 40], rdx # 8-byte Spill
	call	"?size@?$span@H$0?0@gsl@@QEBA_JXZ"
	mov	rcx, qword ptr [rsp + 40] # 8-byte Reload
	mov	rdx, qword ptr [rsp + 56] # 8-byte Reload
	mov	r8, rax
	call	"??0?$span_iterator@V?$span@H$0?0@gsl@@$0A@@details@gsl@@QEAA@PEBV?$span@H$0?0@2@_J@Z"
	mov	rcx, qword ptr [rsp + 48] # 8-byte Reload
	mov	qword ptr [rsp + 32], rax # 8-byte Spill
	mov	rax, rcx
	add	rsp, 72
	ret
.Ltmp36:
.Lfunc_end7:
	.seh_handlerdata
	.section	.text,"xr",discard,"?end@?$span@H$0?0@gsl@@QEBA?AV?$span_iterator@V?$span@H$0?0@gsl@@$0A@@details@2@XZ"
	.seh_endproc
                                        # -- End function
	.def	 "??D?$span_iterator@V?$span@H$0?0@gsl@@$0A@@details@gsl@@QEBAAEAHXZ";
	.scl	2;
	.type	32;
	.endef
	.section	.text,"xr",discard,"??D?$span_iterator@V?$span@H$0?0@gsl@@$0A@@details@gsl@@QEBAAEAHXZ"
	.globl	"??D?$span_iterator@V?$span@H$0?0@gsl@@$0A@@details@gsl@@QEBAAEAHXZ" # -- Begin function ??D?$span_iterator@V?$span@H$0?0@gsl@@$0A@@details@gsl@@QEBAAEAHXZ
	.p2align	4, 0x90
"??D?$span_iterator@V?$span@H$0?0@gsl@@$0A@@details@gsl@@QEBAAEAHXZ": # @"??D?$span_iterator@V?$span@H$0?0@gsl@@$0A@@details@gsl@@QEBAAEAHXZ"
.Lfunc_begin8:
	.cv_func_id 8
	.cv_loc	8 2 156 0               # ..\include\gsl/span:156:0
.seh_proc "??D?$span_iterator@V?$span@H$0?0@gsl@@$0A@@details@gsl@@QEBAAEAHXZ"
	.seh_handler __CxxFrameHandler3, @unwind, @except
# %bb.0:
	push	rbp
	.seh_pushreg 5
	sub	rsp, 112
	.seh_stackalloc 112
	lea	rbp, [rsp + 112]
	.seh_setframe 5, 112
	.seh_endprologue
	mov	qword ptr [rbp - 8], -2
	mov	qword ptr [rbp - 16], rcx
	mov	rcx, qword ptr [rbp - 16]
.Ltmp39:
	.cv_loc	8 2 157 0               # ..\include\gsl/span:157:0
	mov	rax, qword ptr [rcx + 8]
	mov	rdx, qword ptr [rcx]
	mov	qword ptr [rbp - 56], rcx # 8-byte Spill
	mov	rcx, rdx
	mov	qword ptr [rbp - 64], rax # 8-byte Spill
	call	"?size@?$span@H$0?0@gsl@@QEBA_JXZ"
	mov	rcx, qword ptr [rbp - 64] # 8-byte Reload
	cmp	rcx, rax
	setne	r8b
	mov	byte ptr [rbp - 41], 0
	test	r8b, 1
	jne	.LBB8_1
	jmp	.LBB8_2
.LBB8_1:
	test	byte ptr [rbp - 41], 1
	jne	.LBB8_4
	jmp	.LBB8_5
.LBB8_2:
	lea	rdx, [rip + "??_C@_0DG@OBPNLIC@GSL?3?5Precondition?5failure?5at?5?4?4?2@"]
	lea	rax, [rbp - 40]
	mov	rcx, rax
	mov	qword ptr [rbp - 72], rax # 8-byte Spill
	call	"??0fail_fast@gsl@@QEAA@QEBD@Z"
	mov	byte ptr [rbp - 41], 1
.Ltmp37:
	mov	rcx, qword ptr [rbp - 72] # 8-byte Reload
	mov	qword ptr [rbp - 80], rax # 8-byte Spill
	call	"??$throw_exception@Ufail_fast@gsl@@@details@gsl@@YAX$$QEAUfail_fast@1@@Z"
.Ltmp38:
	jmp	.LBB8_3
.LBB8_3:
	ud2
.LBB8_4:
	lea	rcx, [rbp - 40]
	call	"??1fail_fast@gsl@@UEAA@XZ"
.LBB8_5:
	.cv_loc	8 2 158 0               # ..\include\gsl/span:158:0
	mov	rax, qword ptr [rbp - 56] # 8-byte Reload
	mov	rcx, qword ptr [rax]
	call	"?data@?$span@H$0?0@gsl@@QEBAPEAHXZ"
	mov	rcx, qword ptr [rbp - 56] # 8-byte Reload
	mov	rdx, qword ptr [rcx + 8]
	shl	rdx, 2
	add	rax, rdx
	add	rsp, 112
	pop	rbp
	ret
	.seh_handlerdata
	.long	("$cppxdata$??D?$span_iterator@V?$span@H$0?0@gsl@@$0A@@details@gsl@@QEBAAEAHXZ")@IMGREL
	.section	.text,"xr",discard,"??D?$span_iterator@V?$span@H$0?0@gsl@@$0A@@details@gsl@@QEBAAEAHXZ"
	.seh_endproc
	.def	 "?dtor$6@?0???D?$span_iterator@V?$span@H$0?0@gsl@@$0A@@details@gsl@@QEBAAEAHXZ@4HA";
	.scl	3;
	.type	32;
	.endef
	.p2align	4, 0x90
"?dtor$6@?0???D?$span_iterator@V?$span@H$0?0@gsl@@$0A@@details@gsl@@QEBAAEAHXZ@4HA":
.seh_proc "?dtor$6@?0???D?$span_iterator@V?$span@H$0?0@gsl@@$0A@@details@gsl@@QEBAAEAHXZ@4HA"
.LBB8_6:
	mov	qword ptr [rsp + 16], rdx
	push	rbp
	.seh_pushreg 5
	sub	rsp, 32
	.seh_stackalloc 32
	lea	rbp, [rdx + 112]
	.seh_endprologue
	.cv_loc	8 2 157 0               # ..\include\gsl/span:157:0
	test	byte ptr [rbp - 41], 1
	jne	.LBB8_7
	jmp	.LBB8_8
.LBB8_7:
	lea	rcx, [rbp - 40]
	call	"??1fail_fast@gsl@@UEAA@XZ"
.LBB8_8:
	nop
	add	rsp, 32
	pop	rbp
	ret                             # CLEANUPRET
.Ltmp40:
.Lfunc_end8:
	.seh_handlerdata
	.section	.text,"xr",discard,"??D?$span_iterator@V?$span@H$0?0@gsl@@$0A@@details@gsl@@QEBAAEAHXZ"
	.seh_endproc
	.section	.xdata,"dr",associative,"??D?$span_iterator@V?$span@H$0?0@gsl@@$0A@@details@gsl@@QEBAAEAHXZ"
	.p2align	2
"$cppxdata$??D?$span_iterator@V?$span@H$0?0@gsl@@$0A@@details@gsl@@QEBAAEAHXZ":
	.long	429065506               # MagicNumber
	.long	1                       # MaxState
	.long	("$stateUnwindMap$??D?$span_iterator@V?$span@H$0?0@gsl@@$0A@@details@gsl@@QEBAAEAHXZ")@IMGREL # UnwindMap
	.long	0                       # NumTryBlocks
	.long	0                       # TryBlockMap
	.long	3                       # IPMapEntries
	.long	("$ip2state$??D?$span_iterator@V?$span@H$0?0@gsl@@$0A@@details@gsl@@QEBAAEAHXZ")@IMGREL # IPToStateXData
	.long	104                     # UnwindHelp
	.long	0                       # ESTypeList
	.long	1                       # EHFlags
"$stateUnwindMap$??D?$span_iterator@V?$span@H$0?0@gsl@@$0A@@details@gsl@@QEBAAEAHXZ":
	.long	-1                      # ToState
	.long	"?dtor$6@?0???D?$span_iterator@V?$span@H$0?0@gsl@@$0A@@details@gsl@@QEBAAEAHXZ@4HA"@IMGREL # Action
"$ip2state$??D?$span_iterator@V?$span@H$0?0@gsl@@$0A@@details@gsl@@QEBAAEAHXZ":
	.long	.Lfunc_begin8@IMGREL    # IP
	.long	-1                      # ToState
	.long	.Ltmp37@IMGREL+1        # IP
	.long	0                       # ToState
	.long	.Ltmp38@IMGREL+1        # IP
	.long	-1                      # ToState
	.section	.text,"xr",discard,"??D?$span_iterator@V?$span@H$0?0@gsl@@$0A@@details@gsl@@QEBAAEAHXZ"
                                        # -- End function
	.def	 "??E?$span_iterator@V?$span@H$0?0@gsl@@$0A@@details@gsl@@QEAAAEAV012@XZ";
	.scl	2;
	.type	32;
	.endef
	.section	.text,"xr",discard,"??E?$span_iterator@V?$span@H$0?0@gsl@@$0A@@details@gsl@@QEAAAEAV012@XZ"
	.globl	"??E?$span_iterator@V?$span@H$0?0@gsl@@$0A@@details@gsl@@QEAAAEAV012@XZ" # -- Begin function ??E?$span_iterator@V?$span@H$0?0@gsl@@$0A@@details@gsl@@QEAAAEAV012@XZ
	.p2align	4, 0x90
"??E?$span_iterator@V?$span@H$0?0@gsl@@$0A@@details@gsl@@QEAAAEAV012@XZ": # @"??E?$span_iterator@V?$span@H$0?0@gsl@@$0A@@details@gsl@@QEAAAEAV012@XZ"
.Lfunc_begin9:
	.cv_func_id 9
	.cv_loc	9 2 168 0               # ..\include\gsl/span:168:0
.seh_proc "??E?$span_iterator@V?$span@H$0?0@gsl@@$0A@@details@gsl@@QEAAAEAV012@XZ"
	.seh_handler __CxxFrameHandler3, @unwind, @except
# %bb.0:
	push	rbp
	.seh_pushreg 5
	sub	rsp, 128
	.seh_stackalloc 128
	lea	rbp, [rsp + 128]
	.seh_setframe 5, 128
	.seh_endprologue
	mov	qword ptr [rbp - 8], -2
	xor	eax, eax
	mov	dl, al
	xor	eax, eax
	mov	r8d, eax
	mov	qword ptr [rbp - 16], rcx
	mov	rcx, qword ptr [rbp - 16]
.Ltmp43:
	.cv_loc	9 2 169 0               # ..\include\gsl/span:169:0
	mov	r9, qword ptr [rcx + 8]
	mov	byte ptr [rbp - 41], 0
	cmp	r8, r9
	mov	qword ptr [rbp - 56], rcx # 8-byte Spill
	mov	byte ptr [rbp - 57], dl # 1-byte Spill
	jg	.LBB9_2
# %bb.1:
	mov	rax, qword ptr [rbp - 56] # 8-byte Reload
	mov	rcx, qword ptr [rax + 8]
	mov	rdx, qword ptr [rax]
	mov	qword ptr [rbp - 72], rcx # 8-byte Spill
	mov	rcx, rdx
	call	"?size@?$span@H$0?0@gsl@@QEBA_JXZ"
	mov	rcx, qword ptr [rbp - 72] # 8-byte Reload
	cmp	rcx, rax
	setne	r8b
	mov	byte ptr [rbp - 57], r8b # 1-byte Spill
.LBB9_2:
	mov	al, byte ptr [rbp - 57] # 1-byte Reload
	test	al, 1
	jne	.LBB9_3
	jmp	.LBB9_4
.LBB9_3:
	test	byte ptr [rbp - 41], 1
	jne	.LBB9_6
	jmp	.LBB9_7
.LBB9_4:
	lea	rdx, [rip + "??_C@_0DG@JCNKEIFF@GSL?3?5Precondition?5failure?5at?5?4?4?2@"]
	lea	rax, [rbp - 40]
	mov	rcx, rax
	mov	qword ptr [rbp - 80], rax # 8-byte Spill
	call	"??0fail_fast@gsl@@QEAA@QEBD@Z"
	mov	byte ptr [rbp - 41], 1
.Ltmp41:
	mov	rcx, qword ptr [rbp - 80] # 8-byte Reload
	mov	qword ptr [rbp - 88], rax # 8-byte Spill
	call	"??$throw_exception@Ufail_fast@gsl@@@details@gsl@@YAX$$QEAUfail_fast@1@@Z"
.Ltmp42:
	jmp	.LBB9_5
.LBB9_5:
	ud2
.LBB9_6:
	lea	rcx, [rbp - 40]
	call	"??1fail_fast@gsl@@UEAA@XZ"
.LBB9_7:
	.cv_loc	9 2 170 0               # ..\include\gsl/span:170:0
	mov	rax, qword ptr [rbp - 56] # 8-byte Reload
	mov	rcx, qword ptr [rax + 8]
	add	rcx, 1
	mov	qword ptr [rax + 8], rcx
	.cv_loc	9 2 171 0               # ..\include\gsl/span:171:0
	add	rsp, 128
	pop	rbp
	ret
	.seh_handlerdata
	.long	("$cppxdata$??E?$span_iterator@V?$span@H$0?0@gsl@@$0A@@details@gsl@@QEAAAEAV012@XZ")@IMGREL
	.section	.text,"xr",discard,"??E?$span_iterator@V?$span@H$0?0@gsl@@$0A@@details@gsl@@QEAAAEAV012@XZ"
	.seh_endproc
	.def	 "?dtor$8@?0???E?$span_iterator@V?$span@H$0?0@gsl@@$0A@@details@gsl@@QEAAAEAV012@XZ@4HA";
	.scl	3;
	.type	32;
	.endef
	.p2align	4, 0x90
"?dtor$8@?0???E?$span_iterator@V?$span@H$0?0@gsl@@$0A@@details@gsl@@QEAAAEAV012@XZ@4HA":
.seh_proc "?dtor$8@?0???E?$span_iterator@V?$span@H$0?0@gsl@@$0A@@details@gsl@@QEAAAEAV012@XZ@4HA"
.LBB9_8:
	mov	qword ptr [rsp + 16], rdx
	push	rbp
	.seh_pushreg 5
	sub	rsp, 32
	.seh_stackalloc 32
	lea	rbp, [rdx + 128]
	.seh_endprologue
	.cv_loc	9 2 169 0               # ..\include\gsl/span:169:0
	test	byte ptr [rbp - 41], 1
	jne	.LBB9_9
	jmp	.LBB9_10
.LBB9_9:
	lea	rcx, [rbp - 40]
	call	"??1fail_fast@gsl@@UEAA@XZ"
.LBB9_10:
	nop
	add	rsp, 32
	pop	rbp
	ret                             # CLEANUPRET
.Ltmp44:
.Lfunc_end9:
	.seh_handlerdata
	.section	.text,"xr",discard,"??E?$span_iterator@V?$span@H$0?0@gsl@@$0A@@details@gsl@@QEAAAEAV012@XZ"
	.seh_endproc
	.section	.xdata,"dr",associative,"??E?$span_iterator@V?$span@H$0?0@gsl@@$0A@@details@gsl@@QEAAAEAV012@XZ"
	.p2align	2
"$cppxdata$??E?$span_iterator@V?$span@H$0?0@gsl@@$0A@@details@gsl@@QEAAAEAV012@XZ":
	.long	429065506               # MagicNumber
	.long	1                       # MaxState
	.long	("$stateUnwindMap$??E?$span_iterator@V?$span@H$0?0@gsl@@$0A@@details@gsl@@QEAAAEAV012@XZ")@IMGREL # UnwindMap
	.long	0                       # NumTryBlocks
	.long	0                       # TryBlockMap
	.long	3                       # IPMapEntries
	.long	("$ip2state$??E?$span_iterator@V?$span@H$0?0@gsl@@$0A@@details@gsl@@QEAAAEAV012@XZ")@IMGREL # IPToStateXData
	.long	120                     # UnwindHelp
	.long	0                       # ESTypeList
	.long	1                       # EHFlags
"$stateUnwindMap$??E?$span_iterator@V?$span@H$0?0@gsl@@$0A@@details@gsl@@QEAAAEAV012@XZ":
	.long	-1                      # ToState
	.long	"?dtor$8@?0???E?$span_iterator@V?$span@H$0?0@gsl@@$0A@@details@gsl@@QEAAAEAV012@XZ@4HA"@IMGREL # Action
"$ip2state$??E?$span_iterator@V?$span@H$0?0@gsl@@$0A@@details@gsl@@QEAAAEAV012@XZ":
	.long	.Lfunc_begin9@IMGREL    # IP
	.long	-1                      # ToState
	.long	.Ltmp41@IMGREL+1        # IP
	.long	0                       # ToState
	.long	.Ltmp42@IMGREL+1        # IP
	.long	-1                      # ToState
	.section	.text,"xr",discard,"??E?$span_iterator@V?$span@H$0?0@gsl@@$0A@@details@gsl@@QEAAAEAV012@XZ"
                                        # -- End function
	.def	 "?test_span_rangeiter@@YAXV?$span@H$0?0@gsl@@@Z";
	.scl	2;
	.type	32;
	.endef
	.text
	.globl	"?test_span_rangeiter@@YAXV?$span@H$0?0@gsl@@@Z" # -- Begin function ?test_span_rangeiter@@YAXV?$span@H$0?0@gsl@@@Z
	.p2align	4, 0x90
"?test_span_rangeiter@@YAXV?$span@H$0?0@gsl@@@Z": # @"?test_span_rangeiter@@YAXV?$span@H$0?0@gsl@@@Z"
.Lfunc_begin10:
	.cv_func_id 10
	.cv_loc	10 1 69 0               # ..\tests\span_compile_only.cpp:69:0
.seh_proc "?test_span_rangeiter@@YAXV?$span@H$0?0@gsl@@@Z"
# %bb.0:
	sub	rsp, 136
	.seh_stackalloc 136
	.seh_endprologue
	mov	rax, qword ptr [rip + __security_cookie]
	xor	rax, rsp
	mov	qword ptr [rsp + 128], rax
	#DEBUG_VALUE: test_span_rangeiter:s <- [$rcx+0]
.Ltmp45:
	.cv_loc	10 1 70 0               # ..\tests\span_compile_only.cpp:70:0
	mov	qword ptr [rsp + 56], rcx
	mov	rcx, qword ptr [rsp + 56]
.Ltmp46:
	lea	rdx, [rsp + 112]
.Ltmp47:
	#DEBUG_VALUE: __begin1 <- [$rdx+0]
	call	"?begin@?$span@H$0?0@gsl@@QEBA?AV?$span_iterator@V?$span@H$0?0@gsl@@$0A@@details@2@XZ"
.Ltmp48:
	mov	rcx, qword ptr [rsp + 56]
	lea	rdx, [rsp + 96]
.Ltmp49:
	#DEBUG_VALUE: __end1 <- [$rdx+0]
	call	"?end@?$span@H$0?0@gsl@@QEBA?AV?$span_iterator@V?$span@H$0?0@gsl@@$0A@@details@2@XZ"
.Ltmp50:
.LBB10_1:                               # =>This Inner Loop Header: Depth=1
	mov	rax, qword ptr [rsp + 96]
	mov	qword ptr [rsp + 80], rax
	mov	rax, qword ptr [rsp + 104]
	mov	qword ptr [rsp + 88], rax
	mov	rax, qword ptr [rsp + 112]
	mov	qword ptr [rsp + 64], rax
	mov	rax, qword ptr [rsp + 120]
	mov	qword ptr [rsp + 72], rax
	lea	rcx, [rsp + 64]
	lea	rdx, [rsp + 80]
	call	"??9details@gsl@@YA_NV?$span_iterator@V?$span@H$0?0@gsl@@$0A@@01@0@Z"
	test	al, 1
	jne	.LBB10_2
	jmp	.LBB10_4
.LBB10_2:                               #   in Loop: Header=BB10_1 Depth=1
.Ltmp51:
	.cv_loc	10 1 70 0               # ..\tests\span_compile_only.cpp:70:0
	lea	rcx, [rsp + 112]
	call	"??D?$span_iterator@V?$span@H$0?0@gsl@@$0A@@details@gsl@@QEBAAEAHXZ"
	mov	qword ptr [rsp + 48], rax
.Ltmp52:
	.cv_loc	10 1 72 0               # ..\tests\span_compile_only.cpp:72:0
	mov	rax, qword ptr [rsp + 48]
	mov	edx, dword ptr [rax]
	add	edx, 1
	mov	dword ptr [rax], edx
.Ltmp53:
# %bb.3:                                #   in Loop: Header=BB10_1 Depth=1
	.cv_loc	10 1 70 0               # ..\tests\span_compile_only.cpp:70:0
	lea	rcx, [rsp + 112]
	call	"??E?$span_iterator@V?$span@H$0?0@gsl@@$0A@@details@gsl@@QEAAAEAV012@XZ"
	mov	qword ptr [rsp + 40], rax # 8-byte Spill
	jmp	.LBB10_1
.Ltmp54:
.LBB10_4:
	.cv_loc	10 1 74 0               # ..\tests\span_compile_only.cpp:74:0
	mov	rax, qword ptr [rsp + 128]
	xor	rax, rsp
	mov	rcx, rax
	call	__security_check_cookie
	nop
	add	rsp, 136
	ret
.Ltmp55:
.Lfunc_end10:
	.seh_handlerdata
	.text
	.seh_endproc
                                        # -- End function
	.def	 "?static_size_array_span@@YAXAEAUIDE_DRIVE_STATE@@@Z";
	.scl	2;
	.type	32;
	.endef
	.globl	"?static_size_array_span@@YAXAEAUIDE_DRIVE_STATE@@@Z" # -- Begin function ?static_size_array_span@@YAXAEAUIDE_DRIVE_STATE@@@Z
	.p2align	4, 0x90
"?static_size_array_span@@YAXAEAUIDE_DRIVE_STATE@@@Z": # @"?static_size_array_span@@YAXAEAUIDE_DRIVE_STATE@@@Z"
.Lfunc_begin11:
	.cv_func_id 11
	.cv_loc	11 1 96 0               # ..\tests\span_compile_only.cpp:96:0
.seh_proc "?static_size_array_span@@YAXAEAUIDE_DRIVE_STATE@@@Z"
# %bb.0:
	sub	rsp, 88
	.seh_stackalloc 88
	.seh_endprologue
	mov	rax, qword ptr [rip + __security_cookie]
	xor	rax, rsp
	mov	qword ptr [rsp + 80], rax
	mov	qword ptr [rsp + 56], rcx
.Ltmp56:
	.cv_loc	11 1 97 0               # ..\tests\span_compile_only.cpp:97:0
	mov	rdx, qword ptr [rsp + 56]
	lea	rcx, [rsp + 64]
.Ltmp57:
	#DEBUG_VALUE: static_size_array_span:sp <- [$rcx+0]
	call	"??$?0$05@?$span@E$0?0@gsl@@QEAA@AEAY05E@Z"
.Ltmp58:
	.cv_loc	11 1 99 0               # ..\tests\span_compile_only.cpp:99:0
	mov	dword ptr [rsp + 52], 0
	mov	qword ptr [rsp + 40], rax # 8-byte Spill
.LBB11_1:                               # =>This Inner Loop Header: Depth=1
	cmp	dword ptr [rsp + 52], 6
	jge	.LBB11_4
# %bb.2:                                #   in Loop: Header=BB11_1 Depth=1
.Ltmp59:
	.cv_loc	11 1 101 0              # ..\tests\span_compile_only.cpp:101:0
	movsxd	rdx, dword ptr [rsp + 52]
	lea	rcx, [rsp + 64]
	call	"??A?$span@E$0?0@gsl@@QEBAAEAE_J@Z"
	mov	byte ptr [rax], 1
.Ltmp60:
# %bb.3:                                #   in Loop: Header=BB11_1 Depth=1
	.cv_loc	11 1 99 0               # ..\tests\span_compile_only.cpp:99:0
	mov	eax, dword ptr [rsp + 52]
	add	eax, 1
	mov	dword ptr [rsp + 52], eax
	jmp	.LBB11_1
.Ltmp61:
.LBB11_4:
	.cv_loc	11 1 103 0              # ..\tests\span_compile_only.cpp:103:0
	mov	rax, qword ptr [rsp + 80]
	xor	rax, rsp
	mov	rcx, rax
	call	__security_check_cookie
	nop
	add	rsp, 88
	ret
.Ltmp62:
.Lfunc_end11:
	.seh_handlerdata
	.text
	.seh_endproc
                                        # -- End function
	.def	 "??$?0$05@?$span@E$0?0@gsl@@QEAA@AEAY05E@Z";
	.scl	2;
	.type	32;
	.endef
	.section	.text,"xr",discard,"??$?0$05@?$span@E$0?0@gsl@@QEAA@AEAY05E@Z"
	.globl	"??$?0$05@?$span@E$0?0@gsl@@QEAA@AEAY05E@Z" # -- Begin function ??$?0$05@?$span@E$0?0@gsl@@QEAA@AEAY05E@Z
	.p2align	4, 0x90
"??$?0$05@?$span@E$0?0@gsl@@QEAA@AEAY05E@Z": # @"??$?0$05@?$span@E$0?0@gsl@@QEAA@AEAY05E@Z"
.Lfunc_begin12:
	.cv_func_id 12
	.cv_loc	12 2 395 0              # ..\include\gsl/span:395:0
.seh_proc "??$?0$05@?$span@E$0?0@gsl@@QEAA@AEAY05E@Z"
	.seh_handler __CxxFrameHandler3, @unwind, @except
# %bb.0:
	push	rbp
	.seh_pushreg 5
	sub	rsp, 96
	.seh_stackalloc 96
	lea	rbp, [rsp + 96]
	.seh_setframe 5, 96
	.seh_endprologue
	mov	qword ptr [rbp - 8], -2
	mov	qword ptr [rbp - 16], rdx
	mov	qword ptr [rbp - 24], rcx
	mov	rcx, qword ptr [rbp - 24]
	lea	rdx, [rbp - 32]
.Ltmp65:
	mov	qword ptr [rbp - 48], rcx # 8-byte Spill
	mov	rcx, rdx
	call	"??0?$extent_type@$05@details@gsl@@QEAA@XZ"
	mov	rcx, qword ptr [rbp - 16]
	mov	qword ptr [rbp - 56], rax # 8-byte Spill
	call	"??$addressof@E@std@@YAPEAEAEAE@Z"
	mov	qword ptr [rbp - 40], rax
	mov	rdx, qword ptr [rbp - 40]
	mov	r8b, byte ptr [rbp - 32]
.Ltmp63:
	mov	rcx, qword ptr [rbp - 48] # 8-byte Reload
	call	"??$?0V?$extent_type@$05@details@gsl@@@?$storage_type@V?$extent_type@$0?0@details@gsl@@@?$span@E$0?0@gsl@@QEAA@UKnownNotNull@12@V?$extent_type@$05@details@2@@Z"
.Ltmp64:
	mov	qword ptr [rbp - 64], rax # 8-byte Spill
	jmp	.LBB12_1
.LBB12_1:
	mov	rax, qword ptr [rbp - 48] # 8-byte Reload
	add	rsp, 96
	pop	rbp
	ret
	.seh_handlerdata
	.long	("$cppxdata$??$?0$05@?$span@E$0?0@gsl@@QEAA@AEAY05E@Z")@IMGREL
	.section	.text,"xr",discard,"??$?0$05@?$span@E$0?0@gsl@@QEAA@AEAY05E@Z"
	.seh_endproc
	.def	 "?dtor$2@?0???$?0$05@?$span@E$0?0@gsl@@QEAA@AEAY05E@Z@4HA";
	.scl	3;
	.type	32;
	.endef
	.p2align	4, 0x90
"?dtor$2@?0???$?0$05@?$span@E$0?0@gsl@@QEAA@AEAY05E@Z@4HA":
.seh_proc "?dtor$2@?0???$?0$05@?$span@E$0?0@gsl@@QEAA@AEAY05E@Z@4HA"
.LBB12_2:
	mov	qword ptr [rsp + 16], rdx
	push	rbp
	.seh_pushreg 5
	sub	rsp, 32
	.seh_stackalloc 32
	lea	rbp, [rdx + 96]
	.seh_endprologue
	mov	rax, qword ptr [rip + __imp___std_terminate]
	call	rax
	ud2
.Ltmp66:
.Lfunc_end12:
	.seh_handlerdata
	.section	.text,"xr",discard,"??$?0$05@?$span@E$0?0@gsl@@QEAA@AEAY05E@Z"
	.seh_endproc
	.section	.xdata,"dr",associative,"??$?0$05@?$span@E$0?0@gsl@@QEAA@AEAY05E@Z"
	.p2align	2
"$cppxdata$??$?0$05@?$span@E$0?0@gsl@@QEAA@AEAY05E@Z":
	.long	429065506               # MagicNumber
	.long	1                       # MaxState
	.long	("$stateUnwindMap$??$?0$05@?$span@E$0?0@gsl@@QEAA@AEAY05E@Z")@IMGREL # UnwindMap
	.long	0                       # NumTryBlocks
	.long	0                       # TryBlockMap
	.long	3                       # IPMapEntries
	.long	("$ip2state$??$?0$05@?$span@E$0?0@gsl@@QEAA@AEAY05E@Z")@IMGREL # IPToStateXData
	.long	88                      # UnwindHelp
	.long	0                       # ESTypeList
	.long	1                       # EHFlags
"$stateUnwindMap$??$?0$05@?$span@E$0?0@gsl@@QEAA@AEAY05E@Z":
	.long	-1                      # ToState
	.long	"?dtor$2@?0???$?0$05@?$span@E$0?0@gsl@@QEAA@AEAY05E@Z@4HA"@IMGREL # Action
"$ip2state$??$?0$05@?$span@E$0?0@gsl@@QEAA@AEAY05E@Z":
	.long	.Lfunc_begin12@IMGREL   # IP
	.long	-1                      # ToState
	.long	.Ltmp63@IMGREL+1        # IP
	.long	0                       # ToState
	.long	.Ltmp64@IMGREL+1        # IP
	.long	-1                      # ToState
	.section	.text,"xr",discard,"??$?0$05@?$span@E$0?0@gsl@@QEAA@AEAY05E@Z"
                                        # -- End function
	.def	 "??A?$span@E$0?0@gsl@@QEBAAEAE_J@Z";
	.scl	2;
	.type	32;
	.endef
	.section	.text,"xr",discard,"??A?$span@E$0?0@gsl@@QEBAAEAE_J@Z"
	.globl	"??A?$span@E$0?0@gsl@@QEBAAEAE_J@Z" # -- Begin function ??A?$span@E$0?0@gsl@@QEBAAEAE_J@Z
	.p2align	4, 0x90
"??A?$span@E$0?0@gsl@@QEBAAEAE_J@Z":    # @"??A?$span@E$0?0@gsl@@QEBAAEAE_J@Z"
.Lfunc_begin13:
	.cv_func_id 13
	.cv_loc	13 2 508 0              # ..\include\gsl/span:508:0
.seh_proc "??A?$span@E$0?0@gsl@@QEBAAEAE_J@Z"
	.seh_handler __CxxFrameHandler3, @unwind, @except
# %bb.0:
	push	rbp
	.seh_pushreg 5
	sub	rsp, 112
	.seh_stackalloc 112
	lea	rbp, [rsp + 112]
	.seh_setframe 5, 112
	.seh_endprologue
	mov	qword ptr [rbp - 8], -2
	mov	qword ptr [rbp - 16], rdx
	mov	qword ptr [rbp - 24], rcx
	mov	rcx, qword ptr [rbp - 24]
.Ltmp69:
	.cv_loc	13 2 509 0              # ..\include\gsl/span:509:0
	mov	rdx, rcx
	mov	qword ptr [rbp - 64], rcx # 8-byte Spill
	mov	rcx, rdx
	call	"?size@?$extent_type@$0?0@details@gsl@@QEBA_JXZ"
	mov	rcx, qword ptr [rbp - 16]
	mov	rdx, rax
	call	"?CheckRange@?$span@E$0?0@gsl@@CA_N_J0@Z"
	mov	byte ptr [rbp - 49], 0
	test	al, 1
	jne	.LBB13_1
	jmp	.LBB13_2
.LBB13_1:
	test	byte ptr [rbp - 49], 1
	jne	.LBB13_4
	jmp	.LBB13_5
.LBB13_2:
	lea	rdx, [rip + "??_C@_0DG@BJDFKDLA@GSL?3?5Precondition?5failure?5at?5?4?4?2@"]
	lea	rax, [rbp - 48]
	mov	rcx, rax
	mov	qword ptr [rbp - 72], rax # 8-byte Spill
	call	"??0fail_fast@gsl@@QEAA@QEBD@Z"
	mov	byte ptr [rbp - 49], 1
.Ltmp67:
	mov	rcx, qword ptr [rbp - 72] # 8-byte Reload
	mov	qword ptr [rbp - 80], rax # 8-byte Spill
	call	"??$throw_exception@Ufail_fast@gsl@@@details@gsl@@YAX$$QEAUfail_fast@1@@Z"
.Ltmp68:
	jmp	.LBB13_3
.LBB13_3:
	ud2
.LBB13_4:
	lea	rcx, [rbp - 48]
	call	"??1fail_fast@gsl@@UEAA@XZ"
.LBB13_5:
	.cv_loc	13 2 510 0              # ..\include\gsl/span:510:0
	mov	rcx, qword ptr [rbp - 64] # 8-byte Reload
	call	"?data@?$span@E$0?0@gsl@@QEBAPEAEXZ"
	add	rax, qword ptr [rbp - 16]
	add	rsp, 112
	pop	rbp
	ret
	.seh_handlerdata
	.long	("$cppxdata$??A?$span@E$0?0@gsl@@QEBAAEAE_J@Z")@IMGREL
	.section	.text,"xr",discard,"??A?$span@E$0?0@gsl@@QEBAAEAE_J@Z"
	.seh_endproc
	.def	 "?dtor$6@?0???A?$span@E$0?0@gsl@@QEBAAEAE_J@Z@4HA";
	.scl	3;
	.type	32;
	.endef
	.p2align	4, 0x90
"?dtor$6@?0???A?$span@E$0?0@gsl@@QEBAAEAE_J@Z@4HA":
.seh_proc "?dtor$6@?0???A?$span@E$0?0@gsl@@QEBAAEAE_J@Z@4HA"
.LBB13_6:
	mov	qword ptr [rsp + 16], rdx
	push	rbp
	.seh_pushreg 5
	sub	rsp, 32
	.seh_stackalloc 32
	lea	rbp, [rdx + 112]
	.seh_endprologue
	.cv_loc	13 2 509 0              # ..\include\gsl/span:509:0
	test	byte ptr [rbp - 49], 1
	jne	.LBB13_7
	jmp	.LBB13_8
.LBB13_7:
	lea	rcx, [rbp - 48]
	call	"??1fail_fast@gsl@@UEAA@XZ"
.LBB13_8:
	nop
	add	rsp, 32
	pop	rbp
	ret                             # CLEANUPRET
.Ltmp70:
.Lfunc_end13:
	.seh_handlerdata
	.section	.text,"xr",discard,"??A?$span@E$0?0@gsl@@QEBAAEAE_J@Z"
	.seh_endproc
	.section	.xdata,"dr",associative,"??A?$span@E$0?0@gsl@@QEBAAEAE_J@Z"
	.p2align	2
"$cppxdata$??A?$span@E$0?0@gsl@@QEBAAEAE_J@Z":
	.long	429065506               # MagicNumber
	.long	1                       # MaxState
	.long	("$stateUnwindMap$??A?$span@E$0?0@gsl@@QEBAAEAE_J@Z")@IMGREL # UnwindMap
	.long	0                       # NumTryBlocks
	.long	0                       # TryBlockMap
	.long	3                       # IPMapEntries
	.long	("$ip2state$??A?$span@E$0?0@gsl@@QEBAAEAE_J@Z")@IMGREL # IPToStateXData
	.long	104                     # UnwindHelp
	.long	0                       # ESTypeList
	.long	1                       # EHFlags
"$stateUnwindMap$??A?$span@E$0?0@gsl@@QEBAAEAE_J@Z":
	.long	-1                      # ToState
	.long	"?dtor$6@?0???A?$span@E$0?0@gsl@@QEBAAEAE_J@Z@4HA"@IMGREL # Action
"$ip2state$??A?$span@E$0?0@gsl@@QEBAAEAE_J@Z":
	.long	.Lfunc_begin13@IMGREL   # IP
	.long	-1                      # ToState
	.long	.Ltmp67@IMGREL+1        # IP
	.long	0                       # ToState
	.long	.Ltmp68@IMGREL+1        # IP
	.long	-1                      # ToState
	.section	.text,"xr",discard,"??A?$span@E$0?0@gsl@@QEBAAEAE_J@Z"
                                        # -- End function
	.def	 "?test_convert_span_Joe@@YAEAEAUIDE_DRIVE_STATE@@@Z";
	.scl	2;
	.type	32;
	.endef
	.text
	.globl	"?test_convert_span_Joe@@YAEAEAUIDE_DRIVE_STATE@@@Z" # -- Begin function ?test_convert_span_Joe@@YAEAEAUIDE_DRIVE_STATE@@@Z
	.p2align	4, 0x90
"?test_convert_span_Joe@@YAEAEAUIDE_DRIVE_STATE@@@Z": # @"?test_convert_span_Joe@@YAEAEAUIDE_DRIVE_STATE@@@Z"
.Lfunc_begin14:
	.cv_func_id 14
	.cv_loc	14 1 145 0              # ..\tests\span_compile_only.cpp:145:0
.seh_proc "?test_convert_span_Joe@@YAEAEAUIDE_DRIVE_STATE@@@Z"
# %bb.0:
	sub	rsp, 88
	.seh_stackalloc 88
	.seh_endprologue
	mov	rax, qword ptr [rip + __security_cookie]
	xor	rax, rsp
	mov	qword ptr [rsp + 80], rax
	mov	qword ptr [rsp + 40], rcx
.Ltmp71:
	.cv_loc	14 1 146 0              # ..\tests\span_compile_only.cpp:146:0
	mov	rax, qword ptr [rsp + 40]
	mov	rcx, qword ptr [rax + 8]
	mov	qword ptr [rsp + 48], rcx
	mov	rax, qword ptr [rax + 16]
	mov	qword ptr [rsp + 56], rax
	lea	rcx, [rsp + 64]
.Ltmp72:
	#DEBUG_VALUE: test_convert_span_Joe:curBuffer <- [$rcx+0]
	lea	rdx, [rsp + 48]
	call	"??$convert_span@EV?$span@G$0?0@gsl@@@@YA?AV?$span@E$0?0@gsl@@V?$span@G$0?0@1@@Z"
.Ltmp73:
	xor	r8d, r8d
	mov	edx, r8d
	.cv_loc	14 1 148 0              # ..\tests\span_compile_only.cpp:148:0
	lea	rcx, [rsp + 64]
	call	"??A?$span@E$0?0@gsl@@QEBAAEAE_J@Z"
	mov	al, byte ptr [rax]
	mov	rcx, qword ptr [rsp + 80]
	xor	rcx, rsp
	mov	byte ptr [rsp + 39], al # 1-byte Spill
	call	__security_check_cookie
	mov	al, byte ptr [rsp + 39] # 1-byte Reload
	add	rsp, 88
	ret
.Ltmp74:
.Lfunc_end14:
	.seh_handlerdata
	.text
	.seh_endproc
                                        # -- End function
	.def	 "??$convert_span@EV?$span@G$0?0@gsl@@@@YA?AV?$span@E$0?0@gsl@@V?$span@G$0?0@1@@Z";
	.scl	2;
	.type	32;
	.endef
	.section	.text,"xr",discard,"??$convert_span@EV?$span@G$0?0@gsl@@@@YA?AV?$span@E$0?0@gsl@@V?$span@G$0?0@1@@Z"
	.globl	"??$convert_span@EV?$span@G$0?0@gsl@@@@YA?AV?$span@E$0?0@gsl@@V?$span@G$0?0@1@@Z" # -- Begin function ??$convert_span@EV?$span@G$0?0@gsl@@@@YA?AV?$span@E$0?0@gsl@@V?$span@G$0?0@1@@Z
	.p2align	4, 0x90
"??$convert_span@EV?$span@G$0?0@gsl@@@@YA?AV?$span@E$0?0@gsl@@V?$span@G$0?0@1@@Z": # @"??$convert_span@EV?$span@G$0?0@gsl@@@@YA?AV?$span@E$0?0@gsl@@V?$span@G$0?0@1@@Z"
.Lfunc_begin15:
	.cv_func_id 15
	.cv_loc	15 1 129 0              # ..\tests\span_compile_only.cpp:129:0
.seh_proc "??$convert_span@EV?$span@G$0?0@gsl@@@@YA?AV?$span@E$0?0@gsl@@V?$span@G$0?0@1@@Z"
# %bb.0:
	sub	rsp, 88
	.seh_stackalloc 88
	.seh_endprologue
	mov	rax, rcx
	#DEBUG_VALUE: convert_span<unsigned char,gsl::span<unsigned short,-1> >:s <- [$rdx+0]
.Ltmp75:
	.cv_loc	15 1 132 0              # ..\tests\span_compile_only.cpp:132:0
	mov	qword ptr [rsp + 72], rcx # 8-byte Spill
	mov	rcx, rdx
	mov	qword ptr [rsp + 64], rax # 8-byte Spill
	mov	qword ptr [rsp + 56], rdx # 8-byte Spill
.Ltmp76:
	#DEBUG_VALUE: convert_span<unsigned char,gsl::span<unsigned short,-1> >:s <- [DW_OP_plus_uconst 56, DW_OP_deref] [$rsp+0]
	call	"?data@?$span@G$0?0@gsl@@QEBAPEAGXZ"
	mov	qword ptr [rsp + 80], rax
	.cv_loc	15 1 133 0              # ..\tests\span_compile_only.cpp:133:0
	mov	rdx, qword ptr [rsp + 80]
	mov	rcx, qword ptr [rsp + 56] # 8-byte Reload
	mov	qword ptr [rsp + 48], rdx # 8-byte Spill
	call	"?size_bytes@?$span@G$0?0@gsl@@QEBA_JXZ"
	mov	r8d, 1
	mov	ecx, r8d
	cqo
	idiv	rcx
	mov	rcx, qword ptr [rsp + 72] # 8-byte Reload
	mov	r9, qword ptr [rsp + 48] # 8-byte Reload
	mov	rdx, r9
	mov	r8, rax
	call	"??0?$span@E$0?0@gsl@@QEAA@PEAE_J@Z"
	mov	rcx, qword ptr [rsp + 64] # 8-byte Reload
	mov	qword ptr [rsp + 40], rax # 8-byte Spill
	mov	rax, rcx
	add	rsp, 88
.Ltmp77:
	ret
.Ltmp78:
.Lfunc_end15:
	.seh_handlerdata
	.section	.text,"xr",discard,"??$convert_span@EV?$span@G$0?0@gsl@@@@YA?AV?$span@E$0?0@gsl@@V?$span@G$0?0@1@@Z"
	.seh_endproc
                                        # -- End function
	.def	 "?mysubspan1@@YA_JXZ";
	.scl	2;
	.type	32;
	.endef
	.text
	.globl	"?mysubspan1@@YA_JXZ"   # -- Begin function ?mysubspan1@@YA_JXZ
	.p2align	4, 0x90
"?mysubspan1@@YA_JXZ":                  # @"?mysubspan1@@YA_JXZ"
.Lfunc_begin16:
	.cv_func_id 16
	.cv_loc	16 1 155 0              # ..\tests\span_compile_only.cpp:155:0
.seh_proc "?mysubspan1@@YA_JXZ"
# %bb.0:
	sub	rsp, 120
	.seh_stackalloc 120
	.seh_endprologue
	mov	rax, qword ptr [rip + __security_cookie]
	xor	rax, rsp
	mov	qword ptr [rsp + 112], rax
.Ltmp79:
	.cv_loc	16 1 156 0              # ..\tests\span_compile_only.cpp:156:0
	mov	rax, qword ptr [rip + ".L?x@?1??mysubspan1@@YA_JXZ@3PAHA"]
	mov	qword ptr [rsp + 80], rax
	mov	rax, qword ptr [rip + ".L?x@?1??mysubspan1@@YA_JXZ@3PAHA"+8]
	mov	qword ptr [rsp + 88], rax
	mov	rax, qword ptr [rip + ".L?x@?1??mysubspan1@@YA_JXZ@3PAHA"+16]
	mov	qword ptr [rsp + 96], rax
	.cv_loc	16 1 157 0              # ..\tests\span_compile_only.cpp:157:0
	lea	rcx, [rsp + 72]
.Ltmp80:
	#DEBUG_VALUE: mysubspan1:s <- [$rcx+0]
	lea	rdx, [rsp + 80]
.Ltmp81:
	#DEBUG_VALUE: mysubspan1:x <- [$rdx+0]
	call	"??$?0$05@?$span@H$05@gsl@@QEAA@AEAY05H@Z"
.Ltmp82:
	mov	r8d, 3
                                        # kill: def $r8 killed $r8d
	.cv_loc	16 1 159 0              # ..\tests\span_compile_only.cpp:159:0
	lea	rcx, [rsp + 72]
	lea	rdx, [rsp + 56]
.Ltmp83:
	#DEBUG_VALUE: mysubspan1:subspan <- [$rdx+0]
	mov	qword ptr [rsp + 48], rax # 8-byte Spill
	call	"?last@?$span@H$05@gsl@@QEBA?AV?$span@H$0?0@2@_J@Z"
.Ltmp84:
	.cv_loc	16 1 161 0              # ..\tests\span_compile_only.cpp:161:0
	lea	rcx, [rsp + 56]
	call	"?size@?$span@H$0?0@gsl@@QEBA_JXZ"
	mov	rcx, qword ptr [rsp + 112]
	xor	rcx, rsp
	mov	qword ptr [rsp + 40], rax # 8-byte Spill
	call	__security_check_cookie
	mov	rax, qword ptr [rsp + 40] # 8-byte Reload
	add	rsp, 120
	ret
.Ltmp85:
.Lfunc_end16:
	.seh_handlerdata
	.text
	.seh_endproc
                                        # -- End function
	.def	 "??$?0$05@?$span@H$05@gsl@@QEAA@AEAY05H@Z";
	.scl	2;
	.type	32;
	.endef
	.section	.text,"xr",discard,"??$?0$05@?$span@H$05@gsl@@QEAA@AEAY05H@Z"
	.globl	"??$?0$05@?$span@H$05@gsl@@QEAA@AEAY05H@Z" # -- Begin function ??$?0$05@?$span@H$05@gsl@@QEAA@AEAY05H@Z
	.p2align	4, 0x90
"??$?0$05@?$span@H$05@gsl@@QEAA@AEAY05H@Z": # @"??$?0$05@?$span@H$05@gsl@@QEAA@AEAY05H@Z"
.Lfunc_begin17:
	.cv_func_id 17
	.cv_loc	17 2 395 0              # ..\include\gsl/span:395:0
.seh_proc "??$?0$05@?$span@H$05@gsl@@QEAA@AEAY05H@Z"
	.seh_handler __CxxFrameHandler3, @unwind, @except
# %bb.0:
	push	rbp
	.seh_pushreg 5
	sub	rsp, 96
	.seh_stackalloc 96
	lea	rbp, [rsp + 96]
	.seh_setframe 5, 96
	.seh_endprologue
	mov	qword ptr [rbp - 8], -2
	mov	qword ptr [rbp - 16], rdx
	mov	qword ptr [rbp - 24], rcx
	mov	rcx, qword ptr [rbp - 24]
	lea	rdx, [rbp - 32]
.Ltmp88:
	mov	qword ptr [rbp - 48], rcx # 8-byte Spill
	mov	rcx, rdx
	call	"??0?$extent_type@$05@details@gsl@@QEAA@XZ"
	mov	rcx, qword ptr [rbp - 16]
	mov	qword ptr [rbp - 56], rax # 8-byte Spill
	call	"??$addressof@H@std@@YAPEAHAEAH@Z"
	mov	qword ptr [rbp - 40], rax
	mov	rdx, qword ptr [rbp - 40]
	mov	r8b, byte ptr [rbp - 32]
.Ltmp86:
	mov	rcx, qword ptr [rbp - 48] # 8-byte Reload
	call	"??$?0V?$extent_type@$05@details@gsl@@@?$storage_type@V?$extent_type@$05@details@gsl@@@?$span@H$05@gsl@@QEAA@UKnownNotNull@12@V?$extent_type@$05@details@2@@Z"
.Ltmp87:
	mov	qword ptr [rbp - 64], rax # 8-byte Spill
	jmp	.LBB17_1
.LBB17_1:
	mov	rax, qword ptr [rbp - 48] # 8-byte Reload
	add	rsp, 96
	pop	rbp
	ret
	.seh_handlerdata
	.long	("$cppxdata$??$?0$05@?$span@H$05@gsl@@QEAA@AEAY05H@Z")@IMGREL
	.section	.text,"xr",discard,"??$?0$05@?$span@H$05@gsl@@QEAA@AEAY05H@Z"
	.seh_endproc
	.def	 "?dtor$2@?0???$?0$05@?$span@H$05@gsl@@QEAA@AEAY05H@Z@4HA";
	.scl	3;
	.type	32;
	.endef
	.p2align	4, 0x90
"?dtor$2@?0???$?0$05@?$span@H$05@gsl@@QEAA@AEAY05H@Z@4HA":
.seh_proc "?dtor$2@?0???$?0$05@?$span@H$05@gsl@@QEAA@AEAY05H@Z@4HA"
.LBB17_2:
	mov	qword ptr [rsp + 16], rdx
	push	rbp
	.seh_pushreg 5
	sub	rsp, 32
	.seh_stackalloc 32
	lea	rbp, [rdx + 96]
	.seh_endprologue
	mov	rax, qword ptr [rip + __imp___std_terminate]
	call	rax
	ud2
.Ltmp89:
.Lfunc_end17:
	.seh_handlerdata
	.section	.text,"xr",discard,"??$?0$05@?$span@H$05@gsl@@QEAA@AEAY05H@Z"
	.seh_endproc
	.section	.xdata,"dr",associative,"??$?0$05@?$span@H$05@gsl@@QEAA@AEAY05H@Z"
	.p2align	2
"$cppxdata$??$?0$05@?$span@H$05@gsl@@QEAA@AEAY05H@Z":
	.long	429065506               # MagicNumber
	.long	1                       # MaxState
	.long	("$stateUnwindMap$??$?0$05@?$span@H$05@gsl@@QEAA@AEAY05H@Z")@IMGREL # UnwindMap
	.long	0                       # NumTryBlocks
	.long	0                       # TryBlockMap
	.long	3                       # IPMapEntries
	.long	("$ip2state$??$?0$05@?$span@H$05@gsl@@QEAA@AEAY05H@Z")@IMGREL # IPToStateXData
	.long	88                      # UnwindHelp
	.long	0                       # ESTypeList
	.long	1                       # EHFlags
"$stateUnwindMap$??$?0$05@?$span@H$05@gsl@@QEAA@AEAY05H@Z":
	.long	-1                      # ToState
	.long	"?dtor$2@?0???$?0$05@?$span@H$05@gsl@@QEAA@AEAY05H@Z@4HA"@IMGREL # Action
"$ip2state$??$?0$05@?$span@H$05@gsl@@QEAA@AEAY05H@Z":
	.long	.Lfunc_begin17@IMGREL   # IP
	.long	-1                      # ToState
	.long	.Ltmp86@IMGREL+1        # IP
	.long	0                       # ToState
	.long	.Ltmp87@IMGREL+1        # IP
	.long	-1                      # ToState
	.section	.text,"xr",discard,"??$?0$05@?$span@H$05@gsl@@QEAA@AEAY05H@Z"
                                        # -- End function
	.def	 "?last@?$span@H$05@gsl@@QEBA?AV?$span@H$0?0@2@_J@Z";
	.scl	2;
	.type	32;
	.endef
	.section	.text,"xr",discard,"?last@?$span@H$05@gsl@@QEBA?AV?$span@H$0?0@2@_J@Z"
	.globl	"?last@?$span@H$05@gsl@@QEBA?AV?$span@H$0?0@2@_J@Z" # -- Begin function ?last@?$span@H$05@gsl@@QEBA?AV?$span@H$0?0@2@_J@Z
	.p2align	4, 0x90
"?last@?$span@H$05@gsl@@QEBA?AV?$span@H$0?0@2@_J@Z": # @"?last@?$span@H$05@gsl@@QEBA?AV?$span@H$0?0@2@_J@Z"
.Lfunc_begin18:
	.cv_func_id 18
	.cv_loc	18 2 487 0              # ..\include\gsl/span:487:0
.seh_proc "?last@?$span@H$05@gsl@@QEBA?AV?$span@H$0?0@2@_J@Z"
# %bb.0:
	sub	rsp, 104
	.seh_stackalloc 104
	.seh_endprologue
	mov	rax, rdx
	mov	qword ptr [rsp + 96], r8
	mov	qword ptr [rsp + 88], rcx
	mov	rcx, qword ptr [rsp + 88]
.Ltmp90:
	.cv_loc	18 2 488 0              # ..\include\gsl/span:488:0
	mov	qword ptr [rsp + 72], rcx # 8-byte Spill
	mov	qword ptr [rsp + 64], rax # 8-byte Spill
	mov	qword ptr [rsp + 56], rdx # 8-byte Spill
	call	"?size@?$span@H$05@gsl@@QEBA_JXZ"
	sub	rax, qword ptr [rsp + 96]
	mov	r9b, byte ptr [rsp + 80]
	mov	rcx, qword ptr [rsp + 72] # 8-byte Reload
	mov	rdx, qword ptr [rsp + 56] # 8-byte Reload
	mov	r8, rax
	mov	rax, -1
	mov	byte ptr [rsp + 55], r9b # 1-byte Spill
	mov	r9, rax
	mov	r10b, byte ptr [rsp + 55] # 1-byte Reload
	mov	byte ptr [rsp + 32], r10b
	call	"??$make_subspan@$05@?$span@H$05@gsl@@AEBA?AV?$span@H$0?0@1@_J0V?$subspan_selector@$05@01@@Z"
	mov	rax, qword ptr [rsp + 64] # 8-byte Reload
	add	rsp, 104
	ret
.Ltmp91:
.Lfunc_end18:
	.seh_handlerdata
	.section	.text,"xr",discard,"?last@?$span@H$05@gsl@@QEBA?AV?$span@H$0?0@2@_J@Z"
	.seh_endproc
                                        # -- End function
	.def	 "?mysubspan2@@YA_J_J@Z";
	.scl	2;
	.type	32;
	.endef
	.text
	.globl	"?mysubspan2@@YA_J_J@Z" # -- Begin function ?mysubspan2@@YA_J_J@Z
	.p2align	4, 0x90
"?mysubspan2@@YA_J_J@Z":                # @"?mysubspan2@@YA_J_J@Z"
.Lfunc_begin19:
	.cv_func_id 19
	.cv_loc	19 1 166 0              # ..\tests\span_compile_only.cpp:166:0
.seh_proc "?mysubspan2@@YA_J_J@Z"
# %bb.0:
	sub	rsp, 120
	.seh_stackalloc 120
	.seh_endprologue
	mov	rax, qword ptr [rip + __security_cookie]
	xor	rax, rsp
	mov	qword ptr [rsp + 112], rax
	mov	qword ptr [rsp + 48], rcx
.Ltmp92:
	.cv_loc	19 1 167 0              # ..\tests\span_compile_only.cpp:167:0
	mov	rax, qword ptr [rip + ".L?x@?1??mysubspan2@@YA_J_J@Z@3PAHA"]
	mov	qword ptr [rsp + 80], rax
	mov	rax, qword ptr [rip + ".L?x@?1??mysubspan2@@YA_J_J@Z@3PAHA"+8]
	mov	qword ptr [rsp + 88], rax
	mov	rax, qword ptr [rip + ".L?x@?1??mysubspan2@@YA_J_J@Z@3PAHA"+16]
	mov	qword ptr [rsp + 96], rax
	.cv_loc	19 1 168 0              # ..\tests\span_compile_only.cpp:168:0
	lea	rcx, [rsp + 72]
.Ltmp93:
	#DEBUG_VALUE: mysubspan2:s <- [$rcx+0]
	lea	rdx, [rsp + 80]
.Ltmp94:
	#DEBUG_VALUE: mysubspan2:x <- [$rdx+0]
	call	"??$?0$05@?$span@H$05@gsl@@QEAA@AEAY05H@Z"
.Ltmp95:
	.cv_loc	19 1 170 0              # ..\tests\span_compile_only.cpp:170:0
	mov	r8, qword ptr [rsp + 48]
	lea	rcx, [rsp + 72]
	lea	rdx, [rsp + 56]
.Ltmp96:
	#DEBUG_VALUE: mysubspan2:subspan <- [$rdx+0]
	mov	qword ptr [rsp + 40], rax # 8-byte Spill
	call	"?last@?$span@H$05@gsl@@QEBA?AV?$span@H$0?0@2@_J@Z"
.Ltmp97:
	.cv_loc	19 1 172 0              # ..\tests\span_compile_only.cpp:172:0
	lea	rcx, [rsp + 56]
	call	"?size@?$span@H$0?0@gsl@@QEBA_JXZ"
	mov	rcx, qword ptr [rsp + 112]
	xor	rcx, rsp
	mov	qword ptr [rsp + 32], rax # 8-byte Spill
	call	__security_check_cookie
	mov	rax, qword ptr [rsp + 32] # 8-byte Reload
	add	rsp, 120
	ret
.Ltmp98:
.Lfunc_end19:
	.seh_handlerdata
	.text
	.seh_endproc
                                        # -- End function
	.def	 "?mysubspan3@@YA_JXZ";
	.scl	2;
	.type	32;
	.endef
	.globl	"?mysubspan3@@YA_JXZ"   # -- Begin function ?mysubspan3@@YA_JXZ
	.p2align	4, 0x90
"?mysubspan3@@YA_JXZ":                  # @"?mysubspan3@@YA_JXZ"
.Lfunc_begin20:
	.cv_func_id 20
	.cv_loc	20 1 177 0              # ..\tests\span_compile_only.cpp:177:0
.seh_proc "?mysubspan3@@YA_JXZ"
# %bb.0:
	sub	rsp, 120
	.seh_stackalloc 120
	.seh_endprologue
	mov	rax, qword ptr [rip + __security_cookie]
	xor	rax, rsp
	mov	qword ptr [rsp + 112], rax
.Ltmp99:
	.cv_loc	20 1 178 0              # ..\tests\span_compile_only.cpp:178:0
	mov	rax, qword ptr [rip + ".L?x@?1??mysubspan3@@YA_JXZ@3PAHA"]
	mov	qword ptr [rsp + 80], rax
	mov	rax, qword ptr [rip + ".L?x@?1??mysubspan3@@YA_JXZ@3PAHA"+8]
	mov	qword ptr [rsp + 88], rax
	mov	rax, qword ptr [rip + ".L?x@?1??mysubspan3@@YA_JXZ@3PAHA"+16]
	mov	qword ptr [rsp + 96], rax
	.cv_loc	20 1 179 0              # ..\tests\span_compile_only.cpp:179:0
	lea	rcx, [rsp + 72]
.Ltmp100:
	#DEBUG_VALUE: mysubspan3:s <- [$rcx+0]
	lea	rdx, [rsp + 80]
.Ltmp101:
	#DEBUG_VALUE: mysubspan3:x <- [$rdx+0]
	call	"??$?0$05@?$span@H$05@gsl@@QEAA@AEAY05H@Z"
.Ltmp102:
	mov	r8d, 3
                                        # kill: def $r8 killed $r8d
	.cv_loc	20 1 181 0              # ..\tests\span_compile_only.cpp:181:0
	lea	rcx, [rsp + 72]
	lea	rdx, [rsp + 56]
.Ltmp103:
	#DEBUG_VALUE: mysubspan3:subspan <- [$rdx+0]
	mov	r9, -1
	mov	qword ptr [rsp + 48], rax # 8-byte Spill
	call	"?subspan@?$span@H$05@gsl@@QEBA?AV?$span@H$0?0@2@_J0@Z"
.Ltmp104:
	.cv_loc	20 1 183 0              # ..\tests\span_compile_only.cpp:183:0
	lea	rcx, [rsp + 56]
	call	"?size@?$span@H$0?0@gsl@@QEBA_JXZ"
	mov	rcx, qword ptr [rsp + 112]
	xor	rcx, rsp
	mov	qword ptr [rsp + 40], rax # 8-byte Spill
	call	__security_check_cookie
	mov	rax, qword ptr [rsp + 40] # 8-byte Reload
	add	rsp, 120
	ret
.Ltmp105:
.Lfunc_end20:
	.seh_handlerdata
	.text
	.seh_endproc
                                        # -- End function
	.def	 "?subspan@?$span@H$05@gsl@@QEBA?AV?$span@H$0?0@2@_J0@Z";
	.scl	2;
	.type	32;
	.endef
	.section	.text,"xr",discard,"?subspan@?$span@H$05@gsl@@QEBA?AV?$span@H$0?0@2@_J0@Z"
	.globl	"?subspan@?$span@H$05@gsl@@QEBA?AV?$span@H$0?0@2@_J0@Z" # -- Begin function ?subspan@?$span@H$05@gsl@@QEBA?AV?$span@H$0?0@2@_J0@Z
	.p2align	4, 0x90
"?subspan@?$span@H$05@gsl@@QEBA?AV?$span@H$0?0@2@_J0@Z": # @"?subspan@?$span@H$05@gsl@@QEBA?AV?$span@H$0?0@2@_J0@Z"
.Lfunc_begin21:
	.cv_func_id 21
	.cv_loc	21 2 493 0              # ..\include\gsl/span:493:0
.seh_proc "?subspan@?$span@H$05@gsl@@QEBA?AV?$span@H$0?0@2@_J0@Z"
# %bb.0:
	sub	rsp, 88
	.seh_stackalloc 88
	.seh_endprologue
	mov	rax, rdx
	mov	qword ptr [rsp + 80], r9
	mov	qword ptr [rsp + 72], r8
	mov	qword ptr [rsp + 64], rcx
	mov	rcx, qword ptr [rsp + 64]
.Ltmp106:
	.cv_loc	21 2 494 0              # ..\include\gsl/span:494:0
	mov	r9, qword ptr [rsp + 80]
	mov	r8, qword ptr [rsp + 72]
	mov	r10b, byte ptr [rsp + 56]
	mov	byte ptr [rsp + 32], r10b
	mov	qword ptr [rsp + 48], rax # 8-byte Spill
	call	"??$make_subspan@$05@?$span@H$05@gsl@@AEBA?AV?$span@H$0?0@1@_J0V?$subspan_selector@$05@01@@Z"
	mov	rax, qword ptr [rsp + 48] # 8-byte Reload
	add	rsp, 88
	ret
.Ltmp107:
.Lfunc_end21:
	.seh_handlerdata
	.section	.text,"xr",discard,"?subspan@?$span@H$05@gsl@@QEBA?AV?$span@H$0?0@2@_J0@Z"
	.seh_endproc
                                        # -- End function
	.def	 "?mysubspan4@@YA?AV?$span@H$0?0@gsl@@PEAH_J1@Z";
	.scl	2;
	.type	32;
	.endef
	.text
	.globl	"?mysubspan4@@YA?AV?$span@H$0?0@gsl@@PEAH_J1@Z" # -- Begin function ?mysubspan4@@YA?AV?$span@H$0?0@gsl@@PEAH_J1@Z
	.p2align	4, 0x90
"?mysubspan4@@YA?AV?$span@H$0?0@gsl@@PEAH_J1@Z": # @"?mysubspan4@@YA?AV?$span@H$0?0@gsl@@PEAH_J1@Z"
.Lfunc_begin22:
	.cv_func_id 22
	.cv_loc	22 1 188 0              # ..\tests\span_compile_only.cpp:188:0
.seh_proc "?mysubspan4@@YA?AV?$span@H$0?0@gsl@@PEAH_J1@Z"
# %bb.0:
	sub	rsp, 120
	.seh_stackalloc 120
	.seh_endprologue
	mov	rax, rcx
	mov	r10, qword ptr [rip + __security_cookie]
	xor	r10, rsp
	mov	qword ptr [rsp + 112], r10
	mov	qword ptr [rsp + 88], r9
	mov	qword ptr [rsp + 80], r8
	mov	qword ptr [rsp + 72], rdx
.Ltmp108:
	.cv_loc	22 1 189 0              # ..\tests\span_compile_only.cpp:189:0
	cmp	qword ptr [rsp + 72], 0
	mov	qword ptr [rsp + 64], rax # 8-byte Spill
	mov	qword ptr [rsp + 56], rcx # 8-byte Spill
	je	.LBB22_2
# %bb.1:
.Ltmp109:
	.cv_loc	22 1 191 0              # ..\tests\span_compile_only.cpp:191:0
	mov	rdx, qword ptr [rsp + 72]
	mov	r8, qword ptr [rsp + 80]
	lea	rcx, [rsp + 96]
.Ltmp110:
	#DEBUG_VALUE: s <- [$rcx+0]
	call	"??0?$span@H$0?0@gsl@@QEAA@PEAH_J@Z"
.Ltmp111:
	.cv_loc	22 1 192 0              # ..\tests\span_compile_only.cpp:192:0
	mov	r8, qword ptr [rsp + 88]
	lea	rcx, [rsp + 96]
	mov	rdx, qword ptr [rsp + 56] # 8-byte Reload
	mov	qword ptr [rsp + 48], rax # 8-byte Spill
	call	"?last@?$span@H$0?0@gsl@@QEBA?AV12@_J@Z"
	jmp	.LBB22_3
.Ltmp112:
.LBB22_2:
	.cv_loc	22 1 195 0              # ..\tests\span_compile_only.cpp:195:0
	mov	rcx, qword ptr [rsp + 56] # 8-byte Reload
	call	"??$?0$0A@X@?$span@H$0?0@gsl@@QEAA@XZ"
	mov	qword ptr [rsp + 40], rax # 8-byte Spill
.LBB22_3:
	.cv_loc	22 1 196 0              # ..\tests\span_compile_only.cpp:196:0
	mov	rax, qword ptr [rsp + 112]
	xor	rax, rsp
	mov	rcx, rax
	call	__security_check_cookie
	mov	rax, qword ptr [rsp + 64] # 8-byte Reload
	add	rsp, 120
	ret
.Ltmp113:
.Lfunc_end22:
	.seh_handlerdata
	.text
	.seh_endproc
                                        # -- End function
	.def	 "??0?$span@H$0?0@gsl@@QEAA@PEAH_J@Z";
	.scl	2;
	.type	32;
	.endef
	.section	.text,"xr",discard,"??0?$span@H$0?0@gsl@@QEAA@PEAH_J@Z"
	.globl	"??0?$span@H$0?0@gsl@@QEAA@PEAH_J@Z" # -- Begin function ??0?$span@H$0?0@gsl@@QEAA@PEAH_J@Z
	.p2align	4, 0x90
"??0?$span@H$0?0@gsl@@QEAA@PEAH_J@Z":   # @"??0?$span@H$0?0@gsl@@QEAA@PEAH_J@Z"
.Lfunc_begin23:
	.cv_func_id 23
	.cv_loc	23 2 386 0              # ..\include\gsl/span:386:0
.seh_proc "??0?$span@H$0?0@gsl@@QEAA@PEAH_J@Z"
# %bb.0:
	sub	rsp, 72
	.seh_stackalloc 72
	.seh_endprologue
	mov	qword ptr [rsp + 64], r8
	mov	qword ptr [rsp + 56], rdx
	mov	qword ptr [rsp + 48], rcx
	mov	rcx, qword ptr [rsp + 48]
.Ltmp114:
	mov	r8, qword ptr [rsp + 64]
	mov	rdx, qword ptr [rsp + 56]
	mov	qword ptr [rsp + 40], rcx # 8-byte Spill
	call	"??$?0_J@?$storage_type@V?$extent_type@$0?0@details@gsl@@@?$span@H$0?0@gsl@@QEAA@PEAH_J@Z"
	mov	rcx, qword ptr [rsp + 40] # 8-byte Reload
	mov	qword ptr [rsp + 32], rax # 8-byte Spill
	mov	rax, rcx
	add	rsp, 72
	ret
.Ltmp115:
.Lfunc_end23:
	.seh_handlerdata
	.section	.text,"xr",discard,"??0?$span@H$0?0@gsl@@QEAA@PEAH_J@Z"
	.seh_endproc
                                        # -- End function
	.def	 "?last@?$span@H$0?0@gsl@@QEBA?AV12@_J@Z";
	.scl	2;
	.type	32;
	.endef
	.section	.text,"xr",discard,"?last@?$span@H$0?0@gsl@@QEBA?AV12@_J@Z"
	.globl	"?last@?$span@H$0?0@gsl@@QEBA?AV12@_J@Z" # -- Begin function ?last@?$span@H$0?0@gsl@@QEBA?AV12@_J@Z
	.p2align	4, 0x90
"?last@?$span@H$0?0@gsl@@QEBA?AV12@_J@Z": # @"?last@?$span@H$0?0@gsl@@QEBA?AV12@_J@Z"
.Lfunc_begin24:
	.cv_func_id 24
	.cv_loc	24 2 487 0              # ..\include\gsl/span:487:0
.seh_proc "?last@?$span@H$0?0@gsl@@QEBA?AV12@_J@Z"
# %bb.0:
	sub	rsp, 104
	.seh_stackalloc 104
	.seh_endprologue
	mov	rax, rdx
	mov	qword ptr [rsp + 96], r8
	mov	qword ptr [rsp + 88], rcx
	mov	rcx, qword ptr [rsp + 88]
.Ltmp116:
	.cv_loc	24 2 488 0              # ..\include\gsl/span:488:0
	mov	qword ptr [rsp + 72], rcx # 8-byte Spill
	mov	qword ptr [rsp + 64], rax # 8-byte Spill
	mov	qword ptr [rsp + 56], rdx # 8-byte Spill
	call	"?size@?$span@H$0?0@gsl@@QEBA_JXZ"
	sub	rax, qword ptr [rsp + 96]
	mov	r9b, byte ptr [rsp + 80]
	mov	rcx, qword ptr [rsp + 72] # 8-byte Reload
	mov	rdx, qword ptr [rsp + 56] # 8-byte Reload
	mov	r8, rax
	mov	rax, -1
	mov	byte ptr [rsp + 55], r9b # 1-byte Spill
	mov	r9, rax
	mov	r10b, byte ptr [rsp + 55] # 1-byte Reload
	mov	byte ptr [rsp + 32], r10b
	call	"?make_subspan@?$span@H$0?0@gsl@@AEBA?AV12@_J0V?$subspan_selector@$0?0@12@@Z"
	mov	rax, qword ptr [rsp + 64] # 8-byte Reload
	add	rsp, 104
	ret
.Ltmp117:
.Lfunc_end24:
	.seh_handlerdata
	.section	.text,"xr",discard,"?last@?$span@H$0?0@gsl@@QEBA?AV12@_J@Z"
	.seh_endproc
                                        # -- End function
	.def	 "??$?0$0A@X@?$span@H$0?0@gsl@@QEAA@XZ";
	.scl	2;
	.type	32;
	.endef
	.section	.text,"xr",discard,"??$?0$0A@X@?$span@H$0?0@gsl@@QEAA@XZ"
	.globl	"??$?0$0A@X@?$span@H$0?0@gsl@@QEAA@XZ" # -- Begin function ??$?0$0A@X@?$span@H$0?0@gsl@@QEAA@XZ
	.p2align	4, 0x90
"??$?0$0A@X@?$span@H$0?0@gsl@@QEAA@XZ": # @"??$?0$0A@X@?$span@H$0?0@gsl@@QEAA@XZ"
.Lfunc_begin25:
	.cv_func_id 25
	.cv_loc	25 2 384 0              # ..\include\gsl/span:384:0
.seh_proc "??$?0$0A@X@?$span@H$0?0@gsl@@QEAA@XZ"
	.seh_handler __CxxFrameHandler3, @unwind, @except
# %bb.0:
	push	rbp
	.seh_pushreg 5
	sub	rsp, 80
	.seh_stackalloc 80
	lea	rbp, [rsp + 80]
	.seh_setframe 5, 80
	.seh_endprologue
	mov	qword ptr [rbp - 8], -2
	mov	qword ptr [rbp - 16], rcx
	mov	rcx, qword ptr [rbp - 16]
	lea	rax, [rbp - 24]
.Ltmp120:
	mov	qword ptr [rbp - 32], rcx # 8-byte Spill
	mov	rcx, rax
	call	"??0?$extent_type@$0A@@details@gsl@@QEAA@XZ"
	mov	r8b, byte ptr [rbp - 24]
.Ltmp118:
	xor	edx, edx
                                        # kill: def $rdx killed $edx
	mov	rcx, qword ptr [rbp - 32] # 8-byte Reload
	mov	qword ptr [rbp - 40], rax # 8-byte Spill
	call	"??$?0V?$extent_type@$0A@@details@gsl@@@?$storage_type@V?$extent_type@$0?0@details@gsl@@@?$span@H$0?0@gsl@@QEAA@PEAHV?$extent_type@$0A@@details@2@@Z"
.Ltmp119:
	mov	qword ptr [rbp - 48], rax # 8-byte Spill
	jmp	.LBB25_1
.LBB25_1:
	mov	rax, qword ptr [rbp - 32] # 8-byte Reload
	add	rsp, 80
	pop	rbp
	ret
	.seh_handlerdata
	.long	("$cppxdata$??$?0$0A@X@?$span@H$0?0@gsl@@QEAA@XZ")@IMGREL
	.section	.text,"xr",discard,"??$?0$0A@X@?$span@H$0?0@gsl@@QEAA@XZ"
	.seh_endproc
	.def	 "?dtor$2@?0???$?0$0A@X@?$span@H$0?0@gsl@@QEAA@XZ@4HA";
	.scl	3;
	.type	32;
	.endef
	.p2align	4, 0x90
"?dtor$2@?0???$?0$0A@X@?$span@H$0?0@gsl@@QEAA@XZ@4HA":
.seh_proc "?dtor$2@?0???$?0$0A@X@?$span@H$0?0@gsl@@QEAA@XZ@4HA"
.LBB25_2:
	mov	qword ptr [rsp + 16], rdx
	push	rbp
	.seh_pushreg 5
	sub	rsp, 32
	.seh_stackalloc 32
	lea	rbp, [rdx + 80]
	.seh_endprologue
	mov	rax, qword ptr [rip + __imp___std_terminate]
	call	rax
	ud2
.Ltmp121:
.Lfunc_end25:
	.seh_handlerdata
	.section	.text,"xr",discard,"??$?0$0A@X@?$span@H$0?0@gsl@@QEAA@XZ"
	.seh_endproc
	.section	.xdata,"dr",associative,"??$?0$0A@X@?$span@H$0?0@gsl@@QEAA@XZ"
	.p2align	2
"$cppxdata$??$?0$0A@X@?$span@H$0?0@gsl@@QEAA@XZ":
	.long	429065506               # MagicNumber
	.long	1                       # MaxState
	.long	("$stateUnwindMap$??$?0$0A@X@?$span@H$0?0@gsl@@QEAA@XZ")@IMGREL # UnwindMap
	.long	0                       # NumTryBlocks
	.long	0                       # TryBlockMap
	.long	3                       # IPMapEntries
	.long	("$ip2state$??$?0$0A@X@?$span@H$0?0@gsl@@QEAA@XZ")@IMGREL # IPToStateXData
	.long	72                      # UnwindHelp
	.long	0                       # ESTypeList
	.long	1                       # EHFlags
"$stateUnwindMap$??$?0$0A@X@?$span@H$0?0@gsl@@QEAA@XZ":
	.long	-1                      # ToState
	.long	"?dtor$2@?0???$?0$0A@X@?$span@H$0?0@gsl@@QEAA@XZ@4HA"@IMGREL # Action
"$ip2state$??$?0$0A@X@?$span@H$0?0@gsl@@QEAA@XZ":
	.long	.Lfunc_begin25@IMGREL   # IP
	.long	-1                      # ToState
	.long	.Ltmp118@IMGREL+1       # IP
	.long	0                       # ToState
	.long	.Ltmp119@IMGREL+1       # IP
	.long	-1                      # ToState
	.section	.text,"xr",discard,"??$?0$0A@X@?$span@H$0?0@gsl@@QEAA@XZ"
                                        # -- End function
	.def	 "?mysubspan5@@YA?AV?$span@H$0?0@gsl@@PEAH_J1@Z";
	.scl	2;
	.type	32;
	.endef
	.text
	.globl	"?mysubspan5@@YA?AV?$span@H$0?0@gsl@@PEAH_J1@Z" # -- Begin function ?mysubspan5@@YA?AV?$span@H$0?0@gsl@@PEAH_J1@Z
	.p2align	4, 0x90
"?mysubspan5@@YA?AV?$span@H$0?0@gsl@@PEAH_J1@Z": # @"?mysubspan5@@YA?AV?$span@H$0?0@gsl@@PEAH_J1@Z"
.Lfunc_begin26:
	.cv_func_id 26
	.cv_loc	26 1 199 0              # ..\tests\span_compile_only.cpp:199:0
.seh_proc "?mysubspan5@@YA?AV?$span@H$0?0@gsl@@PEAH_J1@Z"
# %bb.0:
	sub	rsp, 120
	.seh_stackalloc 120
	.seh_endprologue
	mov	rax, rcx
	mov	r10, qword ptr [rip + __security_cookie]
	xor	r10, rsp
	mov	qword ptr [rsp + 112], r10
	mov	qword ptr [rsp + 88], r9
	mov	qword ptr [rsp + 80], r8
	mov	qword ptr [rsp + 72], rdx
.Ltmp122:
	.cv_loc	26 1 200 0              # ..\tests\span_compile_only.cpp:200:0
	cmp	qword ptr [rsp + 72], 0
	mov	qword ptr [rsp + 64], rax # 8-byte Spill
	mov	qword ptr [rsp + 56], rcx # 8-byte Spill
	je	.LBB26_2
# %bb.1:
.Ltmp123:
	.cv_loc	26 1 202 0              # ..\tests\span_compile_only.cpp:202:0
	mov	rdx, qword ptr [rsp + 72]
	mov	r8, qword ptr [rsp + 80]
	lea	rcx, [rsp + 96]
.Ltmp124:
	#DEBUG_VALUE: s <- [$rcx+0]
	call	"??0?$span@H$0?0@gsl@@QEAA@PEAH_J@Z"
.Ltmp125:
	.cv_loc	26 1 203 0              # ..\tests\span_compile_only.cpp:203:0
	mov	r8, qword ptr [rsp + 88]
	lea	rcx, [rsp + 96]
	mov	rdx, qword ptr [rsp + 56] # 8-byte Reload
	mov	r9, -1
	mov	qword ptr [rsp + 48], rax # 8-byte Spill
	call	"?subspan@?$span@H$0?0@gsl@@QEBA?AV12@_J0@Z"
	jmp	.LBB26_3
.Ltmp126:
.LBB26_2:
	.cv_loc	26 1 206 0              # ..\tests\span_compile_only.cpp:206:0
	mov	rcx, qword ptr [rsp + 56] # 8-byte Reload
	call	"??$?0$0A@X@?$span@H$0?0@gsl@@QEAA@XZ"
	mov	qword ptr [rsp + 40], rax # 8-byte Spill
.LBB26_3:
	.cv_loc	26 1 207 0              # ..\tests\span_compile_only.cpp:207:0
	mov	rax, qword ptr [rsp + 112]
	xor	rax, rsp
	mov	rcx, rax
	call	__security_check_cookie
	mov	rax, qword ptr [rsp + 64] # 8-byte Reload
	add	rsp, 120
	ret
.Ltmp127:
.Lfunc_end26:
	.seh_handlerdata
	.text
	.seh_endproc
                                        # -- End function
	.def	 "?subspan@?$span@H$0?0@gsl@@QEBA?AV12@_J0@Z";
	.scl	2;
	.type	32;
	.endef
	.section	.text,"xr",discard,"?subspan@?$span@H$0?0@gsl@@QEBA?AV12@_J0@Z"
	.globl	"?subspan@?$span@H$0?0@gsl@@QEBA?AV12@_J0@Z" # -- Begin function ?subspan@?$span@H$0?0@gsl@@QEBA?AV12@_J0@Z
	.p2align	4, 0x90
"?subspan@?$span@H$0?0@gsl@@QEBA?AV12@_J0@Z": # @"?subspan@?$span@H$0?0@gsl@@QEBA?AV12@_J0@Z"
.Lfunc_begin27:
	.cv_func_id 27
	.cv_loc	27 2 493 0              # ..\include\gsl/span:493:0
.seh_proc "?subspan@?$span@H$0?0@gsl@@QEBA?AV12@_J0@Z"
# %bb.0:
	sub	rsp, 88
	.seh_stackalloc 88
	.seh_endprologue
	mov	rax, rdx
	mov	qword ptr [rsp + 80], r9
	mov	qword ptr [rsp + 72], r8
	mov	qword ptr [rsp + 64], rcx
	mov	rcx, qword ptr [rsp + 64]
.Ltmp128:
	.cv_loc	27 2 494 0              # ..\include\gsl/span:494:0
	mov	r9, qword ptr [rsp + 80]
	mov	r8, qword ptr [rsp + 72]
	mov	r10b, byte ptr [rsp + 56]
	mov	byte ptr [rsp + 32], r10b
	mov	qword ptr [rsp + 48], rax # 8-byte Spill
	call	"?make_subspan@?$span@H$0?0@gsl@@AEBA?AV12@_J0V?$subspan_selector@$0?0@12@@Z"
	mov	rax, qword ptr [rsp + 48] # 8-byte Reload
	add	rsp, 88
	ret
.Ltmp129:
.Lfunc_end27:
	.seh_handlerdata
	.section	.text,"xr",discard,"?subspan@?$span@H$0?0@gsl@@QEBA?AV12@_J0@Z"
	.seh_endproc
                                        # -- End function
	.def	 "?mysubspan6@@YA?AV?$span@H$0?0@gsl@@PEAH_J@Z";
	.scl	2;
	.type	32;
	.endef
	.text
	.globl	"?mysubspan6@@YA?AV?$span@H$0?0@gsl@@PEAH_J@Z" # -- Begin function ?mysubspan6@@YA?AV?$span@H$0?0@gsl@@PEAH_J@Z
	.p2align	4, 0x90
"?mysubspan6@@YA?AV?$span@H$0?0@gsl@@PEAH_J@Z": # @"?mysubspan6@@YA?AV?$span@H$0?0@gsl@@PEAH_J@Z"
.Lfunc_begin28:
	.cv_func_id 28
	.cv_loc	28 1 211 0              # ..\tests\span_compile_only.cpp:211:0
.seh_proc "?mysubspan6@@YA?AV?$span@H$0?0@gsl@@PEAH_J@Z"
# %bb.0:
	sub	rsp, 104
	.seh_stackalloc 104
	.seh_endprologue
	mov	rax, rcx
	mov	r9, qword ptr [rip + __security_cookie]
	xor	r9, rsp
	mov	qword ptr [rsp + 96], r9
	mov	qword ptr [rsp + 72], r8
	mov	qword ptr [rsp + 64], rdx
.Ltmp130:
	.cv_loc	28 1 212 0              # ..\tests\span_compile_only.cpp:212:0
	cmp	qword ptr [rsp + 64], 0
	mov	qword ptr [rsp + 56], rax # 8-byte Spill
	mov	qword ptr [rsp + 48], rcx # 8-byte Spill
	je	.LBB28_2
# %bb.1:
.Ltmp131:
	.cv_loc	28 1 214 0              # ..\tests\span_compile_only.cpp:214:0
	mov	rdx, qword ptr [rsp + 64]
	mov	r8, qword ptr [rsp + 72]
	lea	rcx, [rsp + 80]
.Ltmp132:
	#DEBUG_VALUE: s <- [$rcx+0]
	call	"??0?$span@H$0?0@gsl@@QEAA@PEAH_J@Z"
.Ltmp133:
	mov	r9d, 3
	mov	r8d, r9d
	.cv_loc	28 1 215 0              # ..\tests\span_compile_only.cpp:215:0
	lea	rcx, [rsp + 80]
	mov	rdx, qword ptr [rsp + 48] # 8-byte Reload
	mov	r9, -1
	mov	qword ptr [rsp + 40], rax # 8-byte Spill
	call	"?subspan@?$span@H$0?0@gsl@@QEBA?AV12@_J0@Z"
	jmp	.LBB28_3
.Ltmp134:
.LBB28_2:
	.cv_loc	28 1 218 0              # ..\tests\span_compile_only.cpp:218:0
	mov	rcx, qword ptr [rsp + 48] # 8-byte Reload
	call	"??$?0$0A@X@?$span@H$0?0@gsl@@QEAA@XZ"
	mov	qword ptr [rsp + 32], rax # 8-byte Spill
.LBB28_3:
	.cv_loc	28 1 219 0              # ..\tests\span_compile_only.cpp:219:0
	mov	rax, qword ptr [rsp + 96]
	xor	rax, rsp
	mov	rcx, rax
	call	__security_check_cookie
	mov	rax, qword ptr [rsp + 56] # 8-byte Reload
	add	rsp, 104
	ret
.Ltmp135:
.Lfunc_end28:
	.seh_handlerdata
	.text
	.seh_endproc
                                        # -- End function
	.def	 "?mysubspan7@@YA?AV?$span@H$0?0@gsl@@PEAH_J1@Z";
	.scl	2;
	.type	32;
	.endef
	.globl	"?mysubspan7@@YA?AV?$span@H$0?0@gsl@@PEAH_J1@Z" # -- Begin function ?mysubspan7@@YA?AV?$span@H$0?0@gsl@@PEAH_J1@Z
	.p2align	4, 0x90
"?mysubspan7@@YA?AV?$span@H$0?0@gsl@@PEAH_J1@Z": # @"?mysubspan7@@YA?AV?$span@H$0?0@gsl@@PEAH_J1@Z"
.Lfunc_begin29:
	.cv_func_id 29
	.cv_loc	29 1 223 0              # ..\tests\span_compile_only.cpp:223:0
.seh_proc "?mysubspan7@@YA?AV?$span@H$0?0@gsl@@PEAH_J1@Z"
# %bb.0:
	sub	rsp, 120
	.seh_stackalloc 120
	.seh_endprologue
	mov	rax, rcx
	mov	r10, qword ptr [rip + __security_cookie]
	xor	r10, rsp
	mov	qword ptr [rsp + 112], r10
	mov	qword ptr [rsp + 88], r9
	mov	qword ptr [rsp + 80], r8
	mov	qword ptr [rsp + 72], rdx
.Ltmp136:
	.cv_loc	29 1 224 0              # ..\tests\span_compile_only.cpp:224:0
	cmp	qword ptr [rsp + 72], 0
	mov	qword ptr [rsp + 64], rax # 8-byte Spill
	mov	qword ptr [rsp + 56], rcx # 8-byte Spill
	je	.LBB29_2
# %bb.1:
.Ltmp137:
	.cv_loc	29 1 226 0              # ..\tests\span_compile_only.cpp:226:0
	mov	rdx, qword ptr [rsp + 72]
	mov	r8, qword ptr [rsp + 80]
	lea	rcx, [rsp + 96]
.Ltmp138:
	#DEBUG_VALUE: s <- [$rcx+0]
	call	"??0?$span@H$0?0@gsl@@QEAA@PEAH_J@Z"
.Ltmp139:
	mov	r9d, 3
                                        # kill: def $r9 killed $r9d
	.cv_loc	29 1 227 0              # ..\tests\span_compile_only.cpp:227:0
	mov	r8, qword ptr [rsp + 88]
	lea	rcx, [rsp + 96]
	mov	rdx, qword ptr [rsp + 56] # 8-byte Reload
	mov	qword ptr [rsp + 48], rax # 8-byte Spill
	call	"?subspan@?$span@H$0?0@gsl@@QEBA?AV12@_J0@Z"
	jmp	.LBB29_3
.Ltmp140:
.LBB29_2:
	.cv_loc	29 1 230 0              # ..\tests\span_compile_only.cpp:230:0
	mov	rcx, qword ptr [rsp + 56] # 8-byte Reload
	call	"??$?0$0A@X@?$span@H$0?0@gsl@@QEAA@XZ"
	mov	qword ptr [rsp + 40], rax # 8-byte Spill
.LBB29_3:
	.cv_loc	29 1 231 0              # ..\tests\span_compile_only.cpp:231:0
	mov	rax, qword ptr [rsp + 112]
	xor	rax, rsp
	mov	rcx, rax
	call	__security_check_cookie
	mov	rax, qword ptr [rsp + 64] # 8-byte Reload
	add	rsp, 120
	ret
.Ltmp141:
.Lfunc_end29:
	.seh_handlerdata
	.text
	.seh_endproc
                                        # -- End function
	.def	 "?mysubspan8@@YA?AV?$span@H$0?0@gsl@@PEAH_J1@Z";
	.scl	2;
	.type	32;
	.endef
	.globl	"?mysubspan8@@YA?AV?$span@H$0?0@gsl@@PEAH_J1@Z" # -- Begin function ?mysubspan8@@YA?AV?$span@H$0?0@gsl@@PEAH_J1@Z
	.p2align	4, 0x90
"?mysubspan8@@YA?AV?$span@H$0?0@gsl@@PEAH_J1@Z": # @"?mysubspan8@@YA?AV?$span@H$0?0@gsl@@PEAH_J1@Z"
.Lfunc_begin30:
	.cv_func_id 30
	.cv_loc	30 1 234 0              # ..\tests\span_compile_only.cpp:234:0
.seh_proc "?mysubspan8@@YA?AV?$span@H$0?0@gsl@@PEAH_J1@Z"
# %bb.0:
	sub	rsp, 120
	.seh_stackalloc 120
	.seh_endprologue
	mov	rax, rcx
	mov	r10, qword ptr [rip + __security_cookie]
	xor	r10, rsp
	mov	qword ptr [rsp + 112], r10
	mov	qword ptr [rsp + 88], r9
	mov	qword ptr [rsp + 80], r8
	mov	qword ptr [rsp + 72], rdx
.Ltmp142:
	.cv_loc	30 1 235 0              # ..\tests\span_compile_only.cpp:235:0
	cmp	qword ptr [rsp + 72], 0
	mov	qword ptr [rsp + 64], rax # 8-byte Spill
	mov	qword ptr [rsp + 56], rcx # 8-byte Spill
	je	.LBB30_2
# %bb.1:
.Ltmp143:
	.cv_loc	30 1 237 0              # ..\tests\span_compile_only.cpp:237:0
	mov	rdx, qword ptr [rsp + 72]
	mov	r8, qword ptr [rsp + 80]
	lea	rcx, [rsp + 96]
.Ltmp144:
	#DEBUG_VALUE: s <- [$rcx+0]
	call	"??0?$span@H$0?0@gsl@@QEAA@PEAH_J@Z"
.Ltmp145:
	.cv_loc	30 1 238 0              # ..\tests\span_compile_only.cpp:238:0
	mov	rcx, qword ptr [rsp + 80]
	sub	rcx, qword ptr [rsp + 88]
	mov	r8, qword ptr [rsp + 88]
	lea	rdx, [rsp + 96]
	mov	qword ptr [rsp + 48], rcx # 8-byte Spill
	mov	rcx, rdx
	mov	rdx, qword ptr [rsp + 56] # 8-byte Reload
	mov	r9, qword ptr [rsp + 48] # 8-byte Reload
	mov	qword ptr [rsp + 40], rax # 8-byte Spill
	call	"?subspan@?$span@H$0?0@gsl@@QEBA?AV12@_J0@Z"
	jmp	.LBB30_3
.Ltmp146:
.LBB30_2:
	.cv_loc	30 1 241 0              # ..\tests\span_compile_only.cpp:241:0
	mov	rcx, qword ptr [rsp + 56] # 8-byte Reload
	call	"??$?0$0A@X@?$span@H$0?0@gsl@@QEAA@XZ"
	mov	qword ptr [rsp + 32], rax # 8-byte Spill
.LBB30_3:
	.cv_loc	30 1 242 0              # ..\tests\span_compile_only.cpp:242:0
	mov	rax, qword ptr [rsp + 112]
	xor	rax, rsp
	mov	rcx, rax
	call	__security_check_cookie
	mov	rax, qword ptr [rsp + 64] # 8-byte Reload
	add	rsp, 120
	ret
.Ltmp147:
.Lfunc_end30:
	.seh_handlerdata
	.text
	.seh_endproc
                                        # -- End function
	.def	 "?mysubspan9@@YA?AV?$span@H$0?0@gsl@@PEAH_J1@Z";
	.scl	2;
	.type	32;
	.endef
	.globl	"?mysubspan9@@YA?AV?$span@H$0?0@gsl@@PEAH_J1@Z" # -- Begin function ?mysubspan9@@YA?AV?$span@H$0?0@gsl@@PEAH_J1@Z
	.p2align	4, 0x90
"?mysubspan9@@YA?AV?$span@H$0?0@gsl@@PEAH_J1@Z": # @"?mysubspan9@@YA?AV?$span@H$0?0@gsl@@PEAH_J1@Z"
.Lfunc_begin31:
	.cv_func_id 31
	.cv_loc	31 1 246 0              # ..\tests\span_compile_only.cpp:246:0
.seh_proc "?mysubspan9@@YA?AV?$span@H$0?0@gsl@@PEAH_J1@Z"
# %bb.0:
	sub	rsp, 120
	.seh_stackalloc 120
	.seh_endprologue
	mov	rax, rcx
	mov	r10, qword ptr [rip + __security_cookie]
	xor	r10, rsp
	mov	qword ptr [rsp + 112], r10
	mov	qword ptr [rsp + 88], r9
	mov	qword ptr [rsp + 80], r8
	mov	qword ptr [rsp + 72], rdx
.Ltmp148:
	.cv_loc	31 1 247 0              # ..\tests\span_compile_only.cpp:247:0
	cmp	qword ptr [rsp + 72], 0
	mov	qword ptr [rsp + 64], rax # 8-byte Spill
	mov	qword ptr [rsp + 56], rcx # 8-byte Spill
	je	.LBB31_2
# %bb.1:
.Ltmp149:
	.cv_loc	31 1 249 0              # ..\tests\span_compile_only.cpp:249:0
	mov	rdx, qword ptr [rsp + 72]
	mov	r8, qword ptr [rsp + 80]
	lea	rcx, [rsp + 96]
.Ltmp150:
	#DEBUG_VALUE: s <- [$rcx+0]
	call	"??0?$span@H$0?0@gsl@@QEAA@PEAH_J@Z"
.Ltmp151:
	mov	r9d, 3
	mov	r8d, r9d
	.cv_loc	31 1 250 0              # ..\tests\span_compile_only.cpp:250:0
	mov	r9, qword ptr [rsp + 88]
	lea	rcx, [rsp + 96]
	mov	rdx, qword ptr [rsp + 56] # 8-byte Reload
	mov	qword ptr [rsp + 48], rax # 8-byte Spill
	call	"?subspan@?$span@H$0?0@gsl@@QEBA?AV12@_J0@Z"
	jmp	.LBB31_3
.Ltmp152:
.LBB31_2:
	.cv_loc	31 1 253 0              # ..\tests\span_compile_only.cpp:253:0
	mov	rcx, qword ptr [rsp + 56] # 8-byte Reload
	call	"??$?0$0A@X@?$span@H$0?0@gsl@@QEAA@XZ"
	mov	qword ptr [rsp + 40], rax # 8-byte Spill
.LBB31_3:
	.cv_loc	31 1 254 0              # ..\tests\span_compile_only.cpp:254:0
	mov	rax, qword ptr [rsp + 112]
	xor	rax, rsp
	mov	rcx, rax
	call	__security_check_cookie
	mov	rax, qword ptr [rsp + 64] # 8-byte Reload
	add	rsp, 120
	ret
.Ltmp153:
.Lfunc_end31:
	.seh_handlerdata
	.text
	.seh_endproc
                                        # -- End function
	.def	 "?doterminate@@YAXXZ";
	.scl	2;
	.type	32;
	.endef
	.globl	"?doterminate@@YAXXZ"   # -- Begin function ?doterminate@@YAXXZ
	.p2align	4, 0x90
"?doterminate@@YAXXZ":                  # @"?doterminate@@YAXXZ"
.Lfunc_begin32:
	.cv_func_id 32
	.cv_loc	32 1 305 0              # ..\tests\span_compile_only.cpp:305:0
.seh_proc "?doterminate@@YAXXZ"
# %bb.0:
	sub	rsp, 40
	.seh_stackalloc 40
	.seh_endprologue
.Ltmp154:
	.cv_loc	32 1 306 0              # ..\tests\span_compile_only.cpp:306:0
	mov	rax, qword ptr [rip + __imp_terminate]
	call	rax
	ud2
.Ltmp155:
.Lfunc_end32:
	.seh_handlerdata
	.text
	.seh_endproc
                                        # -- End function
	.def	 "?copy_span@@YAXV?$span@H$0?0@gsl@@0@Z";
	.scl	2;
	.type	32;
	.endef
	.globl	"?copy_span@@YAXV?$span@H$0?0@gsl@@0@Z" # -- Begin function ?copy_span@@YAXV?$span@H$0?0@gsl@@0@Z
	.p2align	4, 0x90
"?copy_span@@YAXV?$span@H$0?0@gsl@@0@Z": # @"?copy_span@@YAXV?$span@H$0?0@gsl@@0@Z"
.Lfunc_begin33:
	.cv_func_id 33
	.cv_loc	33 1 312 0              # ..\tests\span_compile_only.cpp:312:0
.seh_proc "?copy_span@@YAXV?$span@H$0?0@gsl@@0@Z"
# %bb.0:
	sub	rsp, 120
	.seh_stackalloc 120
	.seh_endprologue
	mov	rax, qword ptr [rip + __security_cookie]
	xor	rax, rsp
	mov	qword ptr [rsp + 112], rax
	#DEBUG_VALUE: copy_span:y <- [$rdx+0]
	#DEBUG_VALUE: copy_span:x <- [$rcx+0]
.Ltmp156:
	.cv_loc	33 1 313 0              # ..\tests\span_compile_only.cpp:313:0
	mov	qword ptr [rsp + 40], rcx # 8-byte Spill
.Ltmp157:
	#DEBUG_VALUE: copy_span:x <- [DW_OP_plus_uconst 40, DW_OP_deref] [$rsp+0]
	mov	rcx, rdx
	lea	rdx, [rsp + 96]
.Ltmp158:
	call	"?begin@?$span@H$0?0@gsl@@QEBA?AV?$span_iterator@V?$span@H$0?0@gsl@@$0A@@details@2@XZ"
	mov	rcx, qword ptr [rsp + 40] # 8-byte Reload
	lea	rdx, [rsp + 80]
	call	"?end@?$span@H$0?0@gsl@@QEBA?AV?$span_iterator@V?$span@H$0?0@gsl@@$0A@@details@2@XZ"
	mov	rcx, qword ptr [rsp + 40] # 8-byte Reload
	lea	rdx, [rsp + 64]
	call	"?begin@?$span@H$0?0@gsl@@QEBA?AV?$span_iterator@V?$span@H$0?0@gsl@@$0A@@details@2@XZ"
	lea	rcx, [rsp + 48]
	lea	rdx, [rsp + 64]
	lea	r8, [rsp + 80]
	lea	r9, [rsp + 96]
	call	"??$copy@V?$span_iterator@V?$span@H$0?0@gsl@@$0A@@details@gsl@@V123@@std@@YA?AV?$span_iterator@V?$span@H$0?0@gsl@@$0A@@details@gsl@@V123@00@Z"
	mov	rax, qword ptr [rsp + 112]
	xor	rax, rsp
	mov	rcx, rax
	call	__security_check_cookie
	.cv_loc	33 1 314 0              # ..\tests\span_compile_only.cpp:314:0
	nop
	add	rsp, 120
.Ltmp159:
	ret
.Ltmp160:
.Lfunc_end33:
	.seh_handlerdata
	.text
	.seh_endproc
                                        # -- End function
	.def	 "??$copy@V?$span_iterator@V?$span@H$0?0@gsl@@$0A@@details@gsl@@V123@@std@@YA?AV?$span_iterator@V?$span@H$0?0@gsl@@$0A@@details@gsl@@V123@00@Z";
	.scl	2;
	.type	32;
	.endef
	.section	.text,"xr",discard,"??$copy@V?$span_iterator@V?$span@H$0?0@gsl@@$0A@@details@gsl@@V123@@std@@YA?AV?$span_iterator@V?$span@H$0?0@gsl@@$0A@@details@gsl@@V123@00@Z"
	.globl	"??$copy@V?$span_iterator@V?$span@H$0?0@gsl@@$0A@@details@gsl@@V123@@std@@YA?AV?$span_iterator@V?$span@H$0?0@gsl@@$0A@@details@gsl@@V123@00@Z" # -- Begin function ??$copy@V?$span_iterator@V?$span@H$0?0@gsl@@$0A@@details@gsl@@V123@@std@@YA?AV?$span_iterator@V?$span@H$0?0@gsl@@$0A@@details@gsl@@V123@00@Z
	.p2align	4, 0x90
"??$copy@V?$span_iterator@V?$span@H$0?0@gsl@@$0A@@details@gsl@@V123@@std@@YA?AV?$span_iterator@V?$span@H$0?0@gsl@@$0A@@details@gsl@@V123@00@Z": # @"??$copy@V?$span_iterator@V?$span@H$0?0@gsl@@$0A@@details@gsl@@V123@@std@@YA?AV?$span_iterator@V?$span@H$0?0@gsl@@$0A@@details@gsl@@V123@00@Z"
.Lfunc_begin34:
	.cv_func_id 34
	.cv_file	3 "C:\\Program Files (x86)\\Microsoft Visual Studio 14.0\\VC\\INCLUDE\\xutility" "267CB213AC0B5C6C21CBC7A7D4682936" 1
	.cv_loc	34 3 2371 0             # C:\Program Files (x86)\Microsoft Visual Studio 14.0\VC\INCLUDE\xutility:2371:0
.seh_proc "??$copy@V?$span_iterator@V?$span@H$0?0@gsl@@$0A@@details@gsl@@V123@@std@@YA?AV?$span_iterator@V?$span@H$0?0@gsl@@$0A@@details@gsl@@V123@00@Z"
# %bb.0:
	sub	rsp, 152
	.seh_stackalloc 152
	.seh_endprologue
	mov	rax, rcx
	mov	r10, qword ptr [rip + __security_cookie]
	xor	r10, rsp
	mov	qword ptr [rsp + 144], r10
	#DEBUG_VALUE: copy<gsl::details::span_iterator<gsl::span<int,-1>,0>,gsl::details::span_iterator<gsl::span<int,-1>,0> >:_Dest <- [$r9+0]
	#DEBUG_VALUE: copy<gsl::details::span_iterator<gsl::span<int,-1>,0>,gsl::details::span_iterator<gsl::span<int,-1>,0> >:_Last <- [$r8+0]
	#DEBUG_VALUE: copy<gsl::details::span_iterator<gsl::span<int,-1>,0>,gsl::details::span_iterator<gsl::span<int,-1>,0> >:_First <- [$rdx+0]
.Ltmp161:
	.cv_loc	34 3 2372 0             # C:\Program Files (x86)\Microsoft Visual Studio 14.0\VC\INCLUDE\xutility:2372:0
	mov	r10, qword ptr [r9]
	mov	qword ptr [rsp + 128], r10
	mov	r10, qword ptr [r9 + 8]
	mov	qword ptr [rsp + 136], r10
	lea	r10, [rsp + 128]
	mov	qword ptr [rsp + 64], rcx # 8-byte Spill
	mov	rcx, r10
	mov	qword ptr [rsp + 56], rax # 8-byte Spill
	mov	qword ptr [rsp + 48], r9 # 8-byte Spill
.Ltmp162:
	#DEBUG_VALUE: copy<gsl::details::span_iterator<gsl::span<int,-1>,0>,gsl::details::span_iterator<gsl::span<int,-1>,0> >:_Dest <- [DW_OP_plus_uconst 48, DW_OP_deref] [$rsp+0]
	mov	qword ptr [rsp + 40], r8 # 8-byte Spill
.Ltmp163:
	#DEBUG_VALUE: copy<gsl::details::span_iterator<gsl::span<int,-1>,0>,gsl::details::span_iterator<gsl::span<int,-1>,0> >:_Last <- [DW_OP_plus_uconst 40, DW_OP_deref] [$rsp+0]
	mov	qword ptr [rsp + 32], rdx # 8-byte Spill
.Ltmp164:
	#DEBUG_VALUE: copy<gsl::details::span_iterator<gsl::span<int,-1>,0>,gsl::details::span_iterator<gsl::span<int,-1>,0> >:_First <- [DW_OP_plus_uconst 32, DW_OP_deref] [$rsp+0]
	call	"??$_Is_checked@V?$span_iterator@V?$span@H$0?0@gsl@@$0A@@details@gsl@@@std@@YA?AU?$integral_constant@_N$00@0@V?$span_iterator@V?$span@H$0?0@gsl@@$0A@@details@gsl@@@Z"
	mov	byte ptr [rsp + 72], al
	mov	cl, byte ptr [rsp + 72]
	call	"?_Deprecate@_Unchecked_iterators@?1???$copy@V?$span_iterator@V?$span@H$0?0@gsl@@$0A@@details@gsl@@V123@@std@@YA?AV?$span_iterator@V?$span@H$0?0@gsl@@$0A@@details@gsl@@V345@00@Z@SAXU?$integral_constant@_N$00@2@@Z"
	.cv_loc	34 3 2373 0             # C:\Program Files (x86)\Microsoft Visual Studio 14.0\VC\INCLUDE\xutility:2373:0
	mov	rdx, qword ptr [rsp + 48] # 8-byte Reload
	mov	r8, qword ptr [rdx]
	mov	qword ptr [rsp + 112], r8
	mov	r8, qword ptr [rdx + 8]
	mov	qword ptr [rsp + 120], r8
	mov	r8, qword ptr [rsp + 40] # 8-byte Reload
	mov	r9, qword ptr [r8]
	mov	qword ptr [rsp + 96], r9
	mov	r9, qword ptr [r8 + 8]
	mov	qword ptr [rsp + 104], r9
	mov	r9, qword ptr [rsp + 32] # 8-byte Reload
	mov	r10, qword ptr [r9]
	mov	qword ptr [rsp + 80], r10
	mov	r10, qword ptr [r9 + 8]
	mov	qword ptr [rsp + 88], r10
	mov	rcx, qword ptr [rsp + 64] # 8-byte Reload
	lea	rdx, [rsp + 80]
	lea	r8, [rsp + 96]
	lea	r9, [rsp + 112]
	call	"??$_Copy_no_deprecate@V?$span_iterator@V?$span@H$0?0@gsl@@$0A@@details@gsl@@V123@@std@@YA?AV?$span_iterator@V?$span@H$0?0@gsl@@$0A@@details@gsl@@V123@00@Z"
	mov	rcx, qword ptr [rsp + 144]
	xor	rcx, rsp
	call	__security_check_cookie
	mov	rax, qword ptr [rsp + 56] # 8-byte Reload
	add	rsp, 152
.Ltmp165:
	ret
.Ltmp166:
.Lfunc_end34:
	.seh_handlerdata
	.section	.text,"xr",discard,"??$copy@V?$span_iterator@V?$span@H$0?0@gsl@@$0A@@details@gsl@@V123@@std@@YA?AV?$span_iterator@V?$span@H$0?0@gsl@@$0A@@details@gsl@@V123@00@Z"
	.seh_endproc
                                        # -- End function
	.def	 "?gsl_copy_span@@YAXV?$span@H$0?0@gsl@@0@Z";
	.scl	2;
	.type	32;
	.endef
	.text
	.globl	"?gsl_copy_span@@YAXV?$span@H$0?0@gsl@@0@Z" # -- Begin function ?gsl_copy_span@@YAXV?$span@H$0?0@gsl@@0@Z
	.p2align	4, 0x90
"?gsl_copy_span@@YAXV?$span@H$0?0@gsl@@0@Z": # @"?gsl_copy_span@@YAXV?$span@H$0?0@gsl@@0@Z"
.Lfunc_begin35:
	.cv_func_id 35
	.cv_loc	35 1 317 0              # ..\tests\span_compile_only.cpp:317:0
.seh_proc "?gsl_copy_span@@YAXV?$span@H$0?0@gsl@@0@Z"
# %bb.0:
	sub	rsp, 72
	.seh_stackalloc 72
	.seh_endprologue
	mov	rax, qword ptr [rip + __security_cookie]
	xor	rax, rsp
	mov	qword ptr [rsp + 64], rax
	#DEBUG_VALUE: gsl_copy_span:y <- [$rdx+0]
	#DEBUG_VALUE: gsl_copy_span:x <- [$rcx+0]
.Ltmp167:
	.cv_loc	35 1 318 0              # ..\tests\span_compile_only.cpp:318:0
	mov	rax, qword ptr [rdx]
	mov	qword ptr [rsp + 48], rax
	mov	rax, qword ptr [rdx + 8]
	mov	qword ptr [rsp + 56], rax
	mov	rax, qword ptr [rcx]
	mov	qword ptr [rsp + 32], rax
	mov	rax, qword ptr [rcx + 8]
	mov	qword ptr [rsp + 40], rax
	lea	rcx, [rsp + 32]
.Ltmp168:
	lea	rdx, [rsp + 48]
.Ltmp169:
	call	"??$copy@H$0?0H$0?0@gsl@@YAXV?$span@H$0?0@0@0@Z"
	mov	rax, qword ptr [rsp + 64]
	xor	rax, rsp
	mov	rcx, rax
	call	__security_check_cookie
	.cv_loc	35 1 319 0              # ..\tests\span_compile_only.cpp:319:0
	nop
	add	rsp, 72
	ret
.Ltmp170:
.Lfunc_end35:
	.seh_handlerdata
	.text
	.seh_endproc
                                        # -- End function
	.def	 "??$copy@H$0?0H$0?0@gsl@@YAXV?$span@H$0?0@0@0@Z";
	.scl	2;
	.type	32;
	.endef
	.section	.text,"xr",discard,"??$copy@H$0?0H$0?0@gsl@@YAXV?$span@H$0?0@0@0@Z"
	.globl	"??$copy@H$0?0H$0?0@gsl@@YAXV?$span@H$0?0@0@0@Z" # -- Begin function ??$copy@H$0?0H$0?0@gsl@@YAXV?$span@H$0?0@0@0@Z
	.p2align	4, 0x90
"??$copy@H$0?0H$0?0@gsl@@YAXV?$span@H$0?0@0@0@Z": # @"??$copy@H$0?0H$0?0@gsl@@YAXV?$span@H$0?0@0@0@Z"
.Lfunc_begin36:
	.cv_func_id 36
	.cv_file	4 "C:\\projects\\gsl\\include\\gsl\\gsl_algorithm" "9A2A4E79F74472CC2EEC5F230C3B6DE5" 1
	.cv_loc	36 4 43 0               # ..\include\gsl/gsl_algorithm:43:0
.seh_proc "??$copy@H$0?0H$0?0@gsl@@YAXV?$span@H$0?0@0@0@Z"
	.seh_handler __CxxFrameHandler3, @unwind, @except
# %bb.0:
	push	rbp
	.seh_pushreg 5
	sub	rsp, 144
	.seh_stackalloc 144
	lea	rbp, [rsp + 128]
	.seh_setframe 5, 128
	.seh_endprologue
.Ltmp173:
	.cv_loc	36 4 50 0               # ..\include\gsl/gsl_algorithm:50:0
	mov	qword ptr [rbp + 8], -2
	#DEBUG_VALUE: copy<int,-1,int,-1>:dest <- [$rdx+0]
	#DEBUG_VALUE: copy<int,-1,int,-1>:src <- [$rcx+0]
	mov	qword ptr [rbp - 32], rcx # 8-byte Spill
.Ltmp174:
	#DEBUG_VALUE: copy<int,-1,int,-1>:src <- [DW_OP_constu 32, DW_OP_minus, DW_OP_deref] [$rbp+0]
	mov	rcx, rdx
	mov	qword ptr [rbp - 40], rdx # 8-byte Spill
.Ltmp175:
	#DEBUG_VALUE: copy<int,-1,int,-1>:dest <- [DW_OP_constu 40, DW_OP_minus, DW_OP_deref] [$rbp+0]
	call	"?size@?$span@H$0?0@gsl@@QEBA_JXZ"
	mov	rcx, qword ptr [rbp - 32] # 8-byte Reload
	mov	qword ptr [rbp - 48], rax # 8-byte Spill
	call	"?size@?$span@H$0?0@gsl@@QEBA_JXZ"
	mov	rcx, qword ptr [rbp - 48] # 8-byte Reload
	cmp	rcx, rax
	setge	r8b
	mov	byte ptr [rbp - 17], 0
	test	r8b, 1
	jne	.LBB36_1
	jmp	.LBB36_2
.Ltmp176:
.LBB36_1:
	#DEBUG_VALUE: copy<int,-1,int,-1>:dest <- [DW_OP_constu 40, DW_OP_minus, DW_OP_deref] [$rbp+0]
	#DEBUG_VALUE: copy<int,-1,int,-1>:src <- [DW_OP_constu 32, DW_OP_minus, DW_OP_deref] [$rbp+0]
	test	byte ptr [rbp - 17], 1
	jne	.LBB36_4
	jmp	.LBB36_5
.Ltmp177:
.LBB36_2:
	#DEBUG_VALUE: copy<int,-1,int,-1>:dest <- [DW_OP_constu 40, DW_OP_minus, DW_OP_deref] [$rbp+0]
	#DEBUG_VALUE: copy<int,-1,int,-1>:src <- [DW_OP_constu 32, DW_OP_minus, DW_OP_deref] [$rbp+0]
	lea	rdx, [rip + "??_C@_0DO@ODIBPFEH@GSL?3?5Precondition?5failure?5at?5?4?4?2@"]
	lea	rax, [rbp - 16]
	mov	rcx, rax
	mov	qword ptr [rbp - 56], rax # 8-byte Spill
	call	"??0fail_fast@gsl@@QEAA@QEBD@Z"
	mov	byte ptr [rbp - 17], 1
.Ltmp171:
	mov	rcx, qword ptr [rbp - 56] # 8-byte Reload
	mov	qword ptr [rbp - 64], rax # 8-byte Spill
	call	"??$throw_exception@Ufail_fast@gsl@@@details@gsl@@YAX$$QEAUfail_fast@1@@Z"
.Ltmp172:
	jmp	.LBB36_3
.Ltmp178:
.LBB36_3:
	#DEBUG_VALUE: copy<int,-1,int,-1>:dest <- [DW_OP_constu 40, DW_OP_minus, DW_OP_deref] [$rbp+0]
	#DEBUG_VALUE: copy<int,-1,int,-1>:src <- [DW_OP_constu 32, DW_OP_minus, DW_OP_deref] [$rbp+0]
	ud2
.Ltmp179:
.LBB36_4:
	#DEBUG_VALUE: copy<int,-1,int,-1>:dest <- [DW_OP_constu 40, DW_OP_minus, DW_OP_deref] [$rbp+0]
	#DEBUG_VALUE: copy<int,-1,int,-1>:src <- [DW_OP_constu 32, DW_OP_minus, DW_OP_deref] [$rbp+0]
	lea	rcx, [rbp - 16]
	call	"??1fail_fast@gsl@@UEAA@XZ"
.Ltmp180:
.LBB36_5:
	#DEBUG_VALUE: copy<int,-1,int,-1>:dest <- [DW_OP_constu 40, DW_OP_minus, DW_OP_deref] [$rbp+0]
	#DEBUG_VALUE: copy<int,-1,int,-1>:src <- [DW_OP_constu 32, DW_OP_minus, DW_OP_deref] [$rbp+0]
	.cv_loc	36 4 52 0               # ..\include\gsl/gsl_algorithm:52:0
	mov	rcx, qword ptr [rbp - 40] # 8-byte Reload
	call	"?data@?$span@H$0?0@gsl@@QEBAPEAHXZ"
	mov	rcx, qword ptr [rbp - 32] # 8-byte Reload
	mov	qword ptr [rbp - 72], rax # 8-byte Spill
	call	"?size@?$span@H$0?0@gsl@@QEBA_JXZ"
	mov	rcx, qword ptr [rbp - 32] # 8-byte Reload
	mov	qword ptr [rbp - 80], rax # 8-byte Spill
	call	"?data@?$span@H$0?0@gsl@@QEBAPEAHXZ"
	mov	rcx, rax
	mov	rdx, qword ptr [rbp - 80] # 8-byte Reload
	mov	r8, qword ptr [rbp - 72] # 8-byte Reload
	call	"??$copy_n@PEAH_JPEAH@std@@YAPEAHPEAH_J0@Z"
	.cv_loc	36 4 53 0               # ..\include\gsl/gsl_algorithm:53:0
	mov	qword ptr [rbp - 88], rax # 8-byte Spill
	add	rsp, 144
	pop	rbp
.Ltmp181:
	ret
	.seh_handlerdata
	.long	("$cppxdata$??$copy@H$0?0H$0?0@gsl@@YAXV?$span@H$0?0@0@0@Z")@IMGREL
	.section	.text,"xr",discard,"??$copy@H$0?0H$0?0@gsl@@YAXV?$span@H$0?0@0@0@Z"
	.seh_endproc
	.def	 "?dtor$6@?0???$copy@H$0?0H$0?0@gsl@@YAXV?$span@H$0?0@0@0@Z@4HA";
	.scl	3;
	.type	32;
	.endef
	.p2align	4, 0x90
"?dtor$6@?0???$copy@H$0?0H$0?0@gsl@@YAXV?$span@H$0?0@0@0@Z@4HA":
.seh_proc "?dtor$6@?0???$copy@H$0?0H$0?0@gsl@@YAXV?$span@H$0?0@0@0@Z@4HA"
.LBB36_6:
.Ltmp182:
	#DEBUG_VALUE: copy<int,-1,int,-1>:dest <- [DW_OP_constu 40, DW_OP_minus, DW_OP_deref] [$rbp+0]
	#DEBUG_VALUE: copy<int,-1,int,-1>:src <- [DW_OP_constu 32, DW_OP_minus, DW_OP_deref] [$rbp+0]
	mov	qword ptr [rsp + 16], rdx
	push	rbp
	.seh_pushreg 5
	sub	rsp, 32
	.seh_stackalloc 32
	lea	rbp, [rdx + 128]
.Ltmp183:
	.seh_endprologue
	.cv_loc	36 4 50 0               # ..\include\gsl/gsl_algorithm:50:0
	test	byte ptr [rbp - 17], 1
	jne	.LBB36_7
	jmp	.LBB36_8
.LBB36_7:
	lea	rcx, [rbp - 16]
	call	"??1fail_fast@gsl@@UEAA@XZ"
.LBB36_8:
	nop
	add	rsp, 32
	pop	rbp
	ret                             # CLEANUPRET
.Ltmp184:
.Lfunc_end36:
	.seh_handlerdata
	.section	.text,"xr",discard,"??$copy@H$0?0H$0?0@gsl@@YAXV?$span@H$0?0@0@0@Z"
	.seh_endproc
	.section	.xdata,"dr",associative,"??$copy@H$0?0H$0?0@gsl@@YAXV?$span@H$0?0@0@0@Z"
	.p2align	2
"$cppxdata$??$copy@H$0?0H$0?0@gsl@@YAXV?$span@H$0?0@0@0@Z":
	.long	429065506               # MagicNumber
	.long	1                       # MaxState
	.long	("$stateUnwindMap$??$copy@H$0?0H$0?0@gsl@@YAXV?$span@H$0?0@0@0@Z")@IMGREL # UnwindMap
	.long	0                       # NumTryBlocks
	.long	0                       # TryBlockMap
	.long	3                       # IPMapEntries
	.long	("$ip2state$??$copy@H$0?0H$0?0@gsl@@YAXV?$span@H$0?0@0@0@Z")@IMGREL # IPToStateXData
	.long	136                     # UnwindHelp
	.long	0                       # ESTypeList
	.long	1                       # EHFlags
"$stateUnwindMap$??$copy@H$0?0H$0?0@gsl@@YAXV?$span@H$0?0@0@0@Z":
	.long	-1                      # ToState
	.long	"?dtor$6@?0???$copy@H$0?0H$0?0@gsl@@YAXV?$span@H$0?0@0@0@Z@4HA"@IMGREL # Action
"$ip2state$??$copy@H$0?0H$0?0@gsl@@YAXV?$span@H$0?0@0@0@Z":
	.long	.Lfunc_begin36@IMGREL   # IP
	.long	-1                      # ToState
	.long	.Ltmp171@IMGREL+1       # IP
	.long	0                       # ToState
	.long	.Ltmp172@IMGREL+1       # IP
	.long	-1                      # ToState
	.section	.text,"xr",discard,"??$copy@H$0?0H$0?0@gsl@@YAXV?$span@H$0?0@0@0@Z"
                                        # -- End function
	.def	 "?test_string_std_copy@@YAXXZ";
	.scl	2;
	.type	32;
	.endef
	.text
	.globl	"?test_string_std_copy@@YAXXZ" # -- Begin function ?test_string_std_copy@@YAXXZ
	.p2align	4, 0x90
"?test_string_std_copy@@YAXXZ":         # @"?test_string_std_copy@@YAXXZ"
.Lfunc_begin37:
	.cv_func_id 37
	.cv_loc	37 1 322 0              # ..\tests\span_compile_only.cpp:322:0
.seh_proc "?test_string_std_copy@@YAXXZ"
# %bb.0:
	sub	rsp, 200
	.seh_stackalloc 200
	.seh_endprologue
	mov	rax, qword ptr [rip + __security_cookie]
	xor	rax, rsp
	mov	qword ptr [rsp + 192], rax
.Ltmp185:
	.cv_loc	37 1 324 0              # ..\tests\span_compile_only.cpp:324:0
	lea	rcx, [rsp + 160]
.Ltmp186:
	#DEBUG_VALUE: test_string_std_copy:byteSpan <- [$rcx+0]
	lea	rdx, [rsp + 182]
.Ltmp187:
	#DEBUG_VALUE: test_string_std_copy:bytes <- [$rdx+0]
	call	"??$?0$09@?$span@E$0?0@gsl@@QEAA@AEAY09E@Z"
.Ltmp188:
	.cv_loc	37 1 326 0              # ..\tests\span_compile_only.cpp:326:0
	lea	rcx, [rsp + 128]
	lea	rdx, [rip + "??_C@_0L@CCAJJBND@iVtrau?5lDC?$AA@"]
	mov	qword ptr [rsp + 40], rax # 8-byte Spill
	call	"??$ensure_z@$$CBD$0L@@gsl@@YA?AV?$span@$$CBD$0?0@0@AEAY0L@$$CBD@Z"
	lea	rcx, [rsp + 144]
	lea	rdx, [rsp + 128]
	call	"??$?0V?$span@$$CBD$0?0@gsl@@X@?$basic_string_span@$$CBD$0?0@gsl@@QEAA@AEBV?$span@$$CBD$0?0@1@@Z"
	.cv_loc	37 1 327 0              # ..\tests\span_compile_only.cpp:327:0
	lea	rcx, [rsp + 160]
	lea	rdx, [rsp + 112]
	mov	qword ptr [rsp + 32], rax # 8-byte Spill
	call	"?begin@?$span@E$0?0@gsl@@QEBA?AV?$span_iterator@V?$span@E$0?0@gsl@@$0A@@details@2@XZ"
	lea	rcx, [rsp + 144]
	lea	rdx, [rsp + 96]
	call	"?end@?$basic_string_span@$$CBD$0?0@gsl@@QEBA?AV?$span_iterator@V?$span@$$CBD$0?0@gsl@@$0A@@details@2@XZ"
	lea	rcx, [rsp + 144]
	lea	rdx, [rsp + 80]
	call	"?begin@?$basic_string_span@$$CBD$0?0@gsl@@QEBA?AV?$span_iterator@V?$span@$$CBD$0?0@gsl@@$0A@@details@2@XZ"
	lea	rcx, [rsp + 64]
	lea	rdx, [rsp + 80]
	lea	r8, [rsp + 96]
	lea	r9, [rsp + 112]
	call	"??$copy@V?$span_iterator@V?$span@$$CBD$0?0@gsl@@$0A@@details@gsl@@V?$span_iterator@V?$span@E$0?0@gsl@@$0A@@23@@std@@YA?AV?$span_iterator@V?$span@E$0?0@gsl@@$0A@@details@gsl@@V?$span_iterator@V?$span@$$CBD$0?0@gsl@@$0A@@23@0V123@@Z"
	.cv_loc	37 1 329 0              # ..\tests\span_compile_only.cpp:329:0
	mov	rax, qword ptr [rsp + 160]
	mov	qword ptr [rsp + 48], rax
	mov	rax, qword ptr [rsp + 168]
	mov	qword ptr [rsp + 56], rax
	lea	rcx, [rsp + 48]
	call	"?bar@@YAXV?$span@E$0?0@gsl@@@Z"
	mov	rax, qword ptr [rsp + 192]
	xor	rax, rsp
	mov	rcx, rax
	call	__security_check_cookie
	.cv_loc	37 1 330 0              # ..\tests\span_compile_only.cpp:330:0
	nop
	add	rsp, 200
	ret
.Ltmp189:
.Lfunc_end37:
	.seh_handlerdata
	.text
	.seh_endproc
                                        # -- End function
	.def	 "??$?0$09@?$span@E$0?0@gsl@@QEAA@AEAY09E@Z";
	.scl	2;
	.type	32;
	.endef
	.section	.text,"xr",discard,"??$?0$09@?$span@E$0?0@gsl@@QEAA@AEAY09E@Z"
	.globl	"??$?0$09@?$span@E$0?0@gsl@@QEAA@AEAY09E@Z" # -- Begin function ??$?0$09@?$span@E$0?0@gsl@@QEAA@AEAY09E@Z
	.p2align	4, 0x90
"??$?0$09@?$span@E$0?0@gsl@@QEAA@AEAY09E@Z": # @"??$?0$09@?$span@E$0?0@gsl@@QEAA@AEAY09E@Z"
.Lfunc_begin38:
	.cv_func_id 38
	.cv_loc	38 2 395 0              # ..\include\gsl/span:395:0
.seh_proc "??$?0$09@?$span@E$0?0@gsl@@QEAA@AEAY09E@Z"
	.seh_handler __CxxFrameHandler3, @unwind, @except
# %bb.0:
	push	rbp
	.seh_pushreg 5
	sub	rsp, 96
	.seh_stackalloc 96
	lea	rbp, [rsp + 96]
	.seh_setframe 5, 96
	.seh_endprologue
	mov	qword ptr [rbp - 8], -2
	mov	qword ptr [rbp - 16], rdx
	mov	qword ptr [rbp - 24], rcx
	mov	rcx, qword ptr [rbp - 24]
	lea	rdx, [rbp - 32]
.Ltmp192:
	mov	qword ptr [rbp - 48], rcx # 8-byte Spill
	mov	rcx, rdx
	call	"??0?$extent_type@$09@details@gsl@@QEAA@XZ"
	mov	rcx, qword ptr [rbp - 16]
	mov	qword ptr [rbp - 56], rax # 8-byte Spill
	call	"??$addressof@E@std@@YAPEAEAEAE@Z"
	mov	qword ptr [rbp - 40], rax
	mov	rdx, qword ptr [rbp - 40]
	mov	r8b, byte ptr [rbp - 32]
.Ltmp190:
	mov	rcx, qword ptr [rbp - 48] # 8-byte Reload
	call	"??$?0V?$extent_type@$09@details@gsl@@@?$storage_type@V?$extent_type@$0?0@details@gsl@@@?$span@E$0?0@gsl@@QEAA@UKnownNotNull@12@V?$extent_type@$09@details@2@@Z"
.Ltmp191:
	mov	qword ptr [rbp - 64], rax # 8-byte Spill
	jmp	.LBB38_1
.LBB38_1:
	mov	rax, qword ptr [rbp - 48] # 8-byte Reload
	add	rsp, 96
	pop	rbp
	ret
	.seh_handlerdata
	.long	("$cppxdata$??$?0$09@?$span@E$0?0@gsl@@QEAA@AEAY09E@Z")@IMGREL
	.section	.text,"xr",discard,"??$?0$09@?$span@E$0?0@gsl@@QEAA@AEAY09E@Z"
	.seh_endproc
	.def	 "?dtor$2@?0???$?0$09@?$span@E$0?0@gsl@@QEAA@AEAY09E@Z@4HA";
	.scl	3;
	.type	32;
	.endef
	.p2align	4, 0x90
"?dtor$2@?0???$?0$09@?$span@E$0?0@gsl@@QEAA@AEAY09E@Z@4HA":
.seh_proc "?dtor$2@?0???$?0$09@?$span@E$0?0@gsl@@QEAA@AEAY09E@Z@4HA"
.LBB38_2:
	mov	qword ptr [rsp + 16], rdx
	push	rbp
	.seh_pushreg 5
	sub	rsp, 32
	.seh_stackalloc 32
	lea	rbp, [rdx + 96]
	.seh_endprologue
	mov	rax, qword ptr [rip + __imp___std_terminate]
	call	rax
	ud2
.Ltmp193:
.Lfunc_end38:
	.seh_handlerdata
	.section	.text,"xr",discard,"??$?0$09@?$span@E$0?0@gsl@@QEAA@AEAY09E@Z"
	.seh_endproc
	.section	.xdata,"dr",associative,"??$?0$09@?$span@E$0?0@gsl@@QEAA@AEAY09E@Z"
	.p2align	2
"$cppxdata$??$?0$09@?$span@E$0?0@gsl@@QEAA@AEAY09E@Z":
	.long	429065506               # MagicNumber
	.long	1                       # MaxState
	.long	("$stateUnwindMap$??$?0$09@?$span@E$0?0@gsl@@QEAA@AEAY09E@Z")@IMGREL # UnwindMap
	.long	0                       # NumTryBlocks
	.long	0                       # TryBlockMap
	.long	3                       # IPMapEntries
	.long	("$ip2state$??$?0$09@?$span@E$0?0@gsl@@QEAA@AEAY09E@Z")@IMGREL # IPToStateXData
	.long	88                      # UnwindHelp
	.long	0                       # ESTypeList
	.long	1                       # EHFlags
"$stateUnwindMap$??$?0$09@?$span@E$0?0@gsl@@QEAA@AEAY09E@Z":
	.long	-1                      # ToState
	.long	"?dtor$2@?0???$?0$09@?$span@E$0?0@gsl@@QEAA@AEAY09E@Z@4HA"@IMGREL # Action
"$ip2state$??$?0$09@?$span@E$0?0@gsl@@QEAA@AEAY09E@Z":
	.long	.Lfunc_begin38@IMGREL   # IP
	.long	-1                      # ToState
	.long	.Ltmp190@IMGREL+1       # IP
	.long	0                       # ToState
	.long	.Ltmp191@IMGREL+1       # IP
	.long	-1                      # ToState
	.section	.text,"xr",discard,"??$?0$09@?$span@E$0?0@gsl@@QEAA@AEAY09E@Z"
                                        # -- End function
	.def	 "??$ensure_z@$$CBD$0L@@gsl@@YA?AV?$span@$$CBD$0?0@0@AEAY0L@$$CBD@Z";
	.scl	2;
	.type	32;
	.endef
	.section	.text,"xr",discard,"??$ensure_z@$$CBD$0L@@gsl@@YA?AV?$span@$$CBD$0?0@0@AEAY0L@$$CBD@Z"
	.globl	"??$ensure_z@$$CBD$0L@@gsl@@YA?AV?$span@$$CBD$0?0@0@AEAY0L@$$CBD@Z" # -- Begin function ??$ensure_z@$$CBD$0L@@gsl@@YA?AV?$span@$$CBD$0?0@0@AEAY0L@$$CBD@Z
	.p2align	4, 0x90
"??$ensure_z@$$CBD$0L@@gsl@@YA?AV?$span@$$CBD$0?0@0@AEAY0L@$$CBD@Z": # @"??$ensure_z@$$CBD$0L@@gsl@@YA?AV?$span@$$CBD$0?0@0@AEAY0L@$$CBD@Z"
.Lfunc_begin39:
	.cv_func_id 39
	.cv_file	5 "C:\\projects\\gsl\\include\\gsl\\string_span" "62D838D95BE053005398EA9C3E1D4E52" 1
	.cv_loc	39 5 139 0              # ..\include\gsl/string_span:139:0
.seh_proc "??$ensure_z@$$CBD$0L@@gsl@@YA?AV?$span@$$CBD$0?0@0@AEAY0L@$$CBD@Z"
# %bb.0:
	sub	rsp, 88
	.seh_stackalloc 88
	.seh_endprologue
	mov	rax, rcx
	mov	r8, qword ptr [rip + __security_cookie]
	xor	r8, rsp
	mov	qword ptr [rsp + 80], r8
	mov	qword ptr [rsp + 56], rdx
.Ltmp194:
	.cv_loc	39 5 140 0              # ..\include\gsl/string_span:140:0
	mov	qword ptr [rsp + 72], 11
	lea	rdx, [rsp + 72]
	mov	qword ptr [rsp + 48], rcx # 8-byte Spill
	mov	rcx, rdx
	mov	qword ptr [rsp + 40], rax # 8-byte Spill
	call	"??$narrow_cast@_J_K@gsl@@YA_J$$QEA_K@Z"
	mov	rcx, qword ptr [rsp + 56]
	mov	qword ptr [rsp + 64], rcx
	mov	rcx, qword ptr [rsp + 48] # 8-byte Reload
	lea	rdx, [rsp + 64]
	mov	r8, rax
	call	"??$ensure_z@$$CBD@gsl@@YA?AV?$span@$$CBD$0?0@0@AEBQEBD_J@Z"
	mov	rax, qword ptr [rsp + 80]
	xor	rax, rsp
	mov	rcx, rax
	call	__security_check_cookie
	mov	rax, qword ptr [rsp + 40] # 8-byte Reload
	add	rsp, 88
	ret
.Ltmp195:
.Lfunc_end39:
	.seh_handlerdata
	.section	.text,"xr",discard,"??$ensure_z@$$CBD$0L@@gsl@@YA?AV?$span@$$CBD$0?0@0@AEAY0L@$$CBD@Z"
	.seh_endproc
                                        # -- End function
	.def	 "??$?0V?$span@$$CBD$0?0@gsl@@X@?$basic_string_span@$$CBD$0?0@gsl@@QEAA@AEBV?$span@$$CBD$0?0@1@@Z";
	.scl	2;
	.type	32;
	.endef
	.section	.text,"xr",discard,"??$?0V?$span@$$CBD$0?0@gsl@@X@?$basic_string_span@$$CBD$0?0@gsl@@QEAA@AEBV?$span@$$CBD$0?0@1@@Z"
	.globl	"??$?0V?$span@$$CBD$0?0@gsl@@X@?$basic_string_span@$$CBD$0?0@gsl@@QEAA@AEBV?$span@$$CBD$0?0@1@@Z" # -- Begin function ??$?0V?$span@$$CBD$0?0@gsl@@X@?$basic_string_span@$$CBD$0?0@gsl@@QEAA@AEBV?$span@$$CBD$0?0@1@@Z
	.p2align	4, 0x90
"??$?0V?$span@$$CBD$0?0@gsl@@X@?$basic_string_span@$$CBD$0?0@gsl@@QEAA@AEBV?$span@$$CBD$0?0@1@@Z": # @"??$?0V?$span@$$CBD$0?0@gsl@@X@?$basic_string_span@$$CBD$0?0@gsl@@QEAA@AEBV?$span@$$CBD$0?0@1@@Z"
.Lfunc_begin40:
	.cv_func_id 40
	.cv_loc	40 5 244 0              # ..\include\gsl/string_span:244:0
.seh_proc "??$?0V?$span@$$CBD$0?0@gsl@@X@?$basic_string_span@$$CBD$0?0@gsl@@QEAA@AEBV?$span@$$CBD$0?0@1@@Z"
# %bb.0:
	sub	rsp, 16
	.seh_stackalloc 16
	.seh_endprologue
	mov	qword ptr [rsp + 8], rdx
	mov	qword ptr [rsp], rcx
	mov	rcx, qword ptr [rsp]
.Ltmp196:
	mov	rdx, qword ptr [rsp + 8]
	mov	rax, qword ptr [rdx]
	mov	qword ptr [rcx], rax
	mov	rax, qword ptr [rdx + 8]
	mov	qword ptr [rcx + 8], rax
	mov	rax, rcx
	add	rsp, 16
	ret
.Ltmp197:
.Lfunc_end40:
	.seh_handlerdata
	.section	.text,"xr",discard,"??$?0V?$span@$$CBD$0?0@gsl@@X@?$basic_string_span@$$CBD$0?0@gsl@@QEAA@AEBV?$span@$$CBD$0?0@1@@Z"
	.seh_endproc
                                        # -- End function
	.def	 "??$copy@V?$span_iterator@V?$span@$$CBD$0?0@gsl@@$0A@@details@gsl@@V?$span_iterator@V?$span@E$0?0@gsl@@$0A@@23@@std@@YA?AV?$span_iterator@V?$span@E$0?0@gsl@@$0A@@details@gsl@@V?$span_iterator@V?$span@$$CBD$0?0@gsl@@$0A@@23@0V123@@Z";
	.scl	2;
	.type	32;
	.endef
	.section	.text,"xr",discard,"??$copy@V?$span_iterator@V?$span@$$CBD$0?0@gsl@@$0A@@details@gsl@@V?$span_iterator@V?$span@E$0?0@gsl@@$0A@@23@@std@@YA?AV?$span_iterator@V?$span@E$0?0@gsl@@$0A@@details@gsl@@V?$span_iterator@V?$span@$$CBD$0?0@gsl@@$0A@@23@0V123@@Z"
	.globl	"??$copy@V?$span_iterator@V?$span@$$CBD$0?0@gsl@@$0A@@details@gsl@@V?$span_iterator@V?$span@E$0?0@gsl@@$0A@@23@@std@@YA?AV?$span_iterator@V?$span@E$0?0@gsl@@$0A@@details@gsl@@V?$span_iterator@V?$span@$$CBD$0?0@gsl@@$0A@@23@0V123@@Z" # -- Begin function ??$copy@V?$span_iterator@V?$span@$$CBD$0?0@gsl@@$0A@@details@gsl@@V?$span_iterator@V?$span@E$0?0@gsl@@$0A@@23@@std@@YA?AV?$span_iterator@V?$span@E$0?0@gsl@@$0A@@details@gsl@@V?$span_iterator@V?$span@$$CBD$0?0@gsl@@$0A@@23@0V123@@Z
	.p2align	4, 0x90
"??$copy@V?$span_iterator@V?$span@$$CBD$0?0@gsl@@$0A@@details@gsl@@V?$span_iterator@V?$span@E$0?0@gsl@@$0A@@23@@std@@YA?AV?$span_iterator@V?$span@E$0?0@gsl@@$0A@@details@gsl@@V?$span_iterator@V?$span@$$CBD$0?0@gsl@@$0A@@23@0V123@@Z": # @"??$copy@V?$span_iterator@V?$span@$$CBD$0?0@gsl@@$0A@@details@gsl@@V?$span_iterator@V?$span@E$0?0@gsl@@$0A@@23@@std@@YA?AV?$span_iterator@V?$span@E$0?0@gsl@@$0A@@details@gsl@@V?$span_iterator@V?$span@$$CBD$0?0@gsl@@$0A@@23@0V123@@Z"
.Lfunc_begin41:
	.cv_func_id 41
	.cv_loc	41 3 2371 0             # C:\Program Files (x86)\Microsoft Visual Studio 14.0\VC\INCLUDE\xutility:2371:0
.seh_proc "??$copy@V?$span_iterator@V?$span@$$CBD$0?0@gsl@@$0A@@details@gsl@@V?$span_iterator@V?$span@E$0?0@gsl@@$0A@@23@@std@@YA?AV?$span_iterator@V?$span@E$0?0@gsl@@$0A@@details@gsl@@V?$span_iterator@V?$span@$$CBD$0?0@gsl@@$0A@@23@0V123@@Z"
# %bb.0:
	sub	rsp, 152
	.seh_stackalloc 152
	.seh_endprologue
	mov	rax, rcx
	mov	r10, qword ptr [rip + __security_cookie]
	xor	r10, rsp
	mov	qword ptr [rsp + 144], r10
	#DEBUG_VALUE: copy<gsl::details::span_iterator<gsl::span<const char,-1>,0>,gsl::details::span_iterator<gsl::span<unsigned char,-1>,0> >:_Dest <- [$r9+0]
	#DEBUG_VALUE: copy<gsl::details::span_iterator<gsl::span<const char,-1>,0>,gsl::details::span_iterator<gsl::span<unsigned char,-1>,0> >:_Last <- [$r8+0]
	#DEBUG_VALUE: copy<gsl::details::span_iterator<gsl::span<const char,-1>,0>,gsl::details::span_iterator<gsl::span<unsigned char,-1>,0> >:_First <- [$rdx+0]
.Ltmp198:
	.cv_loc	41 3 2372 0             # C:\Program Files (x86)\Microsoft Visual Studio 14.0\VC\INCLUDE\xutility:2372:0
	mov	r10, qword ptr [r9]
	mov	qword ptr [rsp + 128], r10
	mov	r10, qword ptr [r9 + 8]
	mov	qword ptr [rsp + 136], r10
	lea	r10, [rsp + 128]
	mov	qword ptr [rsp + 64], rcx # 8-byte Spill
	mov	rcx, r10
	mov	qword ptr [rsp + 56], rax # 8-byte Spill
	mov	qword ptr [rsp + 48], r9 # 8-byte Spill
.Ltmp199:
	#DEBUG_VALUE: copy<gsl::details::span_iterator<gsl::span<const char,-1>,0>,gsl::details::span_iterator<gsl::span<unsigned char,-1>,0> >:_Dest <- [DW_OP_plus_uconst 48, DW_OP_deref] [$rsp+0]
	mov	qword ptr [rsp + 40], r8 # 8-byte Spill
.Ltmp200:
	#DEBUG_VALUE: copy<gsl::details::span_iterator<gsl::span<const char,-1>,0>,gsl::details::span_iterator<gsl::span<unsigned char,-1>,0> >:_Last <- [DW_OP_plus_uconst 40, DW_OP_deref] [$rsp+0]
	mov	qword ptr [rsp + 32], rdx # 8-byte Spill
.Ltmp201:
	#DEBUG_VALUE: copy<gsl::details::span_iterator<gsl::span<const char,-1>,0>,gsl::details::span_iterator<gsl::span<unsigned char,-1>,0> >:_First <- [DW_OP_plus_uconst 32, DW_OP_deref] [$rsp+0]
	call	"??$_Is_checked@V?$span_iterator@V?$span@E$0?0@gsl@@$0A@@details@gsl@@@std@@YA?AU?$integral_constant@_N$00@0@V?$span_iterator@V?$span@E$0?0@gsl@@$0A@@details@gsl@@@Z"
	mov	byte ptr [rsp + 72], al
	mov	cl, byte ptr [rsp + 72]
	call	"?_Deprecate@_Unchecked_iterators@?1???$copy@V?$span_iterator@V?$span@$$CBD$0?0@gsl@@$0A@@details@gsl@@V?$span_iterator@V?$span@E$0?0@gsl@@$0A@@23@@std@@YA?AV?$span_iterator@V?$span@E$0?0@gsl@@$0A@@details@gsl@@V?$span_iterator@V?$span@$$CBD$0?0@gsl@@$0A@@45@0V345@@Z@SAXU?$integral_constant@_N$00@2@@Z"
	.cv_loc	41 3 2373 0             # C:\Program Files (x86)\Microsoft Visual Studio 14.0\VC\INCLUDE\xutility:2373:0
	mov	rdx, qword ptr [rsp + 48] # 8-byte Reload
	mov	r8, qword ptr [rdx]
	mov	qword ptr [rsp + 112], r8
	mov	r8, qword ptr [rdx + 8]
	mov	qword ptr [rsp + 120], r8
	mov	r8, qword ptr [rsp + 40] # 8-byte Reload
	mov	r9, qword ptr [r8]
	mov	qword ptr [rsp + 96], r9
	mov	r9, qword ptr [r8 + 8]
	mov	qword ptr [rsp + 104], r9
	mov	r9, qword ptr [rsp + 32] # 8-byte Reload
	mov	r10, qword ptr [r9]
	mov	qword ptr [rsp + 80], r10
	mov	r10, qword ptr [r9 + 8]
	mov	qword ptr [rsp + 88], r10
	mov	rcx, qword ptr [rsp + 64] # 8-byte Reload
	lea	rdx, [rsp + 80]
	lea	r8, [rsp + 96]
	lea	r9, [rsp + 112]
	call	"??$_Copy_no_deprecate@V?$span_iterator@V?$span@$$CBD$0?0@gsl@@$0A@@details@gsl@@V?$span_iterator@V?$span@E$0?0@gsl@@$0A@@23@@std@@YA?AV?$span_iterator@V?$span@E$0?0@gsl@@$0A@@details@gsl@@V?$span_iterator@V?$span@$$CBD$0?0@gsl@@$0A@@23@0V123@@Z"
	mov	rcx, qword ptr [rsp + 144]
	xor	rcx, rsp
	call	__security_check_cookie
	mov	rax, qword ptr [rsp + 56] # 8-byte Reload
	add	rsp, 152
.Ltmp202:
	ret
.Ltmp203:
.Lfunc_end41:
	.seh_handlerdata
	.section	.text,"xr",discard,"??$copy@V?$span_iterator@V?$span@$$CBD$0?0@gsl@@$0A@@details@gsl@@V?$span_iterator@V?$span@E$0?0@gsl@@$0A@@23@@std@@YA?AV?$span_iterator@V?$span@E$0?0@gsl@@$0A@@details@gsl@@V?$span_iterator@V?$span@$$CBD$0?0@gsl@@$0A@@23@0V123@@Z"
	.seh_endproc
                                        # -- End function
	.def	 "?begin@?$span@E$0?0@gsl@@QEBA?AV?$span_iterator@V?$span@E$0?0@gsl@@$0A@@details@2@XZ";
	.scl	2;
	.type	32;
	.endef
	.section	.text,"xr",discard,"?begin@?$span@E$0?0@gsl@@QEBA?AV?$span_iterator@V?$span@E$0?0@gsl@@$0A@@details@2@XZ"
	.globl	"?begin@?$span@E$0?0@gsl@@QEBA?AV?$span_iterator@V?$span@E$0?0@gsl@@$0A@@details@2@XZ" # -- Begin function ?begin@?$span@E$0?0@gsl@@QEBA?AV?$span_iterator@V?$span@E$0?0@gsl@@$0A@@details@2@XZ
	.p2align	4, 0x90
"?begin@?$span@E$0?0@gsl@@QEBA?AV?$span_iterator@V?$span@E$0?0@gsl@@$0A@@details@2@XZ": # @"?begin@?$span@E$0?0@gsl@@QEBA?AV?$span_iterator@V?$span@E$0?0@gsl@@$0A@@details@2@XZ"
.Lfunc_begin42:
	.cv_func_id 42
	.cv_loc	42 2 518 0              # ..\include\gsl/span:518:0
.seh_proc "?begin@?$span@E$0?0@gsl@@QEBA?AV?$span_iterator@V?$span@E$0?0@gsl@@$0A@@details@2@XZ"
# %bb.0:
	sub	rsp, 72
	.seh_stackalloc 72
	.seh_endprologue
	mov	rax, rdx
	xor	r8d, r8d
                                        # kill: def $r8 killed $r8d
	mov	qword ptr [rsp + 64], rcx
	mov	rcx, qword ptr [rsp + 64]
.Ltmp204:
	mov	qword ptr [rsp + 56], rcx # 8-byte Spill
	mov	rcx, rdx
	mov	rdx, qword ptr [rsp + 56] # 8-byte Reload
	mov	qword ptr [rsp + 48], rax # 8-byte Spill
	call	"??0?$span_iterator@V?$span@E$0?0@gsl@@$0A@@details@gsl@@QEAA@PEBV?$span@E$0?0@2@_J@Z"
	mov	rcx, qword ptr [rsp + 48] # 8-byte Reload
	mov	qword ptr [rsp + 40], rax # 8-byte Spill
	mov	rax, rcx
	add	rsp, 72
	ret
.Ltmp205:
.Lfunc_end42:
	.seh_handlerdata
	.section	.text,"xr",discard,"?begin@?$span@E$0?0@gsl@@QEBA?AV?$span_iterator@V?$span@E$0?0@gsl@@$0A@@details@2@XZ"
	.seh_endproc
                                        # -- End function
	.def	 "?end@?$basic_string_span@$$CBD$0?0@gsl@@QEBA?AV?$span_iterator@V?$span@$$CBD$0?0@gsl@@$0A@@details@2@XZ";
	.scl	2;
	.type	32;
	.endef
	.section	.text,"xr",discard,"?end@?$basic_string_span@$$CBD$0?0@gsl@@QEBA?AV?$span_iterator@V?$span@$$CBD$0?0@gsl@@$0A@@details@2@XZ"
	.globl	"?end@?$basic_string_span@$$CBD$0?0@gsl@@QEBA?AV?$span_iterator@V?$span@$$CBD$0?0@gsl@@$0A@@details@2@XZ" # -- Begin function ?end@?$basic_string_span@$$CBD$0?0@gsl@@QEBA?AV?$span_iterator@V?$span@$$CBD$0?0@gsl@@$0A@@details@2@XZ
	.p2align	4, 0x90
"?end@?$basic_string_span@$$CBD$0?0@gsl@@QEBA?AV?$span_iterator@V?$span@$$CBD$0?0@gsl@@$0A@@details@2@XZ": # @"?end@?$basic_string_span@$$CBD$0?0@gsl@@QEBA?AV?$span_iterator@V?$span@$$CBD$0?0@gsl@@$0A@@details@2@XZ"
.Lfunc_begin43:
	.cv_func_id 43
	.cv_loc	43 5 301 0              # ..\include\gsl/string_span:301:0
.seh_proc "?end@?$basic_string_span@$$CBD$0?0@gsl@@QEBA?AV?$span_iterator@V?$span@$$CBD$0?0@gsl@@$0A@@details@2@XZ"
# %bb.0:
	sub	rsp, 56
	.seh_stackalloc 56
	.seh_endprologue
	mov	rax, rdx
	mov	qword ptr [rsp + 48], rcx
	mov	rcx, qword ptr [rsp + 48]
.Ltmp206:
	mov	qword ptr [rsp + 40], rax # 8-byte Spill
	call	"?end@?$span@$$CBD$0?0@gsl@@QEBA?AV?$span_iterator@V?$span@$$CBD$0?0@gsl@@$0A@@details@2@XZ"
	mov	rax, qword ptr [rsp + 40] # 8-byte Reload
	add	rsp, 56
	ret
.Ltmp207:
.Lfunc_end43:
	.seh_handlerdata
	.section	.text,"xr",discard,"?end@?$basic_string_span@$$CBD$0?0@gsl@@QEBA?AV?$span_iterator@V?$span@$$CBD$0?0@gsl@@$0A@@details@2@XZ"
	.seh_endproc
                                        # -- End function
	.def	 "?begin@?$basic_string_span@$$CBD$0?0@gsl@@QEBA?AV?$span_iterator@V?$span@$$CBD$0?0@gsl@@$0A@@details@2@XZ";
	.scl	2;
	.type	32;
	.endef
	.section	.text,"xr",discard,"?begin@?$basic_string_span@$$CBD$0?0@gsl@@QEBA?AV?$span_iterator@V?$span@$$CBD$0?0@gsl@@$0A@@details@2@XZ"
	.globl	"?begin@?$basic_string_span@$$CBD$0?0@gsl@@QEBA?AV?$span_iterator@V?$span@$$CBD$0?0@gsl@@$0A@@details@2@XZ" # -- Begin function ?begin@?$basic_string_span@$$CBD$0?0@gsl@@QEBA?AV?$span_iterator@V?$span@$$CBD$0?0@gsl@@$0A@@details@2@XZ
	.p2align	4, 0x90
"?begin@?$basic_string_span@$$CBD$0?0@gsl@@QEBA?AV?$span_iterator@V?$span@$$CBD$0?0@gsl@@$0A@@details@2@XZ": # @"?begin@?$basic_string_span@$$CBD$0?0@gsl@@QEBA?AV?$span_iterator@V?$span@$$CBD$0?0@gsl@@$0A@@details@2@XZ"
.Lfunc_begin44:
	.cv_func_id 44
	.cv_loc	44 5 300 0              # ..\include\gsl/string_span:300:0
.seh_proc "?begin@?$basic_string_span@$$CBD$0?0@gsl@@QEBA?AV?$span_iterator@V?$span@$$CBD$0?0@gsl@@$0A@@details@2@XZ"
# %bb.0:
	sub	rsp, 56
	.seh_stackalloc 56
	.seh_endprologue
	mov	rax, rdx
	mov	qword ptr [rsp + 48], rcx
	mov	rcx, qword ptr [rsp + 48]
.Ltmp208:
	mov	qword ptr [rsp + 40], rax # 8-byte Spill
	call	"?begin@?$span@$$CBD$0?0@gsl@@QEBA?AV?$span_iterator@V?$span@$$CBD$0?0@gsl@@$0A@@details@2@XZ"
	mov	rax, qword ptr [rsp + 40] # 8-byte Reload
	add	rsp, 56
	ret
.Ltmp209:
.Lfunc_end44:
	.seh_handlerdata
	.section	.text,"xr",discard,"?begin@?$basic_string_span@$$CBD$0?0@gsl@@QEBA?AV?$span_iterator@V?$span@$$CBD$0?0@gsl@@$0A@@details@2@XZ"
	.seh_endproc
                                        # -- End function
	.def	 "?test_string_gsl_copy@@YAXXZ";
	.scl	2;
	.type	32;
	.endef
	.text
	.globl	"?test_string_gsl_copy@@YAXXZ" # -- Begin function ?test_string_gsl_copy@@YAXXZ
	.p2align	4, 0x90
"?test_string_gsl_copy@@YAXXZ":         # @"?test_string_gsl_copy@@YAXXZ"
.Lfunc_begin45:
	.cv_func_id 45
	.cv_loc	45 1 333 0              # ..\tests\span_compile_only.cpp:333:0
.seh_proc "?test_string_gsl_copy@@YAXXZ"
# %bb.0:
	sub	rsp, 184
	.seh_stackalloc 184
	.seh_endprologue
	mov	rax, qword ptr [rip + __security_cookie]
	xor	rax, rsp
	mov	qword ptr [rsp + 176], rax
.Ltmp210:
	.cv_loc	45 1 335 0              # ..\tests\span_compile_only.cpp:335:0
	lea	rcx, [rsp + 144]
.Ltmp211:
	#DEBUG_VALUE: test_string_gsl_copy:byteSpan <- [$rcx+0]
	lea	rdx, [rsp + 166]
.Ltmp212:
	#DEBUG_VALUE: test_string_gsl_copy:bytes <- [$rdx+0]
	call	"??$?0$09@?$span@E$0?0@gsl@@QEAA@AEAY09E@Z"
.Ltmp213:
	.cv_loc	45 1 337 0              # ..\tests\span_compile_only.cpp:337:0
	lea	rcx, [rsp + 112]
	lea	rdx, [rip + "??_C@_0L@CCAJJBND@iVtrau?5lDC?$AA@"]
	mov	qword ptr [rsp + 56], rax # 8-byte Spill
	call	"??$ensure_z@$$CBD$0L@@gsl@@YA?AV?$span@$$CBD$0?0@0@AEAY0L@$$CBD@Z"
	lea	rcx, [rsp + 128]
	lea	rdx, [rsp + 112]
	call	"??$?0V?$span@$$CBD$0?0@gsl@@X@?$basic_string_span@$$CBD$0?0@gsl@@QEAA@AEBV?$span@$$CBD$0?0@1@@Z"
	.cv_loc	45 1 338 0              # ..\tests\span_compile_only.cpp:338:0
	mov	rcx, qword ptr [rsp + 144]
	mov	qword ptr [rsp + 96], rcx
	mov	rcx, qword ptr [rsp + 152]
	mov	qword ptr [rsp + 104], rcx
	lea	rcx, [rsp + 80]
	lea	rdx, [rsp + 128]
	mov	qword ptr [rsp + 48], rax # 8-byte Spill
	call	"??$?0V?$basic_string_span@$$CBD$0?0@gsl@@X@?$span@$$CBD$0?0@gsl@@QEAA@AEAV?$basic_string_span@$$CBD$0?0@1@@Z"
	lea	rcx, [rsp + 80]
	lea	rdx, [rsp + 96]
	mov	qword ptr [rsp + 40], rax # 8-byte Spill
	call	"??$copy@$$CBD$0?0E$0?0@gsl@@YAXV?$span@$$CBD$0?0@0@V?$span@E$0?0@0@@Z"
	.cv_loc	45 1 340 0              # ..\tests\span_compile_only.cpp:340:0
	mov	rax, qword ptr [rsp + 144]
	mov	qword ptr [rsp + 64], rax
	mov	rax, qword ptr [rsp + 152]
	mov	qword ptr [rsp + 72], rax
	lea	rcx, [rsp + 64]
	call	"?bar@@YAXV?$span@E$0?0@gsl@@@Z"
	mov	rax, qword ptr [rsp + 176]
	xor	rax, rsp
	mov	rcx, rax
	call	__security_check_cookie
	.cv_loc	45 1 341 0              # ..\tests\span_compile_only.cpp:341:0
	nop
	add	rsp, 184
	ret
.Ltmp214:
.Lfunc_end45:
	.seh_handlerdata
	.text
	.seh_endproc
                                        # -- End function
	.def	 "??$copy@$$CBD$0?0E$0?0@gsl@@YAXV?$span@$$CBD$0?0@0@V?$span@E$0?0@0@@Z";
	.scl	2;
	.type	32;
	.endef
	.section	.text,"xr",discard,"??$copy@$$CBD$0?0E$0?0@gsl@@YAXV?$span@$$CBD$0?0@0@V?$span@E$0?0@0@@Z"
	.globl	"??$copy@$$CBD$0?0E$0?0@gsl@@YAXV?$span@$$CBD$0?0@0@V?$span@E$0?0@0@@Z" # -- Begin function ??$copy@$$CBD$0?0E$0?0@gsl@@YAXV?$span@$$CBD$0?0@0@V?$span@E$0?0@0@@Z
	.p2align	4, 0x90
"??$copy@$$CBD$0?0E$0?0@gsl@@YAXV?$span@$$CBD$0?0@0@V?$span@E$0?0@0@@Z": # @"??$copy@$$CBD$0?0E$0?0@gsl@@YAXV?$span@$$CBD$0?0@0@V?$span@E$0?0@0@@Z"
.Lfunc_begin46:
	.cv_func_id 46
	.cv_loc	46 4 43 0               # ..\include\gsl/gsl_algorithm:43:0
.seh_proc "??$copy@$$CBD$0?0E$0?0@gsl@@YAXV?$span@$$CBD$0?0@0@V?$span@E$0?0@0@@Z"
	.seh_handler __CxxFrameHandler3, @unwind, @except
# %bb.0:
	push	rbp
	.seh_pushreg 5
	sub	rsp, 144
	.seh_stackalloc 144
	lea	rbp, [rsp + 128]
	.seh_setframe 5, 128
	.seh_endprologue
.Ltmp217:
	.cv_loc	46 4 50 0               # ..\include\gsl/gsl_algorithm:50:0
	mov	qword ptr [rbp + 8], -2
	#DEBUG_VALUE: copy<const char,-1,unsigned char,-1>:dest <- [$rdx+0]
	#DEBUG_VALUE: copy<const char,-1,unsigned char,-1>:src <- [$rcx+0]
	mov	qword ptr [rbp - 32], rcx # 8-byte Spill
.Ltmp218:
	#DEBUG_VALUE: copy<const char,-1,unsigned char,-1>:src <- [DW_OP_constu 32, DW_OP_minus, DW_OP_deref] [$rbp+0]
	mov	rcx, rdx
	mov	qword ptr [rbp - 40], rdx # 8-byte Spill
.Ltmp219:
	#DEBUG_VALUE: copy<const char,-1,unsigned char,-1>:dest <- [DW_OP_constu 40, DW_OP_minus, DW_OP_deref] [$rbp+0]
	call	"?size@?$span@E$0?0@gsl@@QEBA_JXZ"
	mov	rcx, qword ptr [rbp - 32] # 8-byte Reload
	mov	qword ptr [rbp - 48], rax # 8-byte Spill
	call	"?size@?$span@$$CBD$0?0@gsl@@QEBA_JXZ"
	mov	rcx, qword ptr [rbp - 48] # 8-byte Reload
	cmp	rcx, rax
	setge	r8b
	mov	byte ptr [rbp - 17], 0
	test	r8b, 1
	jne	.LBB46_1
	jmp	.LBB46_2
.Ltmp220:
.LBB46_1:
	#DEBUG_VALUE: copy<const char,-1,unsigned char,-1>:dest <- [DW_OP_constu 40, DW_OP_minus, DW_OP_deref] [$rbp+0]
	#DEBUG_VALUE: copy<const char,-1,unsigned char,-1>:src <- [DW_OP_constu 32, DW_OP_minus, DW_OP_deref] [$rbp+0]
	test	byte ptr [rbp - 17], 1
	jne	.LBB46_4
	jmp	.LBB46_5
.Ltmp221:
.LBB46_2:
	#DEBUG_VALUE: copy<const char,-1,unsigned char,-1>:dest <- [DW_OP_constu 40, DW_OP_minus, DW_OP_deref] [$rbp+0]
	#DEBUG_VALUE: copy<const char,-1,unsigned char,-1>:src <- [DW_OP_constu 32, DW_OP_minus, DW_OP_deref] [$rbp+0]
	lea	rdx, [rip + "??_C@_0DO@ODIBPFEH@GSL?3?5Precondition?5failure?5at?5?4?4?2@"]
	lea	rax, [rbp - 16]
	mov	rcx, rax
	mov	qword ptr [rbp - 56], rax # 8-byte Spill
	call	"??0fail_fast@gsl@@QEAA@QEBD@Z"
	mov	byte ptr [rbp - 17], 1
.Ltmp215:
	mov	rcx, qword ptr [rbp - 56] # 8-byte Reload
	mov	qword ptr [rbp - 64], rax # 8-byte Spill
	call	"??$throw_exception@Ufail_fast@gsl@@@details@gsl@@YAX$$QEAUfail_fast@1@@Z"
.Ltmp216:
	jmp	.LBB46_3
.Ltmp222:
.LBB46_3:
	#DEBUG_VALUE: copy<const char,-1,unsigned char,-1>:dest <- [DW_OP_constu 40, DW_OP_minus, DW_OP_deref] [$rbp+0]
	#DEBUG_VALUE: copy<const char,-1,unsigned char,-1>:src <- [DW_OP_constu 32, DW_OP_minus, DW_OP_deref] [$rbp+0]
	ud2
.Ltmp223:
.LBB46_4:
	#DEBUG_VALUE: copy<const char,-1,unsigned char,-1>:dest <- [DW_OP_constu 40, DW_OP_minus, DW_OP_deref] [$rbp+0]
	#DEBUG_VALUE: copy<const char,-1,unsigned char,-1>:src <- [DW_OP_constu 32, DW_OP_minus, DW_OP_deref] [$rbp+0]
	lea	rcx, [rbp - 16]
	call	"??1fail_fast@gsl@@UEAA@XZ"
.Ltmp224:
.LBB46_5:
	#DEBUG_VALUE: copy<const char,-1,unsigned char,-1>:dest <- [DW_OP_constu 40, DW_OP_minus, DW_OP_deref] [$rbp+0]
	#DEBUG_VALUE: copy<const char,-1,unsigned char,-1>:src <- [DW_OP_constu 32, DW_OP_minus, DW_OP_deref] [$rbp+0]
	.cv_loc	46 4 52 0               # ..\include\gsl/gsl_algorithm:52:0
	mov	rcx, qword ptr [rbp - 40] # 8-byte Reload
	call	"?data@?$span@E$0?0@gsl@@QEBAPEAEXZ"
	mov	rcx, qword ptr [rbp - 32] # 8-byte Reload
	mov	qword ptr [rbp - 72], rax # 8-byte Spill
	call	"?size@?$span@$$CBD$0?0@gsl@@QEBA_JXZ"
	mov	rcx, qword ptr [rbp - 32] # 8-byte Reload
	mov	qword ptr [rbp - 80], rax # 8-byte Spill
	call	"?data@?$span@$$CBD$0?0@gsl@@QEBAPEBDXZ"
	mov	rcx, rax
	mov	rdx, qword ptr [rbp - 80] # 8-byte Reload
	mov	r8, qword ptr [rbp - 72] # 8-byte Reload
	call	"??$copy_n@PEBD_JPEAE@std@@YAPEAEPEBD_JPEAE@Z"
	.cv_loc	46 4 53 0               # ..\include\gsl/gsl_algorithm:53:0
	mov	qword ptr [rbp - 88], rax # 8-byte Spill
	add	rsp, 144
	pop	rbp
.Ltmp225:
	ret
	.seh_handlerdata
	.long	("$cppxdata$??$copy@$$CBD$0?0E$0?0@gsl@@YAXV?$span@$$CBD$0?0@0@V?$span@E$0?0@0@@Z")@IMGREL
	.section	.text,"xr",discard,"??$copy@$$CBD$0?0E$0?0@gsl@@YAXV?$span@$$CBD$0?0@0@V?$span@E$0?0@0@@Z"
	.seh_endproc
	.def	 "?dtor$6@?0???$copy@$$CBD$0?0E$0?0@gsl@@YAXV?$span@$$CBD$0?0@0@V?$span@E$0?0@0@@Z@4HA";
	.scl	3;
	.type	32;
	.endef
	.p2align	4, 0x90
"?dtor$6@?0???$copy@$$CBD$0?0E$0?0@gsl@@YAXV?$span@$$CBD$0?0@0@V?$span@E$0?0@0@@Z@4HA":
.seh_proc "?dtor$6@?0???$copy@$$CBD$0?0E$0?0@gsl@@YAXV?$span@$$CBD$0?0@0@V?$span@E$0?0@0@@Z@4HA"
.LBB46_6:
.Ltmp226:
	#DEBUG_VALUE: copy<const char,-1,unsigned char,-1>:dest <- [DW_OP_constu 40, DW_OP_minus, DW_OP_deref] [$rbp+0]
	#DEBUG_VALUE: copy<const char,-1,unsigned char,-1>:src <- [DW_OP_constu 32, DW_OP_minus, DW_OP_deref] [$rbp+0]
	mov	qword ptr [rsp + 16], rdx
	push	rbp
	.seh_pushreg 5
	sub	rsp, 32
	.seh_stackalloc 32
	lea	rbp, [rdx + 128]
.Ltmp227:
	.seh_endprologue
	.cv_loc	46 4 50 0               # ..\include\gsl/gsl_algorithm:50:0
	test	byte ptr [rbp - 17], 1
	jne	.LBB46_7
	jmp	.LBB46_8
.LBB46_7:
	lea	rcx, [rbp - 16]
	call	"??1fail_fast@gsl@@UEAA@XZ"
.LBB46_8:
	nop
	add	rsp, 32
	pop	rbp
	ret                             # CLEANUPRET
.Ltmp228:
.Lfunc_end46:
	.seh_handlerdata
	.section	.text,"xr",discard,"??$copy@$$CBD$0?0E$0?0@gsl@@YAXV?$span@$$CBD$0?0@0@V?$span@E$0?0@0@@Z"
	.seh_endproc
	.section	.xdata,"dr",associative,"??$copy@$$CBD$0?0E$0?0@gsl@@YAXV?$span@$$CBD$0?0@0@V?$span@E$0?0@0@@Z"
	.p2align	2
"$cppxdata$??$copy@$$CBD$0?0E$0?0@gsl@@YAXV?$span@$$CBD$0?0@0@V?$span@E$0?0@0@@Z":
	.long	429065506               # MagicNumber
	.long	1                       # MaxState
	.long	("$stateUnwindMap$??$copy@$$CBD$0?0E$0?0@gsl@@YAXV?$span@$$CBD$0?0@0@V?$span@E$0?0@0@@Z")@IMGREL # UnwindMap
	.long	0                       # NumTryBlocks
	.long	0                       # TryBlockMap
	.long	3                       # IPMapEntries
	.long	("$ip2state$??$copy@$$CBD$0?0E$0?0@gsl@@YAXV?$span@$$CBD$0?0@0@V?$span@E$0?0@0@@Z")@IMGREL # IPToStateXData
	.long	136                     # UnwindHelp
	.long	0                       # ESTypeList
	.long	1                       # EHFlags
"$stateUnwindMap$??$copy@$$CBD$0?0E$0?0@gsl@@YAXV?$span@$$CBD$0?0@0@V?$span@E$0?0@0@@Z":
	.long	-1                      # ToState
	.long	"?dtor$6@?0???$copy@$$CBD$0?0E$0?0@gsl@@YAXV?$span@$$CBD$0?0@0@V?$span@E$0?0@0@@Z@4HA"@IMGREL # Action
"$ip2state$??$copy@$$CBD$0?0E$0?0@gsl@@YAXV?$span@$$CBD$0?0@0@V?$span@E$0?0@0@@Z":
	.long	.Lfunc_begin46@IMGREL   # IP
	.long	-1                      # ToState
	.long	.Ltmp215@IMGREL+1       # IP
	.long	0                       # ToState
	.long	.Ltmp216@IMGREL+1       # IP
	.long	-1                      # ToState
	.section	.text,"xr",discard,"??$copy@$$CBD$0?0E$0?0@gsl@@YAXV?$span@$$CBD$0?0@0@V?$span@E$0?0@0@@Z"
                                        # -- End function
	.def	 "??$?0V?$basic_string_span@$$CBD$0?0@gsl@@X@?$span@$$CBD$0?0@gsl@@QEAA@AEAV?$basic_string_span@$$CBD$0?0@1@@Z";
	.scl	2;
	.type	32;
	.endef
	.section	.text,"xr",discard,"??$?0V?$basic_string_span@$$CBD$0?0@gsl@@X@?$span@$$CBD$0?0@gsl@@QEAA@AEAV?$basic_string_span@$$CBD$0?0@1@@Z"
	.globl	"??$?0V?$basic_string_span@$$CBD$0?0@gsl@@X@?$span@$$CBD$0?0@gsl@@QEAA@AEAV?$basic_string_span@$$CBD$0?0@1@@Z" # -- Begin function ??$?0V?$basic_string_span@$$CBD$0?0@gsl@@X@?$span@$$CBD$0?0@gsl@@QEAA@AEAV?$basic_string_span@$$CBD$0?0@1@@Z
	.p2align	4, 0x90
"??$?0V?$basic_string_span@$$CBD$0?0@gsl@@X@?$span@$$CBD$0?0@gsl@@QEAA@AEAV?$basic_string_span@$$CBD$0?0@1@@Z": # @"??$?0V?$basic_string_span@$$CBD$0?0@gsl@@X@?$span@$$CBD$0?0@gsl@@QEAA@AEAV?$basic_string_span@$$CBD$0?0@1@@Z"
.Lfunc_begin47:
	.cv_func_id 47
	.cv_loc	47 2 428 0              # ..\include\gsl/span:428:0
.seh_proc "??$?0V?$basic_string_span@$$CBD$0?0@gsl@@X@?$span@$$CBD$0?0@gsl@@QEAA@AEAV?$basic_string_span@$$CBD$0?0@1@@Z"
# %bb.0:
	sub	rsp, 72
	.seh_stackalloc 72
	.seh_endprologue
	mov	qword ptr [rsp + 64], rdx
	mov	qword ptr [rsp + 56], rcx
	mov	rcx, qword ptr [rsp + 56]
.Ltmp229:
	mov	rdx, qword ptr [rsp + 64]
	mov	qword ptr [rsp + 48], rcx # 8-byte Spill
	mov	rcx, rdx
	call	"?size@?$basic_string_span@$$CBD$0?0@gsl@@QEBA_JXZ"
	mov	rcx, rax
	call	"??$narrow@_J_J@gsl@@YA_J_J@Z"
	mov	rcx, qword ptr [rsp + 64]
	mov	qword ptr [rsp + 40], rax # 8-byte Spill
	call	"?data@?$basic_string_span@$$CBD$0?0@gsl@@QEBAPEBDXZ"
	mov	rcx, qword ptr [rsp + 48] # 8-byte Reload
	mov	rdx, rax
	mov	r8, qword ptr [rsp + 40] # 8-byte Reload
	call	"??0?$span@$$CBD$0?0@gsl@@QEAA@PEBD_J@Z"
	mov	rcx, qword ptr [rsp + 48] # 8-byte Reload
	mov	qword ptr [rsp + 32], rax # 8-byte Spill
	mov	rax, rcx
	add	rsp, 72
	ret
.Ltmp230:
.Lfunc_end47:
	.seh_handlerdata
	.section	.text,"xr",discard,"??$?0V?$basic_string_span@$$CBD$0?0@gsl@@X@?$span@$$CBD$0?0@gsl@@QEAA@AEAV?$basic_string_span@$$CBD$0?0@1@@Z"
	.seh_endproc
                                        # -- End function
	.def	 "?CheckRange@?$span@H$0?0@gsl@@CA_N_J0@Z";
	.scl	2;
	.type	32;
	.endef
	.section	.text,"xr",discard,"?CheckRange@?$span@H$0?0@gsl@@CA_N_J0@Z"
	.globl	"?CheckRange@?$span@H$0?0@gsl@@CA_N_J0@Z" # -- Begin function ?CheckRange@?$span@H$0?0@gsl@@CA_N_J0@Z
	.p2align	4, 0x90
"?CheckRange@?$span@H$0?0@gsl@@CA_N_J0@Z": # @"?CheckRange@?$span@H$0?0@gsl@@CA_N_J0@Z"
.Lfunc_begin48:
	.cv_func_id 48
	.cv_loc	48 2 548 0              # ..\include\gsl/span:548:0
.seh_proc "?CheckRange@?$span@H$0?0@gsl@@CA_N_J0@Z"
# %bb.0:
	sub	rsp, 72
	.seh_stackalloc 72
	.seh_endprologue
	mov	rax, qword ptr [rip + __security_cookie]
	xor	rax, rsp
	mov	qword ptr [rsp + 64], rax
	mov	qword ptr [rsp + 56], rdx
	mov	qword ptr [rsp + 48], rcx
.Ltmp231:
	.cv_loc	48 2 565 0              # ..\include\gsl/span:565:0
	lea	rcx, [rsp + 48]
	#DEBUG_VALUE: CheckRange:idx <- [$rcx+0]
	call	"??$narrow_cast@_KAEA_J@gsl@@YA_KAEA_J@Z"
.Ltmp232:
	lea	rcx, [rsp + 56]
	mov	qword ptr [rsp + 40], rax # 8-byte Spill
	call	"??$narrow_cast@_KAEA_J@gsl@@YA_KAEA_J@Z"
	mov	rcx, qword ptr [rsp + 40] # 8-byte Reload
	cmp	rcx, rax
	setb	r8b
	and	r8b, 1
	movzx	eax, r8b
	mov	rdx, qword ptr [rsp + 64]
	xor	rdx, rsp
	mov	rcx, rdx
	mov	dword ptr [rsp + 36], eax # 4-byte Spill
	call	__security_check_cookie
	mov	eax, dword ptr [rsp + 36] # 4-byte Reload
	add	rsp, 72
	ret
.Ltmp233:
.Lfunc_end48:
	.seh_handlerdata
	.section	.text,"xr",discard,"?CheckRange@?$span@H$0?0@gsl@@CA_N_J0@Z"
	.seh_endproc
                                        # -- End function
	.def	 "?size@?$extent_type@$0?0@details@gsl@@QEBA_JXZ";
	.scl	2;
	.type	32;
	.endef
	.section	.text,"xr",discard,"?size@?$extent_type@$0?0@details@gsl@@QEBA_JXZ"
	.globl	"?size@?$extent_type@$0?0@details@gsl@@QEBA_JXZ" # -- Begin function ?size@?$extent_type@$0?0@details@gsl@@QEBA_JXZ
	.p2align	4, 0x90
"?size@?$extent_type@$0?0@details@gsl@@QEBA_JXZ": # @"?size@?$extent_type@$0?0@details@gsl@@QEBA_JXZ"
.Lfunc_begin49:
	.cv_func_id 49
	.cv_loc	49 2 338 0              # ..\include\gsl/span:338:0
.seh_proc "?size@?$extent_type@$0?0@details@gsl@@QEBA_JXZ"
# %bb.0:
	push	rax
	.seh_stackalloc 8
	.seh_endprologue
	mov	qword ptr [rsp], rcx
	mov	rcx, qword ptr [rsp]
.Ltmp234:
	mov	rax, qword ptr [rcx]
	pop	rcx
	ret
.Ltmp235:
.Lfunc_end49:
	.seh_handlerdata
	.section	.text,"xr",discard,"?size@?$extent_type@$0?0@details@gsl@@QEBA_JXZ"
	.seh_endproc
                                        # -- End function
	.def	 "??$throw_exception@Ufail_fast@gsl@@@details@gsl@@YAX$$QEAUfail_fast@1@@Z";
	.scl	2;
	.type	32;
	.endef
	.section	.text,"xr",discard,"??$throw_exception@Ufail_fast@gsl@@@details@gsl@@YAX$$QEAUfail_fast@1@@Z"
	.globl	"??$throw_exception@Ufail_fast@gsl@@@details@gsl@@YAX$$QEAUfail_fast@1@@Z" # -- Begin function ??$throw_exception@Ufail_fast@gsl@@@details@gsl@@YAX$$QEAUfail_fast@1@@Z
	.p2align	4, 0x90
"??$throw_exception@Ufail_fast@gsl@@@details@gsl@@YAX$$QEAUfail_fast@1@@Z": # @"??$throw_exception@Ufail_fast@gsl@@@details@gsl@@YAX$$QEAUfail_fast@1@@Z"
.Lfunc_begin50:
	.cv_func_id 50
	.cv_file	6 "C:\\projects\\gsl\\include\\gsl\\gsl_assert" "DC2D278DC08DD14FC7E736FCD7722B8E" 1
	.cv_loc	50 6 143 0              # ..\include\gsl/gsl_assert:143:0
.seh_proc "??$throw_exception@Ufail_fast@gsl@@@details@gsl@@YAX$$QEAUfail_fast@1@@Z"
# %bb.0:
	sub	rsp, 88
	.seh_stackalloc 88
	.seh_endprologue
	mov	qword ptr [rsp + 80], rcx
.Ltmp236:
	.cv_loc	50 6 144 0              # ..\include\gsl/gsl_assert:144:0
	mov	rcx, qword ptr [rsp + 80]
	call	"??$forward@Ufail_fast@gsl@@@std@@YA$$QEAUfail_fast@gsl@@AEAU12@@Z"
	lea	rcx, [rsp + 56]
	mov	qword ptr [rsp + 48], rcx # 8-byte Spill
	mov	rdx, rax
	call	"??0fail_fast@gsl@@QEAA@$$QEAU01@@Z"
	lea	rdx, [rip + "_TI3?AUfail_fast@gsl@@"]
	mov	rcx, qword ptr [rip + __imp__CxxThrowException]
	mov	r8, qword ptr [rsp + 48] # 8-byte Reload
	mov	qword ptr [rsp + 40], rcx # 8-byte Spill
	mov	rcx, r8
	mov	r9, qword ptr [rsp + 40] # 8-byte Reload
	mov	qword ptr [rsp + 32], rax # 8-byte Spill
	call	r9
	ud2
.Ltmp237:
.Lfunc_end50:
	.seh_handlerdata
	.section	.text,"xr",discard,"??$throw_exception@Ufail_fast@gsl@@@details@gsl@@YAX$$QEAUfail_fast@1@@Z"
	.seh_endproc
                                        # -- End function
	.def	 "??0fail_fast@gsl@@QEAA@QEBD@Z";
	.scl	2;
	.type	32;
	.endef
	.section	.text,"xr",discard,"??0fail_fast@gsl@@QEAA@QEBD@Z"
	.globl	"??0fail_fast@gsl@@QEAA@QEBD@Z" # -- Begin function ??0fail_fast@gsl@@QEAA@QEBD@Z
	.p2align	4, 0x90
"??0fail_fast@gsl@@QEAA@QEBD@Z":        # @"??0fail_fast@gsl@@QEAA@QEBD@Z"
.Lfunc_begin51:
	.cv_func_id 51
	.cv_loc	51 6 99 0               # ..\include\gsl/gsl_assert:99:0
.seh_proc "??0fail_fast@gsl@@QEAA@QEBD@Z"
# %bb.0:
	sub	rsp, 72
	.seh_stackalloc 72
	.seh_endprologue
	mov	qword ptr [rsp + 64], rdx
	mov	qword ptr [rsp + 56], rcx
	mov	rcx, qword ptr [rsp + 56]
.Ltmp238:
	mov	rdx, rcx
	mov	rax, qword ptr [rsp + 64]
	mov	qword ptr [rsp + 48], rcx # 8-byte Spill
	mov	rcx, rdx
	mov	rdx, rax
	call	"??0logic_error@std@@QEAA@PEBD@Z"
	lea	rcx, [rip + "??_7fail_fast@gsl@@6B@"]
	mov	rdx, qword ptr [rsp + 48] # 8-byte Reload
	mov	qword ptr [rdx], rcx
	mov	qword ptr [rsp + 40], rax # 8-byte Spill
	mov	rax, rdx
	add	rsp, 72
	ret
.Ltmp239:
.Lfunc_end51:
	.seh_handlerdata
	.section	.text,"xr",discard,"??0fail_fast@gsl@@QEAA@QEBD@Z"
	.seh_endproc
                                        # -- End function
	.def	 "??1fail_fast@gsl@@UEAA@XZ";
	.scl	2;
	.type	32;
	.endef
	.section	.text,"xr",discard,"??1fail_fast@gsl@@UEAA@XZ"
	.globl	"??1fail_fast@gsl@@UEAA@XZ" # -- Begin function ??1fail_fast@gsl@@UEAA@XZ
	.p2align	4, 0x90
"??1fail_fast@gsl@@UEAA@XZ":            # @"??1fail_fast@gsl@@UEAA@XZ"
.Lfunc_begin52:
	.cv_func_id 52
	.cv_loc	52 6 97 0               # ..\include\gsl/gsl_assert:97:0
.seh_proc "??1fail_fast@gsl@@UEAA@XZ"
# %bb.0:
	sub	rsp, 40
	.seh_stackalloc 40
	.seh_endprologue
	mov	qword ptr [rsp + 32], rcx
	mov	rcx, qword ptr [rsp + 32]
.Ltmp240:
	.cv_loc	52 6 97 0               # ..\include\gsl/gsl_assert:97:0
	call	"??1logic_error@std@@UEAA@XZ"
.Ltmp241:
	.cv_loc	52 6 97 0               # ..\include\gsl/gsl_assert:97:0
	nop
	add	rsp, 40
	ret
.Ltmp242:
.Lfunc_end52:
	.seh_handlerdata
	.section	.text,"xr",discard,"??1fail_fast@gsl@@UEAA@XZ"
	.seh_endproc
                                        # -- End function
	.def	 "?data@?$span@H$0?0@gsl@@QEBAPEAHXZ";
	.scl	2;
	.type	32;
	.endef
	.section	.text,"xr",discard,"?data@?$span@H$0?0@gsl@@QEBAPEAHXZ"
	.globl	"?data@?$span@H$0?0@gsl@@QEBAPEAHXZ" # -- Begin function ?data@?$span@H$0?0@gsl@@QEBAPEAHXZ
	.p2align	4, 0x90
"?data@?$span@H$0?0@gsl@@QEBAPEAHXZ":   # @"?data@?$span@H$0?0@gsl@@QEBAPEAHXZ"
.Lfunc_begin53:
	.cv_func_id 53
	.cv_loc	53 2 515 0              # ..\include\gsl/span:515:0
.seh_proc "?data@?$span@H$0?0@gsl@@QEBAPEAHXZ"
# %bb.0:
	sub	rsp, 40
	.seh_stackalloc 40
	.seh_endprologue
	mov	qword ptr [rsp + 32], rcx
	mov	rcx, qword ptr [rsp + 32]
.Ltmp243:
	call	"?data@?$storage_type@V?$extent_type@$0?0@details@gsl@@@?$span@H$0?0@gsl@@QEBAPEAHXZ"
	nop
	add	rsp, 40
	ret
.Ltmp244:
.Lfunc_end53:
	.seh_handlerdata
	.section	.text,"xr",discard,"?data@?$span@H$0?0@gsl@@QEBAPEAHXZ"
	.seh_endproc
                                        # -- End function
	.def	 "??$narrow_cast@_KAEA_J@gsl@@YA_KAEA_J@Z";
	.scl	2;
	.type	32;
	.endef
	.section	.text,"xr",discard,"??$narrow_cast@_KAEA_J@gsl@@YA_KAEA_J@Z"
	.globl	"??$narrow_cast@_KAEA_J@gsl@@YA_KAEA_J@Z" # -- Begin function ??$narrow_cast@_KAEA_J@gsl@@YA_KAEA_J@Z
	.p2align	4, 0x90
"??$narrow_cast@_KAEA_J@gsl@@YA_KAEA_J@Z": # @"??$narrow_cast@_KAEA_J@gsl@@YA_KAEA_J@Z"
.Lfunc_begin54:
	.cv_func_id 54
	.cv_file	7 "C:\\projects\\gsl\\include\\gsl\\gsl_util" "9954522A071AE96641C34E4C32052141" 1
	.cv_loc	54 7 99 0               # ..\include\gsl/gsl_util:99:0
.seh_proc "??$narrow_cast@_KAEA_J@gsl@@YA_KAEA_J@Z"
# %bb.0:
	sub	rsp, 40
	.seh_stackalloc 40
	.seh_endprologue
	mov	qword ptr [rsp + 32], rcx
.Ltmp245:
	.cv_loc	54 7 100 0              # ..\include\gsl/gsl_util:100:0
	mov	rcx, qword ptr [rsp + 32]
	call	"??$forward@AEA_J@std@@YAAEA_JAEA_J@Z"
	mov	rax, qword ptr [rax]
	add	rsp, 40
	ret
.Ltmp246:
.Lfunc_end54:
	.seh_handlerdata
	.section	.text,"xr",discard,"??$narrow_cast@_KAEA_J@gsl@@YA_KAEA_J@Z"
	.seh_endproc
                                        # -- End function
	.def	 "??$forward@AEA_J@std@@YAAEA_JAEA_J@Z";
	.scl	2;
	.type	32;
	.endef
	.section	.text,"xr",discard,"??$forward@AEA_J@std@@YAAEA_JAEA_J@Z"
	.globl	"??$forward@AEA_J@std@@YAAEA_JAEA_J@Z" # -- Begin function ??$forward@AEA_J@std@@YAAEA_JAEA_J@Z
	.p2align	4, 0x90
"??$forward@AEA_J@std@@YAAEA_JAEA_J@Z": # @"??$forward@AEA_J@std@@YAAEA_JAEA_J@Z"
.Lfunc_begin55:
	.cv_func_id 55
	.cv_file	8 "C:\\Program Files (x86)\\Microsoft Visual Studio 14.0\\VC\\INCLUDE\\type_traits" "B9ECC2DE0898FB12FE69D120D1C07A61" 1
	.cv_loc	55 8 1275 0             # C:\Program Files (x86)\Microsoft Visual Studio 14.0\VC\INCLUDE\type_traits:1275:0
.seh_proc "??$forward@AEA_J@std@@YAAEA_JAEA_J@Z"
# %bb.0:
	push	rax
	.seh_stackalloc 8
	.seh_endprologue
	mov	qword ptr [rsp], rcx
.Ltmp247:
	.cv_loc	55 8 1276 0             # C:\Program Files (x86)\Microsoft Visual Studio 14.0\VC\INCLUDE\type_traits:1276:0
	mov	rax, qword ptr [rsp]
	pop	rcx
	ret
.Ltmp248:
.Lfunc_end55:
	.seh_handlerdata
	.section	.text,"xr",discard,"??$forward@AEA_J@std@@YAAEA_JAEA_J@Z"
	.seh_endproc
                                        # -- End function
	.def	 "??$forward@Ufail_fast@gsl@@@std@@YA$$QEAUfail_fast@gsl@@AEAU12@@Z";
	.scl	2;
	.type	32;
	.endef
	.section	.text,"xr",discard,"??$forward@Ufail_fast@gsl@@@std@@YA$$QEAUfail_fast@gsl@@AEAU12@@Z"
	.globl	"??$forward@Ufail_fast@gsl@@@std@@YA$$QEAUfail_fast@gsl@@AEAU12@@Z" # -- Begin function ??$forward@Ufail_fast@gsl@@@std@@YA$$QEAUfail_fast@gsl@@AEAU12@@Z
	.p2align	4, 0x90
"??$forward@Ufail_fast@gsl@@@std@@YA$$QEAUfail_fast@gsl@@AEAU12@@Z": # @"??$forward@Ufail_fast@gsl@@@std@@YA$$QEAUfail_fast@gsl@@AEAU12@@Z"
.Lfunc_begin56:
	.cv_func_id 56
	.cv_loc	56 8 1275 0             # C:\Program Files (x86)\Microsoft Visual Studio 14.0\VC\INCLUDE\type_traits:1275:0
.seh_proc "??$forward@Ufail_fast@gsl@@@std@@YA$$QEAUfail_fast@gsl@@AEAU12@@Z"
# %bb.0:
	push	rax
	.seh_stackalloc 8
	.seh_endprologue
	mov	qword ptr [rsp], rcx
.Ltmp249:
	.cv_loc	56 8 1276 0             # C:\Program Files (x86)\Microsoft Visual Studio 14.0\VC\INCLUDE\type_traits:1276:0
	mov	rax, qword ptr [rsp]
	pop	rcx
	ret
.Ltmp250:
.Lfunc_end56:
	.seh_handlerdata
	.section	.text,"xr",discard,"??$forward@Ufail_fast@gsl@@@std@@YA$$QEAUfail_fast@gsl@@AEAU12@@Z"
	.seh_endproc
                                        # -- End function
	.def	 "??0fail_fast@gsl@@QEAA@$$QEAU01@@Z";
	.scl	2;
	.type	32;
	.endef
	.section	.text,"xr",discard,"??0fail_fast@gsl@@QEAA@$$QEAU01@@Z"
	.globl	"??0fail_fast@gsl@@QEAA@$$QEAU01@@Z" # -- Begin function ??0fail_fast@gsl@@QEAA@$$QEAU01@@Z
	.p2align	4, 0x90
"??0fail_fast@gsl@@QEAA@$$QEAU01@@Z":   # @"??0fail_fast@gsl@@QEAA@$$QEAU01@@Z"
.Lfunc_begin57:
	.cv_func_id 57
	.cv_loc	57 6 97 0               # ..\include\gsl/gsl_assert:97:0
.seh_proc "??0fail_fast@gsl@@QEAA@$$QEAU01@@Z"
# %bb.0:
	sub	rsp, 72
	.seh_stackalloc 72
	.seh_endprologue
	mov	qword ptr [rsp + 64], rdx
	mov	qword ptr [rsp + 56], rcx
	mov	rcx, qword ptr [rsp + 56]
.Ltmp251:
	mov	rdx, rcx
	mov	rax, qword ptr [rsp + 64]
	mov	qword ptr [rsp + 48], rcx # 8-byte Spill
	mov	rcx, rdx
	mov	rdx, rax
	call	"??0logic_error@std@@QEAA@$$QEAV01@@Z"
	lea	rcx, [rip + "??_7fail_fast@gsl@@6B@"]
	mov	rdx, qword ptr [rsp + 48] # 8-byte Reload
	mov	qword ptr [rdx], rcx
	mov	qword ptr [rsp + 40], rax # 8-byte Spill
	mov	rax, rdx
	add	rsp, 72
	ret
.Ltmp252:
.Lfunc_end57:
	.seh_handlerdata
	.section	.text,"xr",discard,"??0fail_fast@gsl@@QEAA@$$QEAU01@@Z"
	.seh_endproc
                                        # -- End function
	.def	 "??0fail_fast@gsl@@QEAA@AEBU01@@Z";
	.scl	2;
	.type	32;
	.endef
	.section	.text,"xr",discard,"??0fail_fast@gsl@@QEAA@AEBU01@@Z"
	.globl	"??0fail_fast@gsl@@QEAA@AEBU01@@Z" # -- Begin function ??0fail_fast@gsl@@QEAA@AEBU01@@Z
	.p2align	4, 0x90
"??0fail_fast@gsl@@QEAA@AEBU01@@Z":     # @"??0fail_fast@gsl@@QEAA@AEBU01@@Z"
.Lfunc_begin58:
	.cv_func_id 58
	.cv_loc	58 6 97 0               # ..\include\gsl/gsl_assert:97:0
.seh_proc "??0fail_fast@gsl@@QEAA@AEBU01@@Z"
# %bb.0:
	sub	rsp, 72
	.seh_stackalloc 72
	.seh_endprologue
	mov	qword ptr [rsp + 64], rdx
	mov	qword ptr [rsp + 56], rcx
	mov	rcx, qword ptr [rsp + 56]
.Ltmp253:
	mov	rdx, rcx
	mov	rax, qword ptr [rsp + 64]
	mov	qword ptr [rsp + 48], rcx # 8-byte Spill
	mov	rcx, rdx
	mov	rdx, rax
	call	"??0logic_error@std@@QEAA@AEBV01@@Z"
	lea	rcx, [rip + "??_7fail_fast@gsl@@6B@"]
	mov	rdx, qword ptr [rsp + 48] # 8-byte Reload
	mov	qword ptr [rdx], rcx
	mov	qword ptr [rsp + 40], rax # 8-byte Spill
	mov	rax, rdx
	add	rsp, 72
	ret
.Ltmp254:
.Lfunc_end58:
	.seh_handlerdata
	.section	.text,"xr",discard,"??0fail_fast@gsl@@QEAA@AEBU01@@Z"
	.seh_endproc
                                        # -- End function
	.def	 "??0logic_error@std@@QEAA@AEBV01@@Z";
	.scl	2;
	.type	32;
	.endef
	.section	.text,"xr",discard,"??0logic_error@std@@QEAA@AEBV01@@Z"
	.globl	"??0logic_error@std@@QEAA@AEBV01@@Z" # -- Begin function ??0logic_error@std@@QEAA@AEBV01@@Z
	.p2align	4, 0x90
"??0logic_error@std@@QEAA@AEBV01@@Z":   # @"??0logic_error@std@@QEAA@AEBV01@@Z"
.Lfunc_begin59:
	.cv_func_id 59
	.cv_file	9 "C:\\Program Files (x86)\\Microsoft Visual Studio 14.0\\VC\\INCLUDE\\stdexcept" "74706F54937DF648A306FC4ED21FF889" 1
	.cv_loc	59 9 15 0               # C:\Program Files (x86)\Microsoft Visual Studio 14.0\VC\INCLUDE\stdexcept:15:0
.seh_proc "??0logic_error@std@@QEAA@AEBV01@@Z"
# %bb.0:
	sub	rsp, 72
	.seh_stackalloc 72
	.seh_endprologue
	mov	qword ptr [rsp + 64], rdx
	mov	qword ptr [rsp + 56], rcx
	mov	rcx, qword ptr [rsp + 56]
.Ltmp255:
	mov	rdx, rcx
	mov	rax, qword ptr [rsp + 64]
	mov	qword ptr [rsp + 48], rcx # 8-byte Spill
	mov	rcx, rdx
	mov	rdx, rax
	call	"??0exception@std@@QEAA@AEBV01@@Z"
	lea	rcx, [rip + "??_7logic_error@std@@6B@"]
	mov	rdx, qword ptr [rsp + 48] # 8-byte Reload
	mov	qword ptr [rdx], rcx
	mov	qword ptr [rsp + 40], rax # 8-byte Spill
	mov	rax, rdx
	add	rsp, 72
	ret
.Ltmp256:
.Lfunc_end59:
	.seh_handlerdata
	.section	.text,"xr",discard,"??0logic_error@std@@QEAA@AEBV01@@Z"
	.seh_endproc
                                        # -- End function
	.def	 "??0exception@std@@QEAA@AEBV01@@Z";
	.scl	2;
	.type	32;
	.endef
	.section	.text,"xr",discard,"??0exception@std@@QEAA@AEBV01@@Z"
	.globl	"??0exception@std@@QEAA@AEBV01@@Z" # -- Begin function ??0exception@std@@QEAA@AEBV01@@Z
	.p2align	4, 0x90
"??0exception@std@@QEAA@AEBV01@@Z":     # @"??0exception@std@@QEAA@AEBV01@@Z"
.Lfunc_begin60:
	.cv_func_id 60
	.cv_file	10 "C:\\Program Files (x86)\\Microsoft Visual Studio 14.0\\VC\\INCLUDE\\vcruntime_exception.h" "385CF08DA92F72075026067CE03F8402" 1
	.cv_loc	60 10 66 0              # C:\Program Files (x86)\Microsoft Visual Studio 14.0\VC\INCLUDE\vcruntime_exception.h:66:0
.seh_proc "??0exception@std@@QEAA@AEBV01@@Z"
# %bb.0:
	sub	rsp, 72
	.seh_stackalloc 72
	.seh_endprologue
	xor	eax, eax
	mov	r8d, 16
                                        # kill: def $r8 killed $r8d
	lea	r9, [rip + "??_7exception@std@@6B@"]
	mov	qword ptr [rsp + 64], rdx
	mov	qword ptr [rsp + 56], rcx
	mov	rcx, qword ptr [rsp + 56]
.Ltmp257:
	mov	qword ptr [rcx], r9
	mov	rdx, rcx
	add	rdx, 8
	mov	qword ptr [rsp + 48], rcx # 8-byte Spill
	mov	rcx, rdx
	mov	edx, eax
	call	memset
.Ltmp258:
	.cv_loc	60 10 67 0              # C:\Program Files (x86)\Microsoft Visual Studio 14.0\VC\INCLUDE\vcruntime_exception.h:67:0
	mov	rcx, qword ptr [rsp + 48] # 8-byte Reload
	add	rcx, 8
	mov	r8, qword ptr [rsp + 64]
	add	r8, 8
	mov	qword ptr [rsp + 40], rcx # 8-byte Spill
	mov	rcx, r8
	mov	rdx, qword ptr [rsp + 40] # 8-byte Reload
	call	qword ptr [rip + __imp___std_exception_copy]
.Ltmp259:
	.cv_loc	60 10 68 0              # C:\Program Files (x86)\Microsoft Visual Studio 14.0\VC\INCLUDE\vcruntime_exception.h:68:0
	mov	rax, qword ptr [rsp + 48] # 8-byte Reload
	add	rsp, 72
	ret
.Ltmp260:
.Lfunc_end60:
	.seh_handlerdata
	.section	.text,"xr",discard,"??0exception@std@@QEAA@AEBV01@@Z"
	.seh_endproc
                                        # -- End function
	.def	 "??0logic_error@std@@QEAA@$$QEAV01@@Z";
	.scl	2;
	.type	32;
	.endef
	.section	.text,"xr",discard,"??0logic_error@std@@QEAA@$$QEAV01@@Z"
	.globl	"??0logic_error@std@@QEAA@$$QEAV01@@Z" # -- Begin function ??0logic_error@std@@QEAA@$$QEAV01@@Z
	.p2align	4, 0x90
"??0logic_error@std@@QEAA@$$QEAV01@@Z": # @"??0logic_error@std@@QEAA@$$QEAV01@@Z"
.Lfunc_begin61:
	.cv_func_id 61
	.cv_loc	61 9 15 0               # C:\Program Files (x86)\Microsoft Visual Studio 14.0\VC\INCLUDE\stdexcept:15:0
.seh_proc "??0logic_error@std@@QEAA@$$QEAV01@@Z"
# %bb.0:
	sub	rsp, 72
	.seh_stackalloc 72
	.seh_endprologue
	mov	qword ptr [rsp + 64], rdx
	mov	qword ptr [rsp + 56], rcx
	mov	rcx, qword ptr [rsp + 56]
.Ltmp261:
	mov	rdx, rcx
	mov	rax, qword ptr [rsp + 64]
	mov	qword ptr [rsp + 48], rcx # 8-byte Spill
	mov	rcx, rdx
	mov	rdx, rax
	call	"??0exception@std@@QEAA@AEBV01@@Z"
	lea	rcx, [rip + "??_7logic_error@std@@6B@"]
	mov	rdx, qword ptr [rsp + 48] # 8-byte Reload
	mov	qword ptr [rdx], rcx
	mov	qword ptr [rsp + 40], rax # 8-byte Spill
	mov	rax, rdx
	add	rsp, 72
	ret
.Ltmp262:
.Lfunc_end61:
	.seh_handlerdata
	.section	.text,"xr",discard,"??0logic_error@std@@QEAA@$$QEAV01@@Z"
	.seh_endproc
                                        # -- End function
	.def	 "??_Gfail_fast@gsl@@UEAAPEAXI@Z";
	.scl	2;
	.type	32;
	.endef
	.section	.text,"xr",discard,"??_Gfail_fast@gsl@@UEAAPEAXI@Z"
	.globl	"??_Gfail_fast@gsl@@UEAAPEAXI@Z" # -- Begin function ??_Gfail_fast@gsl@@UEAAPEAXI@Z
	.p2align	4, 0x90
"??_Gfail_fast@gsl@@UEAAPEAXI@Z":       # @"??_Gfail_fast@gsl@@UEAAPEAXI@Z"
.Lfunc_begin62:
	.cv_func_id 62
	.cv_loc	62 6 97 0               # ..\include\gsl/gsl_assert:97:0
.seh_proc "??_Gfail_fast@gsl@@UEAAPEAXI@Z"
# %bb.0:
	sub	rsp, 72
	.seh_stackalloc 72
	.seh_endprologue
	mov	dword ptr [rsp + 60], edx
	mov	qword ptr [rsp + 48], rcx
	mov	rcx, qword ptr [rsp + 48]
	mov	rax, rcx
	mov	qword ptr [rsp + 64], rax
	mov	edx, dword ptr [rsp + 60]
.Ltmp263:
	mov	qword ptr [rsp + 40], rcx # 8-byte Spill
	mov	dword ptr [rsp + 36], edx # 4-byte Spill
	call	"??1fail_fast@gsl@@UEAA@XZ"
	mov	edx, dword ptr [rsp + 36] # 4-byte Reload
	cmp	edx, 0
	je	.LBB62_2
# %bb.1:
	mov	rax, qword ptr [rsp + 40] # 8-byte Reload
	mov	rcx, rax
	call	"??3@YAXPEAX@Z"
.LBB62_2:
	mov	rax, qword ptr [rsp + 64]
	add	rsp, 72
	ret
.Ltmp264:
.Lfunc_end62:
	.seh_handlerdata
	.section	.text,"xr",discard,"??_Gfail_fast@gsl@@UEAAPEAXI@Z"
	.seh_endproc
                                        # -- End function
	.def	 "?what@exception@std@@UEBAPEBDXZ";
	.scl	2;
	.type	32;
	.endef
	.section	.text,"xr",discard,"?what@exception@std@@UEBAPEBDXZ"
	.globl	"?what@exception@std@@UEBAPEBDXZ" # -- Begin function ?what@exception@std@@UEBAPEBDXZ
	.p2align	4, 0x90
"?what@exception@std@@UEBAPEBDXZ":      # @"?what@exception@std@@UEBAPEBDXZ"
.Lfunc_begin63:
	.cv_func_id 63
	.cv_loc	63 10 88 0              # C:\Program Files (x86)\Microsoft Visual Studio 14.0\VC\INCLUDE\vcruntime_exception.h:88:0
.seh_proc "?what@exception@std@@UEBAPEBDXZ"
# %bb.0:
	sub	rsp, 24
	.seh_stackalloc 24
	.seh_endprologue
	mov	qword ptr [rsp + 16], rcx
	mov	rcx, qword ptr [rsp + 16]
.Ltmp265:
	.cv_loc	63 10 89 0              # C:\Program Files (x86)\Microsoft Visual Studio 14.0\VC\INCLUDE\vcruntime_exception.h:89:0
	cmp	qword ptr [rcx + 8], 0
	mov	qword ptr [rsp + 8], rcx # 8-byte Spill
	je	.LBB63_2
# %bb.1:
	mov	rax, qword ptr [rsp + 8] # 8-byte Reload
	mov	rcx, qword ptr [rax + 8]
	mov	qword ptr [rsp], rcx    # 8-byte Spill
	jmp	.LBB63_3
.LBB63_2:
	lea	rax, [rip + "??_C@_0BC@EOODALEL@Unknown?5exception?$AA@"]
	mov	qword ptr [rsp], rax    # 8-byte Spill
	jmp	.LBB63_3
.LBB63_3:
	mov	rax, qword ptr [rsp]    # 8-byte Reload
	add	rsp, 24
	ret
.Ltmp266:
.Lfunc_end63:
	.seh_handlerdata
	.section	.text,"xr",discard,"?what@exception@std@@UEBAPEBDXZ"
	.seh_endproc
                                        # -- End function
	.def	 "??_Glogic_error@std@@UEAAPEAXI@Z";
	.scl	2;
	.type	32;
	.endef
	.section	.text,"xr",discard,"??_Glogic_error@std@@UEAAPEAXI@Z"
	.globl	"??_Glogic_error@std@@UEAAPEAXI@Z" # -- Begin function ??_Glogic_error@std@@UEAAPEAXI@Z
	.p2align	4, 0x90
"??_Glogic_error@std@@UEAAPEAXI@Z":     # @"??_Glogic_error@std@@UEAAPEAXI@Z"
.Lfunc_begin64:
	.cv_func_id 64
	.cv_loc	64 9 15 0               # C:\Program Files (x86)\Microsoft Visual Studio 14.0\VC\INCLUDE\stdexcept:15:0
.seh_proc "??_Glogic_error@std@@UEAAPEAXI@Z"
# %bb.0:
	sub	rsp, 72
	.seh_stackalloc 72
	.seh_endprologue
	mov	dword ptr [rsp + 60], edx
	mov	qword ptr [rsp + 48], rcx
	mov	rcx, qword ptr [rsp + 48]
	mov	rax, rcx
	mov	qword ptr [rsp + 64], rax
	mov	edx, dword ptr [rsp + 60]
.Ltmp267:
	mov	qword ptr [rsp + 40], rcx # 8-byte Spill
	mov	dword ptr [rsp + 36], edx # 4-byte Spill
	call	"??1logic_error@std@@UEAA@XZ"
	mov	edx, dword ptr [rsp + 36] # 4-byte Reload
	cmp	edx, 0
	je	.LBB64_2
# %bb.1:
	mov	rax, qword ptr [rsp + 40] # 8-byte Reload
	mov	rcx, rax
	call	"??3@YAXPEAX@Z"
.LBB64_2:
	mov	rax, qword ptr [rsp + 64]
	add	rsp, 72
	ret
.Ltmp268:
.Lfunc_end64:
	.seh_handlerdata
	.section	.text,"xr",discard,"??_Glogic_error@std@@UEAAPEAXI@Z"
	.seh_endproc
                                        # -- End function
	.def	 "??1logic_error@std@@UEAA@XZ";
	.scl	2;
	.type	32;
	.endef
	.section	.text,"xr",discard,"??1logic_error@std@@UEAA@XZ"
	.globl	"??1logic_error@std@@UEAA@XZ" # -- Begin function ??1logic_error@std@@UEAA@XZ
	.p2align	4, 0x90
"??1logic_error@std@@UEAA@XZ":          # @"??1logic_error@std@@UEAA@XZ"
.Lfunc_begin65:
	.cv_func_id 65
	.cv_loc	65 9 15 0               # C:\Program Files (x86)\Microsoft Visual Studio 14.0\VC\INCLUDE\stdexcept:15:0
.seh_proc "??1logic_error@std@@UEAA@XZ"
# %bb.0:
	sub	rsp, 40
	.seh_stackalloc 40
	.seh_endprologue
	mov	qword ptr [rsp + 32], rcx
	mov	rcx, qword ptr [rsp + 32]
.Ltmp269:
	.cv_loc	65 9 15 0               # C:\Program Files (x86)\Microsoft Visual Studio 14.0\VC\INCLUDE\stdexcept:15:0
	call	"??1exception@std@@UEAA@XZ"
.Ltmp270:
	.cv_loc	65 9 15 0               # C:\Program Files (x86)\Microsoft Visual Studio 14.0\VC\INCLUDE\stdexcept:15:0
	nop
	add	rsp, 40
	ret
.Ltmp271:
.Lfunc_end65:
	.seh_handlerdata
	.section	.text,"xr",discard,"??1logic_error@std@@UEAA@XZ"
	.seh_endproc
                                        # -- End function
	.def	 "??1exception@std@@UEAA@XZ";
	.scl	2;
	.type	32;
	.endef
	.section	.text,"xr",discard,"??1exception@std@@UEAA@XZ"
	.globl	"??1exception@std@@UEAA@XZ" # -- Begin function ??1exception@std@@UEAA@XZ
	.p2align	4, 0x90
"??1exception@std@@UEAA@XZ":            # @"??1exception@std@@UEAA@XZ"
.Lfunc_begin66:
	.cv_func_id 66
	.cv_loc	66 10 83 0              # C:\Program Files (x86)\Microsoft Visual Studio 14.0\VC\INCLUDE\vcruntime_exception.h:83:0
.seh_proc "??1exception@std@@UEAA@XZ"
# %bb.0:
	sub	rsp, 40
	.seh_stackalloc 40
	.seh_endprologue
	lea	rax, [rip + "??_7exception@std@@6B@"]
	mov	qword ptr [rsp + 32], rcx
	mov	rcx, qword ptr [rsp + 32]
.Ltmp272:
	mov	qword ptr [rcx], rax
.Ltmp273:
	.cv_loc	66 10 84 0              # C:\Program Files (x86)\Microsoft Visual Studio 14.0\VC\INCLUDE\vcruntime_exception.h:84:0
	add	rcx, 8
	call	qword ptr [rip + __imp___std_exception_destroy]
.Ltmp274:
	.cv_loc	66 10 85 0              # C:\Program Files (x86)\Microsoft Visual Studio 14.0\VC\INCLUDE\vcruntime_exception.h:85:0
	nop
	add	rsp, 40
	ret
.Ltmp275:
.Lfunc_end66:
	.seh_handlerdata
	.section	.text,"xr",discard,"??1exception@std@@UEAA@XZ"
	.seh_endproc
                                        # -- End function
	.def	 "??_Gexception@std@@UEAAPEAXI@Z";
	.scl	2;
	.type	32;
	.endef
	.section	.text,"xr",discard,"??_Gexception@std@@UEAAPEAXI@Z"
	.globl	"??_Gexception@std@@UEAAPEAXI@Z" # -- Begin function ??_Gexception@std@@UEAAPEAXI@Z
	.p2align	4, 0x90
"??_Gexception@std@@UEAAPEAXI@Z":       # @"??_Gexception@std@@UEAAPEAXI@Z"
.Lfunc_begin67:
	.cv_func_id 67
	.cv_loc	67 10 83 0              # C:\Program Files (x86)\Microsoft Visual Studio 14.0\VC\INCLUDE\vcruntime_exception.h:83:0
.seh_proc "??_Gexception@std@@UEAAPEAXI@Z"
# %bb.0:
	sub	rsp, 72
	.seh_stackalloc 72
	.seh_endprologue
	mov	dword ptr [rsp + 60], edx
	mov	qword ptr [rsp + 48], rcx
	mov	rcx, qword ptr [rsp + 48]
	mov	rax, rcx
	mov	qword ptr [rsp + 64], rax
	mov	edx, dword ptr [rsp + 60]
.Ltmp276:
	mov	qword ptr [rsp + 40], rcx # 8-byte Spill
	mov	dword ptr [rsp + 36], edx # 4-byte Spill
	call	"??1exception@std@@UEAA@XZ"
	mov	edx, dword ptr [rsp + 36] # 4-byte Reload
	cmp	edx, 0
	je	.LBB67_2
# %bb.1:
	mov	rax, qword ptr [rsp + 40] # 8-byte Reload
	mov	rcx, rax
	call	"??3@YAXPEAX@Z"
.LBB67_2:
	.cv_loc	67 10 85 0              # C:\Program Files (x86)\Microsoft Visual Studio 14.0\VC\INCLUDE\vcruntime_exception.h:85:0
	mov	rax, qword ptr [rsp + 64]
	add	rsp, 72
	ret
.Ltmp277:
.Lfunc_end67:
	.seh_handlerdata
	.section	.text,"xr",discard,"??_Gexception@std@@UEAAPEAXI@Z"
	.seh_endproc
                                        # -- End function
	.def	 "??0logic_error@std@@QEAA@PEBD@Z";
	.scl	2;
	.type	32;
	.endef
	.section	.text,"xr",discard,"??0logic_error@std@@QEAA@PEBD@Z"
	.globl	"??0logic_error@std@@QEAA@PEBD@Z" # -- Begin function ??0logic_error@std@@QEAA@PEBD@Z
	.p2align	4, 0x90
"??0logic_error@std@@QEAA@PEBD@Z":      # @"??0logic_error@std@@QEAA@PEBD@Z"
.Lfunc_begin68:
	.cv_func_id 68
	.cv_loc	68 9 28 0               # C:\Program Files (x86)\Microsoft Visual Studio 14.0\VC\INCLUDE\stdexcept:28:0
.seh_proc "??0logic_error@std@@QEAA@PEBD@Z"
# %bb.0:
	sub	rsp, 72
	.seh_stackalloc 72
	.seh_endprologue
	mov	qword ptr [rsp + 64], rdx
	mov	qword ptr [rsp + 56], rcx
	mov	rcx, qword ptr [rsp + 56]
.Ltmp278:
	mov	rdx, rcx
	mov	rax, qword ptr [rsp + 64]
	mov	qword ptr [rsp + 48], rcx # 8-byte Spill
	mov	rcx, rdx
	mov	rdx, rax
	call	"??0exception@std@@QEAA@QEBD@Z"
	lea	rcx, [rip + "??_7logic_error@std@@6B@"]
	mov	rdx, qword ptr [rsp + 48] # 8-byte Reload
	mov	qword ptr [rdx], rcx
	.cv_loc	68 9 29 0               # C:\Program Files (x86)\Microsoft Visual Studio 14.0\VC\INCLUDE\stdexcept:29:0
	mov	qword ptr [rsp + 40], rax # 8-byte Spill
	mov	rax, rdx
	add	rsp, 72
	ret
.Ltmp279:
.Lfunc_end68:
	.seh_handlerdata
	.section	.text,"xr",discard,"??0logic_error@std@@QEAA@PEBD@Z"
	.seh_endproc
                                        # -- End function
	.def	 "??0exception@std@@QEAA@QEBD@Z";
	.scl	2;
	.type	32;
	.endef
	.section	.text,"xr",discard,"??0exception@std@@QEAA@QEBD@Z"
	.globl	"??0exception@std@@QEAA@QEBD@Z" # -- Begin function ??0exception@std@@QEAA@QEBD@Z
	.p2align	4, 0x90
"??0exception@std@@QEAA@QEBD@Z":        # @"??0exception@std@@QEAA@QEBD@Z"
.Lfunc_begin69:
	.cv_func_id 69
	.cv_loc	69 10 53 0              # C:\Program Files (x86)\Microsoft Visual Studio 14.0\VC\INCLUDE\vcruntime_exception.h:53:0
.seh_proc "??0exception@std@@QEAA@QEBD@Z"
# %bb.0:
	sub	rsp, 88
	.seh_stackalloc 88
	.seh_endprologue
	xor	eax, eax
	mov	r8d, 16
                                        # kill: def $r8 killed $r8d
	lea	r9, [rip + "??_7exception@std@@6B@"]
	mov	r10, qword ptr [rip + __security_cookie]
	xor	r10, rsp
	mov	qword ptr [rsp + 80], r10
	mov	qword ptr [rsp + 56], rdx
	mov	qword ptr [rsp + 48], rcx
	mov	rcx, qword ptr [rsp + 48]
.Ltmp280:
	mov	qword ptr [rcx], r9
	mov	rdx, rcx
	add	rdx, 8
	mov	qword ptr [rsp + 40], rcx # 8-byte Spill
	mov	rcx, rdx
	mov	edx, eax
	call	memset
.Ltmp281:
	.cv_loc	69 10 54 0              # C:\Program Files (x86)\Microsoft Visual Studio 14.0\VC\INCLUDE\vcruntime_exception.h:54:0
	mov	rcx, qword ptr [rsp + 56]
	mov	qword ptr [rsp + 64], rcx
	mov	byte ptr [rsp + 72], 1
	.cv_loc	69 10 55 0              # C:\Program Files (x86)\Microsoft Visual Studio 14.0\VC\INCLUDE\vcruntime_exception.h:55:0
	mov	rcx, qword ptr [rsp + 40] # 8-byte Reload
	add	rcx, 8
	lea	r8, [rsp + 64]
.Ltmp282:
	#DEBUG_VALUE: _InitData <- [$r8+0]
	mov	qword ptr [rsp + 32], rcx # 8-byte Spill
	mov	rcx, r8
	mov	rdx, qword ptr [rsp + 32] # 8-byte Reload
	call	qword ptr [rip + __imp___std_exception_copy]
.Ltmp283:
	mov	rcx, qword ptr [rsp + 80]
	xor	rcx, rsp
	call	__security_check_cookie
.Ltmp284:
	.cv_loc	69 10 56 0              # C:\Program Files (x86)\Microsoft Visual Studio 14.0\VC\INCLUDE\vcruntime_exception.h:56:0
	mov	rax, qword ptr [rsp + 40] # 8-byte Reload
	add	rsp, 88
	ret
.Ltmp285:
.Lfunc_end69:
	.seh_handlerdata
	.section	.text,"xr",discard,"??0exception@std@@QEAA@QEBD@Z"
	.seh_endproc
                                        # -- End function
	.def	 "?data@?$storage_type@V?$extent_type@$0?0@details@gsl@@@?$span@H$0?0@gsl@@QEBAPEAHXZ";
	.scl	2;
	.type	32;
	.endef
	.section	.text,"xr",discard,"?data@?$storage_type@V?$extent_type@$0?0@details@gsl@@@?$span@H$0?0@gsl@@QEBAPEAHXZ"
	.globl	"?data@?$storage_type@V?$extent_type@$0?0@details@gsl@@@?$span@H$0?0@gsl@@QEBAPEAHXZ" # -- Begin function ?data@?$storage_type@V?$extent_type@$0?0@details@gsl@@@?$span@H$0?0@gsl@@QEBAPEAHXZ
	.p2align	4, 0x90
"?data@?$storage_type@V?$extent_type@$0?0@details@gsl@@@?$span@H$0?0@gsl@@QEBAPEAHXZ": # @"?data@?$storage_type@V?$extent_type@$0?0@details@gsl@@@?$span@H$0?0@gsl@@QEBAPEAHXZ"
.Lfunc_begin70:
	.cv_func_id 70
	.cv_loc	70 2 602 0              # ..\include\gsl/span:602:0
.seh_proc "?data@?$storage_type@V?$extent_type@$0?0@details@gsl@@@?$span@H$0?0@gsl@@QEBAPEAHXZ"
# %bb.0:
	push	rax
	.seh_stackalloc 8
	.seh_endprologue
	mov	qword ptr [rsp], rcx
	mov	rcx, qword ptr [rsp]
.Ltmp286:
	mov	rax, qword ptr [rcx + 8]
	pop	rcx
	ret
.Ltmp287:
.Lfunc_end70:
	.seh_handlerdata
	.section	.text,"xr",discard,"?data@?$storage_type@V?$extent_type@$0?0@details@gsl@@@?$span@H$0?0@gsl@@QEBAPEAHXZ"
	.seh_endproc
                                        # -- End function
	.def	 "??0?$span_iterator@V?$span@H$0?0@gsl@@$0A@@details@gsl@@QEAA@PEBV?$span@H$0?0@2@_J@Z";
	.scl	2;
	.type	32;
	.endef
	.section	.text,"xr",discard,"??0?$span_iterator@V?$span@H$0?0@gsl@@$0A@@details@gsl@@QEAA@PEBV?$span@H$0?0@2@_J@Z"
	.globl	"??0?$span_iterator@V?$span@H$0?0@gsl@@$0A@@details@gsl@@QEAA@PEBV?$span@H$0?0@2@_J@Z" # -- Begin function ??0?$span_iterator@V?$span@H$0?0@gsl@@$0A@@details@gsl@@QEAA@PEBV?$span@H$0?0@2@_J@Z
	.p2align	4, 0x90
"??0?$span_iterator@V?$span@H$0?0@gsl@@$0A@@details@gsl@@QEAA@PEBV?$span@H$0?0@2@_J@Z": # @"??0?$span_iterator@V?$span@H$0?0@gsl@@$0A@@details@gsl@@QEAA@PEBV?$span@H$0?0@2@_J@Z"
.Lfunc_begin71:
	.cv_func_id 71
	.cv_loc	71 2 146 0              # ..\include\gsl/span:146:0
.seh_proc "??0?$span_iterator@V?$span@H$0?0@gsl@@$0A@@details@gsl@@QEAA@PEBV?$span@H$0?0@2@_J@Z"
# %bb.0:
	sub	rsp, 24
	.seh_stackalloc 24
	.seh_endprologue
	mov	qword ptr [rsp + 16], r8
	mov	qword ptr [rsp + 8], rdx
	mov	qword ptr [rsp], rcx
	mov	rcx, qword ptr [rsp]
.Ltmp288:
	mov	rdx, qword ptr [rsp + 8]
	mov	qword ptr [rcx], rdx
	mov	rdx, qword ptr [rsp + 16]
	mov	qword ptr [rcx + 8], rdx
	mov	rax, rcx
	add	rsp, 24
	ret
.Ltmp289:
.Lfunc_end71:
	.seh_handlerdata
	.section	.text,"xr",discard,"??0?$span_iterator@V?$span@H$0?0@gsl@@$0A@@details@gsl@@QEAA@PEBV?$span@H$0?0@2@_J@Z"
	.seh_endproc
                                        # -- End function
	.def	 "??8details@gsl@@YA_NV?$span_iterator@V?$span@H$0?0@gsl@@$0A@@01@0@Z";
	.scl	2;
	.type	32;
	.endef
	.section	.text,"xr",discard,"??8details@gsl@@YA_NV?$span_iterator@V?$span@H$0?0@gsl@@$0A@@01@0@Z"
	.globl	"??8details@gsl@@YA_NV?$span_iterator@V?$span@H$0?0@gsl@@$0A@@01@0@Z" # -- Begin function ??8details@gsl@@YA_NV?$span_iterator@V?$span@H$0?0@gsl@@$0A@@01@0@Z
	.p2align	4, 0x90
"??8details@gsl@@YA_NV?$span_iterator@V?$span@H$0?0@gsl@@$0A@@01@0@Z": # @"??8details@gsl@@YA_NV?$span_iterator@V?$span@H$0?0@gsl@@$0A@@01@0@Z"
.Lfunc_begin72:
	.cv_func_id 72
	.cv_loc	72 2 230 0              # ..\include\gsl/span:230:0
.seh_proc "??8details@gsl@@YA_NV?$span_iterator@V?$span@H$0?0@gsl@@$0A@@01@0@Z"
# %bb.0:
	sub	rsp, 24
	.seh_stackalloc 24
	.seh_endprologue
	xor	eax, eax
	mov	r8b, al
	#DEBUG_VALUE: operator==:rhs <- [$rdx+0]
	#DEBUG_VALUE: operator==:lhs <- [$rcx+0]
.Ltmp290:
	.cv_loc	72 2 231 0              # ..\include\gsl/span:231:0
	mov	r9, qword ptr [rcx]
	cmp	r9, qword ptr [rdx]
	mov	qword ptr [rsp + 16], rdx # 8-byte Spill
.Ltmp291:
	#DEBUG_VALUE: operator==:rhs <- [DW_OP_plus_uconst 16, DW_OP_deref] [$rsp+0]
	mov	qword ptr [rsp + 8], rcx # 8-byte Spill
.Ltmp292:
	#DEBUG_VALUE: operator==:lhs <- [DW_OP_plus_uconst 8, DW_OP_deref] [$rsp+0]
	mov	byte ptr [rsp + 7], r8b # 1-byte Spill
	jne	.LBB72_2
# %bb.1:
	#DEBUG_VALUE: operator==:lhs <- [DW_OP_plus_uconst 8, DW_OP_deref] [$rsp+0]
	#DEBUG_VALUE: operator==:rhs <- [DW_OP_plus_uconst 16, DW_OP_deref] [$rsp+0]
	mov	rax, qword ptr [rsp + 8] # 8-byte Reload
	mov	rcx, qword ptr [rax + 8]
	mov	rdx, qword ptr [rsp + 16] # 8-byte Reload
	cmp	rcx, qword ptr [rdx + 8]
	sete	r8b
	mov	byte ptr [rsp + 7], r8b # 1-byte Spill
.LBB72_2:
	#DEBUG_VALUE: operator==:lhs <- [DW_OP_plus_uconst 8, DW_OP_deref] [$rsp+0]
	#DEBUG_VALUE: operator==:rhs <- [DW_OP_plus_uconst 16, DW_OP_deref] [$rsp+0]
	mov	al, byte ptr [rsp + 7]  # 1-byte Reload
	and	al, 1
	movzx	eax, al
	add	rsp, 24
	ret
.Ltmp293:
.Lfunc_end72:
	.seh_handlerdata
	.section	.text,"xr",discard,"??8details@gsl@@YA_NV?$span_iterator@V?$span@H$0?0@gsl@@$0A@@01@0@Z"
	.seh_endproc
                                        # -- End function
	.def	 "??0?$extent_type@$05@details@gsl@@QEAA@XZ";
	.scl	2;
	.type	32;
	.endef
	.section	.text,"xr",discard,"??0?$extent_type@$05@details@gsl@@QEAA@XZ"
	.globl	"??0?$extent_type@$05@details@gsl@@QEAA@XZ" # -- Begin function ??0?$extent_type@$05@details@gsl@@QEAA@XZ
	.p2align	4, 0x90
"??0?$extent_type@$05@details@gsl@@QEAA@XZ": # @"??0?$extent_type@$05@details@gsl@@QEAA@XZ"
.Lfunc_begin73:
	.cv_func_id 73
	.cv_loc	73 2 311 0              # ..\include\gsl/span:311:0
.seh_proc "??0?$extent_type@$05@details@gsl@@QEAA@XZ"
# %bb.0:
	push	rax
	.seh_stackalloc 8
	.seh_endprologue
	mov	qword ptr [rsp], rcx
	mov	rax, qword ptr [rsp]
.Ltmp294:
	pop	rcx
	ret
.Ltmp295:
.Lfunc_end73:
	.seh_handlerdata
	.section	.text,"xr",discard,"??0?$extent_type@$05@details@gsl@@QEAA@XZ"
	.seh_endproc
                                        # -- End function
	.def	 "??$addressof@E@std@@YAPEAEAEAE@Z";
	.scl	2;
	.type	32;
	.endef
	.section	.text,"xr",discard,"??$addressof@E@std@@YAPEAEAEAE@Z"
	.globl	"??$addressof@E@std@@YAPEAEAEAE@Z" # -- Begin function ??$addressof@E@std@@YAPEAEAEAE@Z
	.p2align	4, 0x90
"??$addressof@E@std@@YAPEAEAEAE@Z":     # @"??$addressof@E@std@@YAPEAEAEAE@Z"
.Lfunc_begin74:
	.cv_func_id 74
	.cv_file	11 "C:\\Program Files (x86)\\Microsoft Visual Studio 14.0\\VC\\INCLUDE\\xstddef" "347B3D0CB12C8E7B43B0AF4715C5E451" 1
	.cv_loc	74 11 724 0             # C:\Program Files (x86)\Microsoft Visual Studio 14.0\VC\INCLUDE\xstddef:724:0
.seh_proc "??$addressof@E@std@@YAPEAEAEAE@Z"
# %bb.0:
	push	rax
	.seh_stackalloc 8
	.seh_endprologue
	mov	qword ptr [rsp], rcx
.Ltmp296:
	.cv_loc	74 11 725 0             # C:\Program Files (x86)\Microsoft Visual Studio 14.0\VC\INCLUDE\xstddef:725:0
	mov	rax, qword ptr [rsp]
	pop	rcx
	ret
.Ltmp297:
.Lfunc_end74:
	.seh_handlerdata
	.section	.text,"xr",discard,"??$addressof@E@std@@YAPEAEAEAE@Z"
	.seh_endproc
                                        # -- End function
	.def	 "??$?0V?$extent_type@$05@details@gsl@@@?$storage_type@V?$extent_type@$0?0@details@gsl@@@?$span@E$0?0@gsl@@QEAA@UKnownNotNull@12@V?$extent_type@$05@details@2@@Z";
	.scl	2;
	.type	32;
	.endef
	.section	.text,"xr",discard,"??$?0V?$extent_type@$05@details@gsl@@@?$storage_type@V?$extent_type@$0?0@details@gsl@@@?$span@E$0?0@gsl@@QEAA@UKnownNotNull@12@V?$extent_type@$05@details@2@@Z"
	.globl	"??$?0V?$extent_type@$05@details@gsl@@@?$storage_type@V?$extent_type@$0?0@details@gsl@@@?$span@E$0?0@gsl@@QEAA@UKnownNotNull@12@V?$extent_type@$05@details@2@@Z" # -- Begin function ??$?0V?$extent_type@$05@details@gsl@@@?$storage_type@V?$extent_type@$0?0@details@gsl@@@?$span@E$0?0@gsl@@QEAA@UKnownNotNull@12@V?$extent_type@$05@details@2@@Z
	.p2align	4, 0x90
"??$?0V?$extent_type@$05@details@gsl@@@?$storage_type@V?$extent_type@$0?0@details@gsl@@@?$span@E$0?0@gsl@@QEAA@UKnownNotNull@12@V?$extent_type@$05@details@2@@Z": # @"??$?0V?$extent_type@$05@details@gsl@@@?$storage_type@V?$extent_type@$0?0@details@gsl@@@?$span@E$0?0@gsl@@QEAA@UKnownNotNull@12@V?$extent_type@$05@details@2@@Z"
.Lfunc_begin75:
	.cv_func_id 75
	.cv_loc	75 2 591 0              # ..\include\gsl/span:591:0
.seh_proc "??$?0V?$extent_type@$05@details@gsl@@@?$storage_type@V?$extent_type@$0?0@details@gsl@@@?$span@E$0?0@gsl@@QEAA@UKnownNotNull@12@V?$extent_type@$05@details@2@@Z"
	.seh_handler __CxxFrameHandler3, @unwind, @except
# %bb.0:
	push	rbp
	.seh_pushreg 5
	sub	rsp, 144
	.seh_stackalloc 144
	lea	rbp, [rsp + 128]
	.seh_setframe 5, 128
	.seh_endprologue
	mov	qword ptr [rbp + 8], -2
	mov	qword ptr [rbp - 8], rdx
	mov	byte ptr [rbp - 16], r8b
	mov	qword ptr [rbp - 24], rcx
	mov	rcx, qword ptr [rbp - 24]
	mov	qword ptr [rbp], rcx
.Ltmp300:
	mov	rdx, rcx
	mov	r8b, byte ptr [rbp - 32]
	mov	qword ptr [rbp - 72], rcx # 8-byte Spill
	mov	rcx, rdx
	mov	dl, r8b
	call	"??$?0$05@?$extent_type@$0?0@details@gsl@@QEAA@V?$extent_type@$05@12@@Z"
	mov	rcx, qword ptr [rbp - 8]
	mov	r9, qword ptr [rbp - 72] # 8-byte Reload
	mov	qword ptr [r9 + 8], rcx
.Ltmp301:
	.cv_loc	75 2 592 0              # ..\include\gsl/span:592:0
	mov	rcx, r9
	mov	qword ptr [rbp - 80], rax # 8-byte Spill
	call	"?size@?$extent_type@$0?0@details@gsl@@QEBA_JXZ"
	cmp	rax, 0
	setge	dl
	mov	byte ptr [rbp - 57], 0
	test	dl, 1
	jne	.LBB75_1
	jmp	.LBB75_2
.LBB75_1:
	test	byte ptr [rbp - 57], 1
	jne	.LBB75_4
	jmp	.LBB75_5
.LBB75_2:
	lea	rdx, [rip + "??_C@_0DG@PFBAEBPE@GSL?3?5Precondition?5failure?5at?5?4?4?2@"]
	lea	rax, [rbp - 56]
	mov	rcx, rax
	mov	qword ptr [rbp - 88], rax # 8-byte Spill
	call	"??0fail_fast@gsl@@QEAA@QEBD@Z"
	mov	byte ptr [rbp - 57], 1
.Ltmp298:
	mov	rcx, qword ptr [rbp - 88] # 8-byte Reload
	mov	qword ptr [rbp - 96], rax # 8-byte Spill
	call	"??$throw_exception@Ufail_fast@gsl@@@details@gsl@@YAX$$QEAUfail_fast@1@@Z"
.Ltmp299:
	jmp	.LBB75_3
.LBB75_3:
	ud2
.LBB75_4:
	lea	rcx, [rbp - 56]
	call	"??1fail_fast@gsl@@UEAA@XZ"
.Ltmp302:
.LBB75_5:
	.cv_loc	75 2 593 0              # ..\include\gsl/span:593:0
	mov	rax, qword ptr [rbp]
	add	rsp, 144
	pop	rbp
	ret
	.seh_handlerdata
	.long	("$cppxdata$??$?0V?$extent_type@$05@details@gsl@@@?$storage_type@V?$extent_type@$0?0@details@gsl@@@?$span@E$0?0@gsl@@QEAA@UKnownNotNull@12@V?$extent_type@$05@details@2@@Z")@IMGREL
	.section	.text,"xr",discard,"??$?0V?$extent_type@$05@details@gsl@@@?$storage_type@V?$extent_type@$0?0@details@gsl@@@?$span@E$0?0@gsl@@QEAA@UKnownNotNull@12@V?$extent_type@$05@details@2@@Z"
	.seh_endproc
	.def	 "?dtor$6@?0???$?0V?$extent_type@$05@details@gsl@@@?$storage_type@V?$extent_type@$0?0@details@gsl@@@?$span@E$0?0@gsl@@QEAA@UKnownNotNull@12@V?$extent_type@$05@details@2@@Z@4HA";
	.scl	3;
	.type	32;
	.endef
	.p2align	4, 0x90
"?dtor$6@?0???$?0V?$extent_type@$05@details@gsl@@@?$storage_type@V?$extent_type@$0?0@details@gsl@@@?$span@E$0?0@gsl@@QEAA@UKnownNotNull@12@V?$extent_type@$05@details@2@@Z@4HA":
.seh_proc "?dtor$6@?0???$?0V?$extent_type@$05@details@gsl@@@?$storage_type@V?$extent_type@$0?0@details@gsl@@@?$span@E$0?0@gsl@@QEAA@UKnownNotNull@12@V?$extent_type@$05@details@2@@Z@4HA"
.LBB75_6:
	mov	qword ptr [rsp + 16], rdx
	push	rbp
	.seh_pushreg 5
	sub	rsp, 32
	.seh_stackalloc 32
	lea	rbp, [rdx + 128]
	.seh_endprologue
.Ltmp303:
	.cv_loc	75 2 592 0              # ..\include\gsl/span:592:0
	test	byte ptr [rbp - 57], 1
	jne	.LBB75_7
	jmp	.LBB75_8
.LBB75_7:
	lea	rcx, [rbp - 56]
	call	"??1fail_fast@gsl@@UEAA@XZ"
.LBB75_8:
	nop
	add	rsp, 32
	pop	rbp
	ret                             # CLEANUPRET
.Ltmp304:
.Lfunc_end75:
	.seh_handlerdata
	.section	.text,"xr",discard,"??$?0V?$extent_type@$05@details@gsl@@@?$storage_type@V?$extent_type@$0?0@details@gsl@@@?$span@E$0?0@gsl@@QEAA@UKnownNotNull@12@V?$extent_type@$05@details@2@@Z"
	.seh_endproc
	.section	.xdata,"dr",associative,"??$?0V?$extent_type@$05@details@gsl@@@?$storage_type@V?$extent_type@$0?0@details@gsl@@@?$span@E$0?0@gsl@@QEAA@UKnownNotNull@12@V?$extent_type@$05@details@2@@Z"
	.p2align	2
"$cppxdata$??$?0V?$extent_type@$05@details@gsl@@@?$storage_type@V?$extent_type@$0?0@details@gsl@@@?$span@E$0?0@gsl@@QEAA@UKnownNotNull@12@V?$extent_type@$05@details@2@@Z":
	.long	429065506               # MagicNumber
	.long	1                       # MaxState
	.long	("$stateUnwindMap$??$?0V?$extent_type@$05@details@gsl@@@?$storage_type@V?$extent_type@$0?0@details@gsl@@@?$span@E$0?0@gsl@@QEAA@UKnownNotNull@12@V?$extent_type@$05@details@2@@Z")@IMGREL # UnwindMap
	.long	0                       # NumTryBlocks
	.long	0                       # TryBlockMap
	.long	3                       # IPMapEntries
	.long	("$ip2state$??$?0V?$extent_type@$05@details@gsl@@@?$storage_type@V?$extent_type@$0?0@details@gsl@@@?$span@E$0?0@gsl@@QEAA@UKnownNotNull@12@V?$extent_type@$05@details@2@@Z")@IMGREL # IPToStateXData
	.long	136                     # UnwindHelp
	.long	0                       # ESTypeList
	.long	1                       # EHFlags
"$stateUnwindMap$??$?0V?$extent_type@$05@details@gsl@@@?$storage_type@V?$extent_type@$0?0@details@gsl@@@?$span@E$0?0@gsl@@QEAA@UKnownNotNull@12@V?$extent_type@$05@details@2@@Z":
	.long	-1                      # ToState
	.long	"?dtor$6@?0???$?0V?$extent_type@$05@details@gsl@@@?$storage_type@V?$extent_type@$0?0@details@gsl@@@?$span@E$0?0@gsl@@QEAA@UKnownNotNull@12@V?$extent_type@$05@details@2@@Z@4HA"@IMGREL # Action
"$ip2state$??$?0V?$extent_type@$05@details@gsl@@@?$storage_type@V?$extent_type@$0?0@details@gsl@@@?$span@E$0?0@gsl@@QEAA@UKnownNotNull@12@V?$extent_type@$05@details@2@@Z":
	.long	.Lfunc_begin75@IMGREL   # IP
	.long	-1                      # ToState
	.long	.Ltmp298@IMGREL+1       # IP
	.long	0                       # ToState
	.long	.Ltmp299@IMGREL+1       # IP
	.long	-1                      # ToState
	.section	.text,"xr",discard,"??$?0V?$extent_type@$05@details@gsl@@@?$storage_type@V?$extent_type@$0?0@details@gsl@@@?$span@E$0?0@gsl@@QEAA@UKnownNotNull@12@V?$extent_type@$05@details@2@@Z"
                                        # -- End function
	.def	 "??$?0$05@?$extent_type@$0?0@details@gsl@@QEAA@V?$extent_type@$05@12@@Z";
	.scl	2;
	.type	32;
	.endef
	.section	.text,"xr",discard,"??$?0$05@?$extent_type@$0?0@details@gsl@@QEAA@V?$extent_type@$05@12@@Z"
	.globl	"??$?0$05@?$extent_type@$0?0@details@gsl@@QEAA@V?$extent_type@$05@12@@Z" # -- Begin function ??$?0$05@?$extent_type@$0?0@details@gsl@@QEAA@V?$extent_type@$05@12@@Z
	.p2align	4, 0x90
"??$?0$05@?$extent_type@$0?0@details@gsl@@QEAA@V?$extent_type@$05@12@@Z": # @"??$?0$05@?$extent_type@$0?0@details@gsl@@QEAA@V?$extent_type@$05@12@@Z"
.Lfunc_begin76:
	.cv_func_id 76
	.cv_loc	76 2 334 0              # ..\include\gsl/span:334:0
.seh_proc "??$?0$05@?$extent_type@$0?0@details@gsl@@QEAA@V?$extent_type@$05@12@@Z"
# %bb.0:
	sub	rsp, 72
	.seh_stackalloc 72
	.seh_endprologue
	mov	rax, qword ptr [rip + __security_cookie]
	xor	rax, rsp
	mov	qword ptr [rsp + 64], rax
	mov	byte ptr [rsp + 56], dl
	mov	qword ptr [rsp + 48], rcx
	mov	rax, qword ptr [rsp + 48]
.Ltmp305:
	lea	rcx, [rsp + 56]
	#DEBUG_VALUE: extent_type<6>:ext <- [$rcx+0]
	mov	qword ptr [rsp + 40], rax # 8-byte Spill
	call	"?size@?$extent_type@$05@details@gsl@@QEBA_JXZ"
.Ltmp306:
	mov	rcx, qword ptr [rsp + 40] # 8-byte Reload
	mov	qword ptr [rcx], rax
	mov	rax, qword ptr [rsp + 64]
	xor	rax, rsp
	mov	rcx, rax
	call	__security_check_cookie
	mov	rax, qword ptr [rsp + 40] # 8-byte Reload
	add	rsp, 72
	ret
.Ltmp307:
.Lfunc_end76:
	.seh_handlerdata
	.section	.text,"xr",discard,"??$?0$05@?$extent_type@$0?0@details@gsl@@QEAA@V?$extent_type@$05@12@@Z"
	.seh_endproc
                                        # -- End function
	.def	 "?size@?$extent_type@$05@details@gsl@@QEBA_JXZ";
	.scl	2;
	.type	32;
	.endef
	.section	.text,"xr",discard,"?size@?$extent_type@$05@details@gsl@@QEBA_JXZ"
	.globl	"?size@?$extent_type@$05@details@gsl@@QEBA_JXZ" # -- Begin function ?size@?$extent_type@$05@details@gsl@@QEBA_JXZ
	.p2align	4, 0x90
"?size@?$extent_type@$05@details@gsl@@QEBA_JXZ": # @"?size@?$extent_type@$05@details@gsl@@QEBA_JXZ"
.Lfunc_begin77:
	.cv_func_id 77
	.cv_loc	77 2 323 0              # ..\include\gsl/span:323:0
.seh_proc "?size@?$extent_type@$05@details@gsl@@QEBA_JXZ"
# %bb.0:
	push	rax
	.seh_stackalloc 8
	.seh_endprologue
	mov	eax, 6
                                        # kill: def $rax killed $eax
	mov	qword ptr [rsp], rcx
.Ltmp308:
	pop	rcx
	ret
.Ltmp309:
.Lfunc_end77:
	.seh_handlerdata
	.section	.text,"xr",discard,"?size@?$extent_type@$05@details@gsl@@QEBA_JXZ"
	.seh_endproc
                                        # -- End function
	.def	 "?CheckRange@?$span@E$0?0@gsl@@CA_N_J0@Z";
	.scl	2;
	.type	32;
	.endef
	.section	.text,"xr",discard,"?CheckRange@?$span@E$0?0@gsl@@CA_N_J0@Z"
	.globl	"?CheckRange@?$span@E$0?0@gsl@@CA_N_J0@Z" # -- Begin function ?CheckRange@?$span@E$0?0@gsl@@CA_N_J0@Z
	.p2align	4, 0x90
"?CheckRange@?$span@E$0?0@gsl@@CA_N_J0@Z": # @"?CheckRange@?$span@E$0?0@gsl@@CA_N_J0@Z"
.Lfunc_begin78:
	.cv_func_id 78
	.cv_loc	78 2 548 0              # ..\include\gsl/span:548:0
.seh_proc "?CheckRange@?$span@E$0?0@gsl@@CA_N_J0@Z"
# %bb.0:
	sub	rsp, 72
	.seh_stackalloc 72
	.seh_endprologue
	mov	rax, qword ptr [rip + __security_cookie]
	xor	rax, rsp
	mov	qword ptr [rsp + 64], rax
	mov	qword ptr [rsp + 56], rdx
	mov	qword ptr [rsp + 48], rcx
.Ltmp310:
	.cv_loc	78 2 565 0              # ..\include\gsl/span:565:0
	lea	rcx, [rsp + 48]
	#DEBUG_VALUE: CheckRange:idx <- [$rcx+0]
	call	"??$narrow_cast@_KAEA_J@gsl@@YA_KAEA_J@Z"
.Ltmp311:
	lea	rcx, [rsp + 56]
	mov	qword ptr [rsp + 40], rax # 8-byte Spill
	call	"??$narrow_cast@_KAEA_J@gsl@@YA_KAEA_J@Z"
	mov	rcx, qword ptr [rsp + 40] # 8-byte Reload
	cmp	rcx, rax
	setb	r8b
	and	r8b, 1
	movzx	eax, r8b
	mov	rdx, qword ptr [rsp + 64]
	xor	rdx, rsp
	mov	rcx, rdx
	mov	dword ptr [rsp + 36], eax # 4-byte Spill
	call	__security_check_cookie
	mov	eax, dword ptr [rsp + 36] # 4-byte Reload
	add	rsp, 72
	ret
.Ltmp312:
.Lfunc_end78:
	.seh_handlerdata
	.section	.text,"xr",discard,"?CheckRange@?$span@E$0?0@gsl@@CA_N_J0@Z"
	.seh_endproc
                                        # -- End function
	.def	 "?data@?$span@E$0?0@gsl@@QEBAPEAEXZ";
	.scl	2;
	.type	32;
	.endef
	.section	.text,"xr",discard,"?data@?$span@E$0?0@gsl@@QEBAPEAEXZ"
	.globl	"?data@?$span@E$0?0@gsl@@QEBAPEAEXZ" # -- Begin function ?data@?$span@E$0?0@gsl@@QEBAPEAEXZ
	.p2align	4, 0x90
"?data@?$span@E$0?0@gsl@@QEBAPEAEXZ":   # @"?data@?$span@E$0?0@gsl@@QEBAPEAEXZ"
.Lfunc_begin79:
	.cv_func_id 79
	.cv_loc	79 2 515 0              # ..\include\gsl/span:515:0
.seh_proc "?data@?$span@E$0?0@gsl@@QEBAPEAEXZ"
# %bb.0:
	sub	rsp, 40
	.seh_stackalloc 40
	.seh_endprologue
	mov	qword ptr [rsp + 32], rcx
	mov	rcx, qword ptr [rsp + 32]
.Ltmp313:
	call	"?data@?$storage_type@V?$extent_type@$0?0@details@gsl@@@?$span@E$0?0@gsl@@QEBAPEAEXZ"
	nop
	add	rsp, 40
	ret
.Ltmp314:
.Lfunc_end79:
	.seh_handlerdata
	.section	.text,"xr",discard,"?data@?$span@E$0?0@gsl@@QEBAPEAEXZ"
	.seh_endproc
                                        # -- End function
	.def	 "?data@?$storage_type@V?$extent_type@$0?0@details@gsl@@@?$span@E$0?0@gsl@@QEBAPEAEXZ";
	.scl	2;
	.type	32;
	.endef
	.section	.text,"xr",discard,"?data@?$storage_type@V?$extent_type@$0?0@details@gsl@@@?$span@E$0?0@gsl@@QEBAPEAEXZ"
	.globl	"?data@?$storage_type@V?$extent_type@$0?0@details@gsl@@@?$span@E$0?0@gsl@@QEBAPEAEXZ" # -- Begin function ?data@?$storage_type@V?$extent_type@$0?0@details@gsl@@@?$span@E$0?0@gsl@@QEBAPEAEXZ
	.p2align	4, 0x90
"?data@?$storage_type@V?$extent_type@$0?0@details@gsl@@@?$span@E$0?0@gsl@@QEBAPEAEXZ": # @"?data@?$storage_type@V?$extent_type@$0?0@details@gsl@@@?$span@E$0?0@gsl@@QEBAPEAEXZ"
.Lfunc_begin80:
	.cv_func_id 80
	.cv_loc	80 2 602 0              # ..\include\gsl/span:602:0
.seh_proc "?data@?$storage_type@V?$extent_type@$0?0@details@gsl@@@?$span@E$0?0@gsl@@QEBAPEAEXZ"
# %bb.0:
	push	rax
	.seh_stackalloc 8
	.seh_endprologue
	mov	qword ptr [rsp], rcx
	mov	rcx, qword ptr [rsp]
.Ltmp315:
	mov	rax, qword ptr [rcx + 8]
	pop	rcx
	ret
.Ltmp316:
.Lfunc_end80:
	.seh_handlerdata
	.section	.text,"xr",discard,"?data@?$storage_type@V?$extent_type@$0?0@details@gsl@@@?$span@E$0?0@gsl@@QEBAPEAEXZ"
	.seh_endproc
                                        # -- End function
	.def	 "??$addressof@H@std@@YAPEAHAEAH@Z";
	.scl	2;
	.type	32;
	.endef
	.section	.text,"xr",discard,"??$addressof@H@std@@YAPEAHAEAH@Z"
	.globl	"??$addressof@H@std@@YAPEAHAEAH@Z" # -- Begin function ??$addressof@H@std@@YAPEAHAEAH@Z
	.p2align	4, 0x90
"??$addressof@H@std@@YAPEAHAEAH@Z":     # @"??$addressof@H@std@@YAPEAHAEAH@Z"
.Lfunc_begin81:
	.cv_func_id 81
	.cv_loc	81 11 724 0             # C:\Program Files (x86)\Microsoft Visual Studio 14.0\VC\INCLUDE\xstddef:724:0
.seh_proc "??$addressof@H@std@@YAPEAHAEAH@Z"
# %bb.0:
	push	rax
	.seh_stackalloc 8
	.seh_endprologue
	mov	qword ptr [rsp], rcx
.Ltmp317:
	.cv_loc	81 11 725 0             # C:\Program Files (x86)\Microsoft Visual Studio 14.0\VC\INCLUDE\xstddef:725:0
	mov	rax, qword ptr [rsp]
	pop	rcx
	ret
.Ltmp318:
.Lfunc_end81:
	.seh_handlerdata
	.section	.text,"xr",discard,"??$addressof@H@std@@YAPEAHAEAH@Z"
	.seh_endproc
                                        # -- End function
	.def	 "??$?0V?$extent_type@$05@details@gsl@@@?$storage_type@V?$extent_type@$05@details@gsl@@@?$span@H$05@gsl@@QEAA@UKnownNotNull@12@V?$extent_type@$05@details@2@@Z";
	.scl	2;
	.type	32;
	.endef
	.section	.text,"xr",discard,"??$?0V?$extent_type@$05@details@gsl@@@?$storage_type@V?$extent_type@$05@details@gsl@@@?$span@H$05@gsl@@QEAA@UKnownNotNull@12@V?$extent_type@$05@details@2@@Z"
	.globl	"??$?0V?$extent_type@$05@details@gsl@@@?$storage_type@V?$extent_type@$05@details@gsl@@@?$span@H$05@gsl@@QEAA@UKnownNotNull@12@V?$extent_type@$05@details@2@@Z" # -- Begin function ??$?0V?$extent_type@$05@details@gsl@@@?$storage_type@V?$extent_type@$05@details@gsl@@@?$span@H$05@gsl@@QEAA@UKnownNotNull@12@V?$extent_type@$05@details@2@@Z
	.p2align	4, 0x90
"??$?0V?$extent_type@$05@details@gsl@@@?$storage_type@V?$extent_type@$05@details@gsl@@@?$span@H$05@gsl@@QEAA@UKnownNotNull@12@V?$extent_type@$05@details@2@@Z": # @"??$?0V?$extent_type@$05@details@gsl@@@?$storage_type@V?$extent_type@$05@details@gsl@@@?$span@H$05@gsl@@QEAA@UKnownNotNull@12@V?$extent_type@$05@details@2@@Z"
.Lfunc_begin82:
	.cv_func_id 82
	.cv_loc	82 2 591 0              # ..\include\gsl/span:591:0
.seh_proc "??$?0V?$extent_type@$05@details@gsl@@@?$storage_type@V?$extent_type@$05@details@gsl@@@?$span@H$05@gsl@@QEAA@UKnownNotNull@12@V?$extent_type@$05@details@2@@Z"
	.seh_handler __CxxFrameHandler3, @unwind, @except
# %bb.0:
	push	rbp
	.seh_pushreg 5
	sub	rsp, 128
	.seh_stackalloc 128
	lea	rbp, [rsp + 128]
	.seh_setframe 5, 128
	.seh_endprologue
	mov	qword ptr [rbp - 8], -2
	mov	qword ptr [rbp - 24], rdx
	mov	byte ptr [rbp - 32], r8b
	mov	qword ptr [rbp - 40], rcx
	mov	rcx, qword ptr [rbp - 40]
	mov	qword ptr [rbp - 16], rcx
.Ltmp321:
	mov	rdx, qword ptr [rbp - 24]
	mov	qword ptr [rcx], rdx
.Ltmp322:
	.cv_loc	82 2 592 0              # ..\include\gsl/span:592:0
	call	"?size@?$extent_type@$05@details@gsl@@QEBA_JXZ"
	cmp	rax, 0
	setge	r8b
	mov	byte ptr [rbp - 65], 0
	test	r8b, 1
	jne	.LBB82_1
	jmp	.LBB82_2
.LBB82_1:
	test	byte ptr [rbp - 65], 1
	jne	.LBB82_4
	jmp	.LBB82_5
.LBB82_2:
	lea	rdx, [rip + "??_C@_0DG@PFBAEBPE@GSL?3?5Precondition?5failure?5at?5?4?4?2@"]
	lea	rax, [rbp - 64]
	mov	rcx, rax
	mov	qword ptr [rbp - 80], rax # 8-byte Spill
	call	"??0fail_fast@gsl@@QEAA@QEBD@Z"
	mov	byte ptr [rbp - 65], 1
.Ltmp319:
	mov	rcx, qword ptr [rbp - 80] # 8-byte Reload
	mov	qword ptr [rbp - 88], rax # 8-byte Spill
	call	"??$throw_exception@Ufail_fast@gsl@@@details@gsl@@YAX$$QEAUfail_fast@1@@Z"
.Ltmp320:
	jmp	.LBB82_3
.LBB82_3:
	ud2
.LBB82_4:
	lea	rcx, [rbp - 64]
	call	"??1fail_fast@gsl@@UEAA@XZ"
.Ltmp323:
.LBB82_5:
	.cv_loc	82 2 593 0              # ..\include\gsl/span:593:0
	mov	rax, qword ptr [rbp - 16]
	add	rsp, 128
	pop	rbp
	ret
	.seh_handlerdata
	.long	("$cppxdata$??$?0V?$extent_type@$05@details@gsl@@@?$storage_type@V?$extent_type@$05@details@gsl@@@?$span@H$05@gsl@@QEAA@UKnownNotNull@12@V?$extent_type@$05@details@2@@Z")@IMGREL
	.section	.text,"xr",discard,"??$?0V?$extent_type@$05@details@gsl@@@?$storage_type@V?$extent_type@$05@details@gsl@@@?$span@H$05@gsl@@QEAA@UKnownNotNull@12@V?$extent_type@$05@details@2@@Z"
	.seh_endproc
	.def	 "?dtor$6@?0???$?0V?$extent_type@$05@details@gsl@@@?$storage_type@V?$extent_type@$05@details@gsl@@@?$span@H$05@gsl@@QEAA@UKnownNotNull@12@V?$extent_type@$05@details@2@@Z@4HA";
	.scl	3;
	.type	32;
	.endef
	.p2align	4, 0x90
"?dtor$6@?0???$?0V?$extent_type@$05@details@gsl@@@?$storage_type@V?$extent_type@$05@details@gsl@@@?$span@H$05@gsl@@QEAA@UKnownNotNull@12@V?$extent_type@$05@details@2@@Z@4HA":
.seh_proc "?dtor$6@?0???$?0V?$extent_type@$05@details@gsl@@@?$storage_type@V?$extent_type@$05@details@gsl@@@?$span@H$05@gsl@@QEAA@UKnownNotNull@12@V?$extent_type@$05@details@2@@Z@4HA"
.LBB82_6:
	mov	qword ptr [rsp + 16], rdx
	push	rbp
	.seh_pushreg 5
	sub	rsp, 32
	.seh_stackalloc 32
	lea	rbp, [rdx + 128]
	.seh_endprologue
.Ltmp324:
	.cv_loc	82 2 592 0              # ..\include\gsl/span:592:0
	test	byte ptr [rbp - 65], 1
	jne	.LBB82_7
	jmp	.LBB82_8
.LBB82_7:
	lea	rcx, [rbp - 64]
	call	"??1fail_fast@gsl@@UEAA@XZ"
.LBB82_8:
	nop
	add	rsp, 32
	pop	rbp
	ret                             # CLEANUPRET
.Ltmp325:
.Lfunc_end82:
	.seh_handlerdata
	.section	.text,"xr",discard,"??$?0V?$extent_type@$05@details@gsl@@@?$storage_type@V?$extent_type@$05@details@gsl@@@?$span@H$05@gsl@@QEAA@UKnownNotNull@12@V?$extent_type@$05@details@2@@Z"
	.seh_endproc
	.section	.xdata,"dr",associative,"??$?0V?$extent_type@$05@details@gsl@@@?$storage_type@V?$extent_type@$05@details@gsl@@@?$span@H$05@gsl@@QEAA@UKnownNotNull@12@V?$extent_type@$05@details@2@@Z"
	.p2align	2
"$cppxdata$??$?0V?$extent_type@$05@details@gsl@@@?$storage_type@V?$extent_type@$05@details@gsl@@@?$span@H$05@gsl@@QEAA@UKnownNotNull@12@V?$extent_type@$05@details@2@@Z":
	.long	429065506               # MagicNumber
	.long	1                       # MaxState
	.long	("$stateUnwindMap$??$?0V?$extent_type@$05@details@gsl@@@?$storage_type@V?$extent_type@$05@details@gsl@@@?$span@H$05@gsl@@QEAA@UKnownNotNull@12@V?$extent_type@$05@details@2@@Z")@IMGREL # UnwindMap
	.long	0                       # NumTryBlocks
	.long	0                       # TryBlockMap
	.long	3                       # IPMapEntries
	.long	("$ip2state$??$?0V?$extent_type@$05@details@gsl@@@?$storage_type@V?$extent_type@$05@details@gsl@@@?$span@H$05@gsl@@QEAA@UKnownNotNull@12@V?$extent_type@$05@details@2@@Z")@IMGREL # IPToStateXData
	.long	120                     # UnwindHelp
	.long	0                       # ESTypeList
	.long	1                       # EHFlags
"$stateUnwindMap$??$?0V?$extent_type@$05@details@gsl@@@?$storage_type@V?$extent_type@$05@details@gsl@@@?$span@H$05@gsl@@QEAA@UKnownNotNull@12@V?$extent_type@$05@details@2@@Z":
	.long	-1                      # ToState
	.long	"?dtor$6@?0???$?0V?$extent_type@$05@details@gsl@@@?$storage_type@V?$extent_type@$05@details@gsl@@@?$span@H$05@gsl@@QEAA@UKnownNotNull@12@V?$extent_type@$05@details@2@@Z@4HA"@IMGREL # Action
"$ip2state$??$?0V?$extent_type@$05@details@gsl@@@?$storage_type@V?$extent_type@$05@details@gsl@@@?$span@H$05@gsl@@QEAA@UKnownNotNull@12@V?$extent_type@$05@details@2@@Z":
	.long	.Lfunc_begin82@IMGREL   # IP
	.long	-1                      # ToState
	.long	.Ltmp319@IMGREL+1       # IP
	.long	0                       # ToState
	.long	.Ltmp320@IMGREL+1       # IP
	.long	-1                      # ToState
	.section	.text,"xr",discard,"??$?0V?$extent_type@$05@details@gsl@@@?$storage_type@V?$extent_type@$05@details@gsl@@@?$span@H$05@gsl@@QEAA@UKnownNotNull@12@V?$extent_type@$05@details@2@@Z"
                                        # -- End function
	.def	 "??$make_subspan@$05@?$span@H$05@gsl@@AEBA?AV?$span@H$0?0@1@_J0V?$subspan_selector@$05@01@@Z";
	.scl	2;
	.type	32;
	.endef
	.section	.text,"xr",discard,"??$make_subspan@$05@?$span@H$05@gsl@@AEBA?AV?$span@H$0?0@1@_J0V?$subspan_selector@$05@01@@Z"
	.globl	"??$make_subspan@$05@?$span@H$05@gsl@@AEBA?AV?$span@H$0?0@1@_J0V?$subspan_selector@$05@01@@Z" # -- Begin function ??$make_subspan@$05@?$span@H$05@gsl@@AEBA?AV?$span@H$0?0@1@_J0V?$subspan_selector@$05@01@@Z
	.p2align	4, 0x90
"??$make_subspan@$05@?$span@H$05@gsl@@AEBA?AV?$span@H$0?0@1@_J0V?$subspan_selector@$05@01@@Z": # @"??$make_subspan@$05@?$span@H$05@gsl@@AEBA?AV?$span@H$0?0@1@_J0V?$subspan_selector@$05@01@@Z"
.Lfunc_begin83:
	.cv_func_id 83
	.cv_loc	83 2 622 0              # ..\include\gsl/span:622:0
.seh_proc "??$make_subspan@$05@?$span@H$05@gsl@@AEBA?AV?$span@H$0?0@1@_J0V?$subspan_selector@$05@01@@Z"
# %bb.0:
	sub	rsp, 120
	.seh_stackalloc 120
	.seh_endprologue
	mov	rax, rdx
	mov	r10b, byte ptr [rsp + 160]
	mov	r11, qword ptr [rip + __security_cookie]
	xor	r11, rsp
	mov	qword ptr [rsp + 112], r11
	mov	byte ptr [rsp + 88], r10b
	mov	qword ptr [rsp + 80], r9
	mov	qword ptr [rsp + 72], r8
	mov	qword ptr [rsp + 64], rcx
	mov	rcx, qword ptr [rsp + 64]
.Ltmp326:
	.cv_loc	83 2 623 0              # ..\include\gsl/span:623:0
	lea	r8, [rsp + 96]
.Ltmp327:
	#DEBUG_VALUE: make_subspan<6>:tmp <- [$r8+0]
	mov	qword ptr [rsp + 56], rcx # 8-byte Spill
	mov	rcx, r8
	mov	r8, qword ptr [rsp + 56] # 8-byte Reload
.Ltmp328:
	mov	qword ptr [rsp + 48], rdx # 8-byte Spill
	mov	rdx, r8
	mov	qword ptr [rsp + 40], rax # 8-byte Spill
	call	"??$?0H$05X@?$span@H$0?0@gsl@@QEAA@AEBV?$span@H$05@1@@Z"
	.cv_loc	83 2 624 0              # ..\include\gsl/span:624:0
	mov	r9, qword ptr [rsp + 80]
	mov	r8, qword ptr [rsp + 72]
	lea	rcx, [rsp + 96]
	mov	rdx, qword ptr [rsp + 48] # 8-byte Reload
	mov	qword ptr [rsp + 32], rax # 8-byte Spill
	call	"?subspan@?$span@H$0?0@gsl@@QEBA?AV12@_J0@Z"
	mov	rax, qword ptr [rsp + 112]
	xor	rax, rsp
	mov	rcx, rax
	call	__security_check_cookie
	mov	rax, qword ptr [rsp + 40] # 8-byte Reload
	add	rsp, 120
	ret
.Ltmp329:
.Lfunc_end83:
	.seh_handlerdata
	.section	.text,"xr",discard,"??$make_subspan@$05@?$span@H$05@gsl@@AEBA?AV?$span@H$0?0@1@_J0V?$subspan_selector@$05@01@@Z"
	.seh_endproc
                                        # -- End function
	.def	 "?size@?$span@H$05@gsl@@QEBA_JXZ";
	.scl	2;
	.type	32;
	.endef
	.section	.text,"xr",discard,"?size@?$span@H$05@gsl@@QEBA_JXZ"
	.globl	"?size@?$span@H$05@gsl@@QEBA_JXZ" # -- Begin function ?size@?$span@H$05@gsl@@QEBA_JXZ
	.p2align	4, 0x90
"?size@?$span@H$05@gsl@@QEBA_JXZ":      # @"?size@?$span@H$05@gsl@@QEBA_JXZ"
.Lfunc_begin84:
	.cv_func_id 84
	.cv_loc	84 2 498 0              # ..\include\gsl/span:498:0
.seh_proc "?size@?$span@H$05@gsl@@QEBA_JXZ"
# %bb.0:
	sub	rsp, 40
	.seh_stackalloc 40
	.seh_endprologue
	mov	qword ptr [rsp + 32], rcx
	mov	rcx, qword ptr [rsp + 32]
.Ltmp330:
	call	"?size@?$extent_type@$05@details@gsl@@QEBA_JXZ"
	nop
	add	rsp, 40
	ret
.Ltmp331:
.Lfunc_end84:
	.seh_handlerdata
	.section	.text,"xr",discard,"?size@?$span@H$05@gsl@@QEBA_JXZ"
	.seh_endproc
                                        # -- End function
	.def	 "??$?0H$05X@?$span@H$0?0@gsl@@QEAA@AEBV?$span@H$05@1@@Z";
	.scl	2;
	.type	32;
	.endef
	.section	.text,"xr",discard,"??$?0H$05X@?$span@H$0?0@gsl@@QEAA@AEBV?$span@H$05@1@@Z"
	.globl	"??$?0H$05X@?$span@H$0?0@gsl@@QEAA@AEBV?$span@H$05@1@@Z" # -- Begin function ??$?0H$05X@?$span@H$0?0@gsl@@QEAA@AEBV?$span@H$05@1@@Z
	.p2align	4, 0x90
"??$?0H$05X@?$span@H$0?0@gsl@@QEAA@AEBV?$span@H$05@1@@Z": # @"??$?0H$05X@?$span@H$0?0@gsl@@QEAA@AEBV?$span@H$05@1@@Z"
.Lfunc_begin85:
	.cv_func_id 85
	.cv_loc	85 2 448 0              # ..\include\gsl/span:448:0
.seh_proc "??$?0H$05X@?$span@H$0?0@gsl@@QEAA@AEBV?$span@H$05@1@@Z"
# %bb.0:
	sub	rsp, 88
	.seh_stackalloc 88
	.seh_endprologue
	mov	rax, qword ptr [rip + __security_cookie]
	xor	rax, rsp
	mov	qword ptr [rsp + 80], rax
	mov	qword ptr [rsp + 64], rdx
	mov	qword ptr [rsp + 56], rcx
	mov	rax, qword ptr [rsp + 56]
.Ltmp332:
	mov	rcx, qword ptr [rsp + 64]
	mov	qword ptr [rsp + 48], rax # 8-byte Spill
	call	"?size@?$span@H$05@gsl@@QEBA_JXZ"
	lea	rcx, [rsp + 72]
	mov	rdx, rax
	call	"??0?$extent_type@$05@details@gsl@@QEAA@_J@Z"
	mov	rcx, qword ptr [rsp + 64]
	mov	qword ptr [rsp + 40], rax # 8-byte Spill
	call	"?data@?$span@H$05@gsl@@QEBAPEAHXZ"
	mov	r8b, byte ptr [rsp + 72]
	mov	rcx, qword ptr [rsp + 48] # 8-byte Reload
	mov	rdx, rax
	call	"??$?0V?$extent_type@$05@details@gsl@@@?$storage_type@V?$extent_type@$0?0@details@gsl@@@?$span@H$0?0@gsl@@QEAA@PEAHV?$extent_type@$05@details@2@@Z"
	mov	rcx, qword ptr [rsp + 80]
	xor	rcx, rsp
	mov	qword ptr [rsp + 32], rax # 8-byte Spill
	call	__security_check_cookie
	mov	rax, qword ptr [rsp + 48] # 8-byte Reload
	add	rsp, 88
	ret
.Ltmp333:
.Lfunc_end85:
	.seh_handlerdata
	.section	.text,"xr",discard,"??$?0H$05X@?$span@H$0?0@gsl@@QEAA@AEBV?$span@H$05@1@@Z"
	.seh_endproc
                                        # -- End function
	.def	 "??0?$extent_type@$05@details@gsl@@QEAA@_J@Z";
	.scl	2;
	.type	32;
	.endef
	.section	.text,"xr",discard,"??0?$extent_type@$05@details@gsl@@QEAA@_J@Z"
	.globl	"??0?$extent_type@$05@details@gsl@@QEAA@_J@Z" # -- Begin function ??0?$extent_type@$05@details@gsl@@QEAA@_J@Z
	.p2align	4, 0x90
"??0?$extent_type@$05@details@gsl@@QEAA@_J@Z": # @"??0?$extent_type@$05@details@gsl@@QEAA@_J@Z"
.Lfunc_begin86:
	.cv_func_id 86
	.cv_loc	86 2 321 0              # ..\include\gsl/span:321:0
.seh_proc "??0?$extent_type@$05@details@gsl@@QEAA@_J@Z"
	.seh_handler __CxxFrameHandler3, @unwind, @except
# %bb.0:
	push	rbp
	.seh_pushreg 5
	sub	rsp, 112
	.seh_stackalloc 112
	lea	rbp, [rsp + 112]
	.seh_setframe 5, 112
	.seh_endprologue
	mov	qword ptr [rbp - 8], -2
	mov	qword ptr [rbp - 24], rdx
	mov	qword ptr [rbp - 32], rcx
	mov	rcx, qword ptr [rbp - 32]
	mov	qword ptr [rbp - 16], rcx
.Ltmp336:
	.cv_loc	86 2 321 0              # ..\include\gsl/span:321:0
	cmp	qword ptr [rbp - 24], 6
	sete	al
	mov	byte ptr [rbp - 57], 0
	test	al, 1
	jne	.LBB86_1
	jmp	.LBB86_2
.LBB86_1:
	test	byte ptr [rbp - 57], 1
	jne	.LBB86_4
	jmp	.LBB86_5
.LBB86_2:
	lea	rdx, [rip + "??_C@_0DG@PHADKCAK@GSL?3?5Precondition?5failure?5at?5?4?4?2@"]
	lea	rax, [rbp - 56]
	mov	rcx, rax
	mov	qword ptr [rbp - 72], rax # 8-byte Spill
	call	"??0fail_fast@gsl@@QEAA@QEBD@Z"
	mov	byte ptr [rbp - 57], 1
.Ltmp334:
	mov	rcx, qword ptr [rbp - 72] # 8-byte Reload
	mov	qword ptr [rbp - 80], rax # 8-byte Spill
	call	"??$throw_exception@Ufail_fast@gsl@@@details@gsl@@YAX$$QEAUfail_fast@1@@Z"
.Ltmp335:
	jmp	.LBB86_3
.LBB86_3:
	ud2
.LBB86_4:
	lea	rcx, [rbp - 56]
	call	"??1fail_fast@gsl@@UEAA@XZ"
.Ltmp337:
.LBB86_5:
	.cv_loc	86 2 321 0              # ..\include\gsl/span:321:0
	mov	rax, qword ptr [rbp - 16]
	add	rsp, 112
	pop	rbp
	ret
	.seh_handlerdata
	.long	("$cppxdata$??0?$extent_type@$05@details@gsl@@QEAA@_J@Z")@IMGREL
	.section	.text,"xr",discard,"??0?$extent_type@$05@details@gsl@@QEAA@_J@Z"
	.seh_endproc
	.def	 "?dtor$6@?0???0?$extent_type@$05@details@gsl@@QEAA@_J@Z@4HA";
	.scl	3;
	.type	32;
	.endef
	.p2align	4, 0x90
"?dtor$6@?0???0?$extent_type@$05@details@gsl@@QEAA@_J@Z@4HA":
.seh_proc "?dtor$6@?0???0?$extent_type@$05@details@gsl@@QEAA@_J@Z@4HA"
.LBB86_6:
	mov	qword ptr [rsp + 16], rdx
	push	rbp
	.seh_pushreg 5
	sub	rsp, 32
	.seh_stackalloc 32
	lea	rbp, [rdx + 112]
	.seh_endprologue
.Ltmp338:
	.cv_loc	86 2 321 0              # ..\include\gsl/span:321:0
	test	byte ptr [rbp - 57], 1
	jne	.LBB86_7
	jmp	.LBB86_8
.LBB86_7:
	lea	rcx, [rbp - 56]
	call	"??1fail_fast@gsl@@UEAA@XZ"
.LBB86_8:
	nop
	add	rsp, 32
	pop	rbp
	ret                             # CLEANUPRET
.Ltmp339:
.Lfunc_end86:
	.seh_handlerdata
	.section	.text,"xr",discard,"??0?$extent_type@$05@details@gsl@@QEAA@_J@Z"
	.seh_endproc
	.section	.xdata,"dr",associative,"??0?$extent_type@$05@details@gsl@@QEAA@_J@Z"
	.p2align	2
"$cppxdata$??0?$extent_type@$05@details@gsl@@QEAA@_J@Z":
	.long	429065506               # MagicNumber
	.long	1                       # MaxState
	.long	("$stateUnwindMap$??0?$extent_type@$05@details@gsl@@QEAA@_J@Z")@IMGREL # UnwindMap
	.long	0                       # NumTryBlocks
	.long	0                       # TryBlockMap
	.long	3                       # IPMapEntries
	.long	("$ip2state$??0?$extent_type@$05@details@gsl@@QEAA@_J@Z")@IMGREL # IPToStateXData
	.long	104                     # UnwindHelp
	.long	0                       # ESTypeList
	.long	1                       # EHFlags
"$stateUnwindMap$??0?$extent_type@$05@details@gsl@@QEAA@_J@Z":
	.long	-1                      # ToState
	.long	"?dtor$6@?0???0?$extent_type@$05@details@gsl@@QEAA@_J@Z@4HA"@IMGREL # Action
"$ip2state$??0?$extent_type@$05@details@gsl@@QEAA@_J@Z":
	.long	.Lfunc_begin86@IMGREL   # IP
	.long	-1                      # ToState
	.long	.Ltmp334@IMGREL+1       # IP
	.long	0                       # ToState
	.long	.Ltmp335@IMGREL+1       # IP
	.long	-1                      # ToState
	.section	.text,"xr",discard,"??0?$extent_type@$05@details@gsl@@QEAA@_J@Z"
                                        # -- End function
	.def	 "?data@?$span@H$05@gsl@@QEBAPEAHXZ";
	.scl	2;
	.type	32;
	.endef
	.section	.text,"xr",discard,"?data@?$span@H$05@gsl@@QEBAPEAHXZ"
	.globl	"?data@?$span@H$05@gsl@@QEBAPEAHXZ" # -- Begin function ?data@?$span@H$05@gsl@@QEBAPEAHXZ
	.p2align	4, 0x90
"?data@?$span@H$05@gsl@@QEBAPEAHXZ":    # @"?data@?$span@H$05@gsl@@QEBAPEAHXZ"
.Lfunc_begin87:
	.cv_func_id 87
	.cv_loc	87 2 515 0              # ..\include\gsl/span:515:0
.seh_proc "?data@?$span@H$05@gsl@@QEBAPEAHXZ"
# %bb.0:
	sub	rsp, 40
	.seh_stackalloc 40
	.seh_endprologue
	mov	qword ptr [rsp + 32], rcx
	mov	rcx, qword ptr [rsp + 32]
.Ltmp340:
	call	"?data@?$storage_type@V?$extent_type@$05@details@gsl@@@?$span@H$05@gsl@@QEBAPEAHXZ"
	nop
	add	rsp, 40
	ret
.Ltmp341:
.Lfunc_end87:
	.seh_handlerdata
	.section	.text,"xr",discard,"?data@?$span@H$05@gsl@@QEBAPEAHXZ"
	.seh_endproc
                                        # -- End function
	.def	 "??$?0V?$extent_type@$05@details@gsl@@@?$storage_type@V?$extent_type@$0?0@details@gsl@@@?$span@H$0?0@gsl@@QEAA@PEAHV?$extent_type@$05@details@2@@Z";
	.scl	2;
	.type	32;
	.endef
	.section	.text,"xr",discard,"??$?0V?$extent_type@$05@details@gsl@@@?$storage_type@V?$extent_type@$0?0@details@gsl@@@?$span@H$0?0@gsl@@QEAA@PEAHV?$extent_type@$05@details@2@@Z"
	.globl	"??$?0V?$extent_type@$05@details@gsl@@@?$storage_type@V?$extent_type@$0?0@details@gsl@@@?$span@H$0?0@gsl@@QEAA@PEAHV?$extent_type@$05@details@2@@Z" # -- Begin function ??$?0V?$extent_type@$05@details@gsl@@@?$storage_type@V?$extent_type@$0?0@details@gsl@@@?$span@H$0?0@gsl@@QEAA@PEAHV?$extent_type@$05@details@2@@Z
	.p2align	4, 0x90
"??$?0V?$extent_type@$05@details@gsl@@@?$storage_type@V?$extent_type@$0?0@details@gsl@@@?$span@H$0?0@gsl@@QEAA@PEAHV?$extent_type@$05@details@2@@Z": # @"??$?0V?$extent_type@$05@details@gsl@@@?$storage_type@V?$extent_type@$0?0@details@gsl@@@?$span@H$0?0@gsl@@QEAA@PEAHV?$extent_type@$05@details@2@@Z"
.Lfunc_begin88:
	.cv_func_id 88
	.cv_loc	88 2 597 0              # ..\include\gsl/span:597:0
.seh_proc "??$?0V?$extent_type@$05@details@gsl@@@?$storage_type@V?$extent_type@$0?0@details@gsl@@@?$span@H$0?0@gsl@@QEAA@PEAHV?$extent_type@$05@details@2@@Z"
	.seh_handler __CxxFrameHandler3, @unwind, @except
# %bb.0:
	push	rbp
	.seh_pushreg 5
	sub	rsp, 208
	.seh_stackalloc 208
	lea	rbp, [rsp + 128]
	.seh_setframe 5, 128
	.seh_endprologue
	mov	qword ptr [rbp + 72], -2
	mov	byte ptr [rbp + 56], r8b
	mov	qword ptr [rbp + 48], rdx
	mov	qword ptr [rbp + 40], rcx
	mov	rcx, qword ptr [rbp + 40]
	mov	qword ptr [rbp + 64], rcx
.Ltmp346:
	mov	rdx, rcx
	mov	r8b, byte ptr [rbp + 32]
	mov	qword ptr [rbp - 40], rcx # 8-byte Spill
	mov	rcx, rdx
	mov	dl, r8b
	call	"??$?0$05@?$extent_type@$0?0@details@gsl@@QEAA@V?$extent_type@$05@12@@Z"
	mov	rcx, qword ptr [rbp + 48]
	mov	r9, qword ptr [rbp - 40] # 8-byte Reload
	mov	qword ptr [r9 + 8], rcx
.Ltmp347:
	.cv_loc	88 2 598 0              # ..\include\gsl/span:598:0
	mov	rcx, r9
	mov	qword ptr [rbp - 48], rax # 8-byte Spill
	call	"?size@?$extent_type@$0?0@details@gsl@@QEBA_JXZ"
	cmp	rax, 0
	setge	dl
	mov	byte ptr [rbp + 7], 0
	test	dl, 1
	jne	.LBB88_1
	jmp	.LBB88_2
.LBB88_1:
	test	byte ptr [rbp + 7], 1
	jne	.LBB88_4
	jmp	.LBB88_5
.LBB88_2:
	lea	rdx, [rip + "??_C@_0DG@PPPKJHO@GSL?3?5Precondition?5failure?5at?5?4?4?2@"]
	lea	rax, [rbp + 8]
	mov	rcx, rax
	mov	qword ptr [rbp - 56], rax # 8-byte Spill
	call	"??0fail_fast@gsl@@QEAA@QEBD@Z"
	mov	byte ptr [rbp + 7], 1
.Ltmp342:
	mov	rcx, qword ptr [rbp - 56] # 8-byte Reload
	mov	qword ptr [rbp - 64], rax # 8-byte Spill
	call	"??$throw_exception@Ufail_fast@gsl@@@details@gsl@@YAX$$QEAUfail_fast@1@@Z"
.Ltmp343:
	jmp	.LBB88_3
.LBB88_3:
	ud2
.LBB88_4:
	lea	rcx, [rbp + 8]
	call	"??1fail_fast@gsl@@UEAA@XZ"
.LBB88_5:
	.cv_loc	88 2 599 0              # ..\include\gsl/span:599:0
	mov	rax, qword ptr [rbp + 48]
	mov	byte ptr [rbp - 25], 0
	cmp	rax, 0
	mov	cl, 1
	mov	byte ptr [rbp - 65], cl # 1-byte Spill
	jne	.LBB88_7
# %bb.6:
	mov	rax, qword ptr [rbp - 40] # 8-byte Reload
	mov	rcx, rax
	call	"?size@?$extent_type@$0?0@details@gsl@@QEBA_JXZ"
	cmp	rax, 0
	sete	dl
	mov	byte ptr [rbp - 65], dl # 1-byte Spill
.LBB88_7:
	mov	al, byte ptr [rbp - 65] # 1-byte Reload
	test	al, 1
	jne	.LBB88_8
	jmp	.LBB88_9
.LBB88_8:
	test	byte ptr [rbp - 25], 1
	jne	.LBB88_14
	jmp	.LBB88_15
.LBB88_9:
	lea	rdx, [rip + "??_C@_0DG@BGOEJIDP@GSL?3?5Precondition?5failure?5at?5?4?4?2@"]
	lea	rax, [rbp - 24]
	mov	rcx, rax
	mov	qword ptr [rbp - 80], rax # 8-byte Spill
	call	"??0fail_fast@gsl@@QEAA@QEBD@Z"
	mov	byte ptr [rbp - 25], 1
.Ltmp344:
	mov	rcx, qword ptr [rbp - 80] # 8-byte Reload
	mov	qword ptr [rbp - 88], rax # 8-byte Spill
	call	"??$throw_exception@Ufail_fast@gsl@@@details@gsl@@YAX$$QEAUfail_fast@1@@Z"
.Ltmp345:
	jmp	.LBB88_10
.LBB88_10:
	ud2
.LBB88_14:
	lea	rcx, [rbp - 24]
	call	"??1fail_fast@gsl@@UEAA@XZ"
.Ltmp348:
.LBB88_15:
	.cv_loc	88 2 600 0              # ..\include\gsl/span:600:0
	mov	rax, qword ptr [rbp + 64]
	add	rsp, 208
	pop	rbp
	ret
	.seh_handlerdata
	.long	("$cppxdata$??$?0V?$extent_type@$05@details@gsl@@@?$storage_type@V?$extent_type@$0?0@details@gsl@@@?$span@H$0?0@gsl@@QEAA@PEAHV?$extent_type@$05@details@2@@Z")@IMGREL
	.section	.text,"xr",discard,"??$?0V?$extent_type@$05@details@gsl@@@?$storage_type@V?$extent_type@$0?0@details@gsl@@@?$span@H$0?0@gsl@@QEAA@PEAHV?$extent_type@$05@details@2@@Z"
	.seh_endproc
	.def	 "?dtor$11@?0???$?0V?$extent_type@$05@details@gsl@@@?$storage_type@V?$extent_type@$0?0@details@gsl@@@?$span@H$0?0@gsl@@QEAA@PEAHV?$extent_type@$05@details@2@@Z@4HA";
	.scl	3;
	.type	32;
	.endef
	.p2align	4, 0x90
"?dtor$11@?0???$?0V?$extent_type@$05@details@gsl@@@?$storage_type@V?$extent_type@$0?0@details@gsl@@@?$span@H$0?0@gsl@@QEAA@PEAHV?$extent_type@$05@details@2@@Z@4HA":
.seh_proc "?dtor$11@?0???$?0V?$extent_type@$05@details@gsl@@@?$storage_type@V?$extent_type@$0?0@details@gsl@@@?$span@H$0?0@gsl@@QEAA@PEAHV?$extent_type@$05@details@2@@Z@4HA"
.LBB88_11:
	mov	qword ptr [rsp + 16], rdx
	push	rbp
	.seh_pushreg 5
	sub	rsp, 32
	.seh_stackalloc 32
	lea	rbp, [rdx + 128]
	.seh_endprologue
.Ltmp349:
	.cv_loc	88 2 598 0              # ..\include\gsl/span:598:0
	test	byte ptr [rbp + 7], 1
	jne	.LBB88_12
	jmp	.LBB88_13
.LBB88_12:
	lea	rcx, [rbp + 8]
	call	"??1fail_fast@gsl@@UEAA@XZ"
.LBB88_13:
	nop
	add	rsp, 32
	pop	rbp
	ret                             # CLEANUPRET
	.seh_handlerdata
	.section	.text,"xr",discard,"??$?0V?$extent_type@$05@details@gsl@@@?$storage_type@V?$extent_type@$0?0@details@gsl@@@?$span@H$0?0@gsl@@QEAA@PEAHV?$extent_type@$05@details@2@@Z"
	.seh_endproc
	.def	 "?dtor$16@?0???$?0V?$extent_type@$05@details@gsl@@@?$storage_type@V?$extent_type@$0?0@details@gsl@@@?$span@H$0?0@gsl@@QEAA@PEAHV?$extent_type@$05@details@2@@Z@4HA";
	.scl	3;
	.type	32;
	.endef
	.p2align	4, 0x90
"?dtor$16@?0???$?0V?$extent_type@$05@details@gsl@@@?$storage_type@V?$extent_type@$0?0@details@gsl@@@?$span@H$0?0@gsl@@QEAA@PEAHV?$extent_type@$05@details@2@@Z@4HA":
.seh_proc "?dtor$16@?0???$?0V?$extent_type@$05@details@gsl@@@?$storage_type@V?$extent_type@$0?0@details@gsl@@@?$span@H$0?0@gsl@@QEAA@PEAHV?$extent_type@$05@details@2@@Z@4HA"
.LBB88_16:
	mov	qword ptr [rsp + 16], rdx
	push	rbp
	.seh_pushreg 5
	sub	rsp, 32
	.seh_stackalloc 32
	lea	rbp, [rdx + 128]
	.seh_endprologue
	.cv_loc	88 2 599 0              # ..\include\gsl/span:599:0
	test	byte ptr [rbp - 25], 1
	jne	.LBB88_17
	jmp	.LBB88_18
.LBB88_17:
	lea	rcx, [rbp - 24]
	call	"??1fail_fast@gsl@@UEAA@XZ"
.LBB88_18:
	nop
	add	rsp, 32
	pop	rbp
	ret                             # CLEANUPRET
.Ltmp350:
.Lfunc_end88:
	.seh_handlerdata
	.section	.text,"xr",discard,"??$?0V?$extent_type@$05@details@gsl@@@?$storage_type@V?$extent_type@$0?0@details@gsl@@@?$span@H$0?0@gsl@@QEAA@PEAHV?$extent_type@$05@details@2@@Z"
	.seh_endproc
	.section	.xdata,"dr",associative,"??$?0V?$extent_type@$05@details@gsl@@@?$storage_type@V?$extent_type@$0?0@details@gsl@@@?$span@H$0?0@gsl@@QEAA@PEAHV?$extent_type@$05@details@2@@Z"
	.p2align	2
"$cppxdata$??$?0V?$extent_type@$05@details@gsl@@@?$storage_type@V?$extent_type@$0?0@details@gsl@@@?$span@H$0?0@gsl@@QEAA@PEAHV?$extent_type@$05@details@2@@Z":
	.long	429065506               # MagicNumber
	.long	2                       # MaxState
	.long	("$stateUnwindMap$??$?0V?$extent_type@$05@details@gsl@@@?$storage_type@V?$extent_type@$0?0@details@gsl@@@?$span@H$0?0@gsl@@QEAA@PEAHV?$extent_type@$05@details@2@@Z")@IMGREL # UnwindMap
	.long	0                       # NumTryBlocks
	.long	0                       # TryBlockMap
	.long	5                       # IPMapEntries
	.long	("$ip2state$??$?0V?$extent_type@$05@details@gsl@@@?$storage_type@V?$extent_type@$0?0@details@gsl@@@?$span@H$0?0@gsl@@QEAA@PEAHV?$extent_type@$05@details@2@@Z")@IMGREL # IPToStateXData
	.long	200                     # UnwindHelp
	.long	0                       # ESTypeList
	.long	1                       # EHFlags
"$stateUnwindMap$??$?0V?$extent_type@$05@details@gsl@@@?$storage_type@V?$extent_type@$0?0@details@gsl@@@?$span@H$0?0@gsl@@QEAA@PEAHV?$extent_type@$05@details@2@@Z":
	.long	-1                      # ToState
	.long	"?dtor$11@?0???$?0V?$extent_type@$05@details@gsl@@@?$storage_type@V?$extent_type@$0?0@details@gsl@@@?$span@H$0?0@gsl@@QEAA@PEAHV?$extent_type@$05@details@2@@Z@4HA"@IMGREL # Action
	.long	-1                      # ToState
	.long	"?dtor$16@?0???$?0V?$extent_type@$05@details@gsl@@@?$storage_type@V?$extent_type@$0?0@details@gsl@@@?$span@H$0?0@gsl@@QEAA@PEAHV?$extent_type@$05@details@2@@Z@4HA"@IMGREL # Action
"$ip2state$??$?0V?$extent_type@$05@details@gsl@@@?$storage_type@V?$extent_type@$0?0@details@gsl@@@?$span@H$0?0@gsl@@QEAA@PEAHV?$extent_type@$05@details@2@@Z":
	.long	.Lfunc_begin88@IMGREL   # IP
	.long	-1                      # ToState
	.long	.Ltmp342@IMGREL+1       # IP
	.long	0                       # ToState
	.long	.Ltmp343@IMGREL+1       # IP
	.long	-1                      # ToState
	.long	.Ltmp344@IMGREL+1       # IP
	.long	1                       # ToState
	.long	.Ltmp345@IMGREL+1       # IP
	.long	-1                      # ToState
	.section	.text,"xr",discard,"??$?0V?$extent_type@$05@details@gsl@@@?$storage_type@V?$extent_type@$0?0@details@gsl@@@?$span@H$0?0@gsl@@QEAA@PEAHV?$extent_type@$05@details@2@@Z"
                                        # -- End function
	.def	 "?data@?$storage_type@V?$extent_type@$05@details@gsl@@@?$span@H$05@gsl@@QEBAPEAHXZ";
	.scl	2;
	.type	32;
	.endef
	.section	.text,"xr",discard,"?data@?$storage_type@V?$extent_type@$05@details@gsl@@@?$span@H$05@gsl@@QEBAPEAHXZ"
	.globl	"?data@?$storage_type@V?$extent_type@$05@details@gsl@@@?$span@H$05@gsl@@QEBAPEAHXZ" # -- Begin function ?data@?$storage_type@V?$extent_type@$05@details@gsl@@@?$span@H$05@gsl@@QEBAPEAHXZ
	.p2align	4, 0x90
"?data@?$storage_type@V?$extent_type@$05@details@gsl@@@?$span@H$05@gsl@@QEBAPEAHXZ": # @"?data@?$storage_type@V?$extent_type@$05@details@gsl@@@?$span@H$05@gsl@@QEBAPEAHXZ"
.Lfunc_begin89:
	.cv_func_id 89
	.cv_loc	89 2 602 0              # ..\include\gsl/span:602:0
.seh_proc "?data@?$storage_type@V?$extent_type@$05@details@gsl@@@?$span@H$05@gsl@@QEBAPEAHXZ"
# %bb.0:
	push	rax
	.seh_stackalloc 8
	.seh_endprologue
	mov	qword ptr [rsp], rcx
	mov	rcx, qword ptr [rsp]
.Ltmp351:
	mov	rax, qword ptr [rcx]
	pop	rcx
	ret
.Ltmp352:
.Lfunc_end89:
	.seh_handlerdata
	.section	.text,"xr",discard,"?data@?$storage_type@V?$extent_type@$05@details@gsl@@@?$span@H$05@gsl@@QEBAPEAHXZ"
	.seh_endproc
                                        # -- End function
	.def	 "??$?0_J@?$storage_type@V?$extent_type@$0?0@details@gsl@@@?$span@H$0?0@gsl@@QEAA@PEAH_J@Z";
	.scl	2;
	.type	32;
	.endef
	.section	.text,"xr",discard,"??$?0_J@?$storage_type@V?$extent_type@$0?0@details@gsl@@@?$span@H$0?0@gsl@@QEAA@PEAH_J@Z"
	.globl	"??$?0_J@?$storage_type@V?$extent_type@$0?0@details@gsl@@@?$span@H$0?0@gsl@@QEAA@PEAH_J@Z" # -- Begin function ??$?0_J@?$storage_type@V?$extent_type@$0?0@details@gsl@@@?$span@H$0?0@gsl@@QEAA@PEAH_J@Z
	.p2align	4, 0x90
"??$?0_J@?$storage_type@V?$extent_type@$0?0@details@gsl@@@?$span@H$0?0@gsl@@QEAA@PEAH_J@Z": # @"??$?0_J@?$storage_type@V?$extent_type@$0?0@details@gsl@@@?$span@H$0?0@gsl@@QEAA@PEAH_J@Z"
.Lfunc_begin90:
	.cv_func_id 90
	.cv_loc	90 2 597 0              # ..\include\gsl/span:597:0
.seh_proc "??$?0_J@?$storage_type@V?$extent_type@$0?0@details@gsl@@@?$span@H$0?0@gsl@@QEAA@PEAH_J@Z"
	.seh_handler __CxxFrameHandler3, @unwind, @except
# %bb.0:
	push	rbp
	.seh_pushreg 5
	sub	rsp, 192
	.seh_stackalloc 192
	lea	rbp, [rsp + 128]
	.seh_setframe 5, 128
	.seh_endprologue
	mov	qword ptr [rbp + 56], -2
	mov	qword ptr [rbp + 40], r8
	mov	qword ptr [rbp + 32], rdx
	mov	qword ptr [rbp + 24], rcx
	mov	rcx, qword ptr [rbp + 24]
	mov	qword ptr [rbp + 48], rcx
.Ltmp357:
	mov	rdx, rcx
	mov	r8, qword ptr [rbp + 40]
	mov	qword ptr [rbp - 48], rcx # 8-byte Spill
	mov	rcx, rdx
	mov	rdx, r8
	call	"??0?$extent_type@$0?0@details@gsl@@QEAA@_J@Z"
	mov	rcx, qword ptr [rbp + 32]
	mov	rdx, qword ptr [rbp - 48] # 8-byte Reload
	mov	qword ptr [rdx + 8], rcx
.Ltmp358:
	.cv_loc	90 2 598 0              # ..\include\gsl/span:598:0
	mov	rcx, rdx
	mov	qword ptr [rbp - 56], rax # 8-byte Spill
	call	"?size@?$extent_type@$0?0@details@gsl@@QEBA_JXZ"
	cmp	rax, 0
	setge	r9b
	mov	byte ptr [rbp - 1], 0
	test	r9b, 1
	jne	.LBB90_1
	jmp	.LBB90_2
.LBB90_1:
	test	byte ptr [rbp - 1], 1
	jne	.LBB90_4
	jmp	.LBB90_5
.LBB90_2:
	lea	rdx, [rip + "??_C@_0DG@PPPKJHO@GSL?3?5Precondition?5failure?5at?5?4?4?2@"]
	mov	rax, rbp
	mov	rcx, rax
	mov	qword ptr [rbp - 64], rax # 8-byte Spill
	call	"??0fail_fast@gsl@@QEAA@QEBD@Z"
	mov	byte ptr [rbp - 1], 1
.Ltmp353:
	mov	rcx, qword ptr [rbp - 64] # 8-byte Reload
	mov	qword ptr [rbp - 72], rax # 8-byte Spill
	call	"??$throw_exception@Ufail_fast@gsl@@@details@gsl@@YAX$$QEAUfail_fast@1@@Z"
.Ltmp354:
	jmp	.LBB90_3
.LBB90_3:
	ud2
.LBB90_4:
	mov	rcx, rbp
	call	"??1fail_fast@gsl@@UEAA@XZ"
.LBB90_5:
	.cv_loc	90 2 599 0              # ..\include\gsl/span:599:0
	mov	rax, qword ptr [rbp + 32]
	mov	byte ptr [rbp - 33], 0
	cmp	rax, 0
	mov	cl, 1
	mov	byte ptr [rbp - 73], cl # 1-byte Spill
	jne	.LBB90_7
# %bb.6:
	mov	rax, qword ptr [rbp - 48] # 8-byte Reload
	mov	rcx, rax
	call	"?size@?$extent_type@$0?0@details@gsl@@QEBA_JXZ"
	cmp	rax, 0
	sete	dl
	mov	byte ptr [rbp - 73], dl # 1-byte Spill
.LBB90_7:
	mov	al, byte ptr [rbp - 73] # 1-byte Reload
	test	al, 1
	jne	.LBB90_8
	jmp	.LBB90_9
.LBB90_8:
	test	byte ptr [rbp - 33], 1
	jne	.LBB90_14
	jmp	.LBB90_15
.LBB90_9:
	lea	rdx, [rip + "??_C@_0DG@BGOEJIDP@GSL?3?5Precondition?5failure?5at?5?4?4?2@"]
	lea	rax, [rbp - 32]
	mov	rcx, rax
	mov	qword ptr [rbp - 88], rax # 8-byte Spill
	call	"??0fail_fast@gsl@@QEAA@QEBD@Z"
	mov	byte ptr [rbp - 33], 1
.Ltmp355:
	mov	rcx, qword ptr [rbp - 88] # 8-byte Reload
	mov	qword ptr [rbp - 96], rax # 8-byte Spill
	call	"??$throw_exception@Ufail_fast@gsl@@@details@gsl@@YAX$$QEAUfail_fast@1@@Z"
.Ltmp356:
	jmp	.LBB90_10
.LBB90_10:
	ud2
.LBB90_14:
	lea	rcx, [rbp - 32]
	call	"??1fail_fast@gsl@@UEAA@XZ"
.Ltmp359:
.LBB90_15:
	.cv_loc	90 2 600 0              # ..\include\gsl/span:600:0
	mov	rax, qword ptr [rbp + 48]
	add	rsp, 192
	pop	rbp
	ret
	.seh_handlerdata
	.long	("$cppxdata$??$?0_J@?$storage_type@V?$extent_type@$0?0@details@gsl@@@?$span@H$0?0@gsl@@QEAA@PEAH_J@Z")@IMGREL
	.section	.text,"xr",discard,"??$?0_J@?$storage_type@V?$extent_type@$0?0@details@gsl@@@?$span@H$0?0@gsl@@QEAA@PEAH_J@Z"
	.seh_endproc
	.def	 "?dtor$11@?0???$?0_J@?$storage_type@V?$extent_type@$0?0@details@gsl@@@?$span@H$0?0@gsl@@QEAA@PEAH_J@Z@4HA";
	.scl	3;
	.type	32;
	.endef
	.p2align	4, 0x90
"?dtor$11@?0???$?0_J@?$storage_type@V?$extent_type@$0?0@details@gsl@@@?$span@H$0?0@gsl@@QEAA@PEAH_J@Z@4HA":
.seh_proc "?dtor$11@?0???$?0_J@?$storage_type@V?$extent_type@$0?0@details@gsl@@@?$span@H$0?0@gsl@@QEAA@PEAH_J@Z@4HA"
.LBB90_11:
	mov	qword ptr [rsp + 16], rdx
	push	rbp
	.seh_pushreg 5
	sub	rsp, 32
	.seh_stackalloc 32
	lea	rbp, [rdx + 128]
	.seh_endprologue
.Ltmp360:
	.cv_loc	90 2 598 0              # ..\include\gsl/span:598:0
	test	byte ptr [rbp - 1], 1
	jne	.LBB90_12
	jmp	.LBB90_13
.LBB90_12:
	mov	rcx, rbp
	call	"??1fail_fast@gsl@@UEAA@XZ"
.LBB90_13:
	nop
	add	rsp, 32
	pop	rbp
	ret                             # CLEANUPRET
	.seh_handlerdata
	.section	.text,"xr",discard,"??$?0_J@?$storage_type@V?$extent_type@$0?0@details@gsl@@@?$span@H$0?0@gsl@@QEAA@PEAH_J@Z"
	.seh_endproc
	.def	 "?dtor$16@?0???$?0_J@?$storage_type@V?$extent_type@$0?0@details@gsl@@@?$span@H$0?0@gsl@@QEAA@PEAH_J@Z@4HA";
	.scl	3;
	.type	32;
	.endef
	.p2align	4, 0x90
"?dtor$16@?0???$?0_J@?$storage_type@V?$extent_type@$0?0@details@gsl@@@?$span@H$0?0@gsl@@QEAA@PEAH_J@Z@4HA":
.seh_proc "?dtor$16@?0???$?0_J@?$storage_type@V?$extent_type@$0?0@details@gsl@@@?$span@H$0?0@gsl@@QEAA@PEAH_J@Z@4HA"
.LBB90_16:
	mov	qword ptr [rsp + 16], rdx
	push	rbp
	.seh_pushreg 5
	sub	rsp, 32
	.seh_stackalloc 32
	lea	rbp, [rdx + 128]
	.seh_endprologue
	.cv_loc	90 2 599 0              # ..\include\gsl/span:599:0
	test	byte ptr [rbp - 33], 1
	jne	.LBB90_17
	jmp	.LBB90_18
.LBB90_17:
	lea	rcx, [rbp - 32]
	call	"??1fail_fast@gsl@@UEAA@XZ"
.LBB90_18:
	nop
	add	rsp, 32
	pop	rbp
	ret                             # CLEANUPRET
.Ltmp361:
.Lfunc_end90:
	.seh_handlerdata
	.section	.text,"xr",discard,"??$?0_J@?$storage_type@V?$extent_type@$0?0@details@gsl@@@?$span@H$0?0@gsl@@QEAA@PEAH_J@Z"
	.seh_endproc
	.section	.xdata,"dr",associative,"??$?0_J@?$storage_type@V?$extent_type@$0?0@details@gsl@@@?$span@H$0?0@gsl@@QEAA@PEAH_J@Z"
	.p2align	2
"$cppxdata$??$?0_J@?$storage_type@V?$extent_type@$0?0@details@gsl@@@?$span@H$0?0@gsl@@QEAA@PEAH_J@Z":
	.long	429065506               # MagicNumber
	.long	2                       # MaxState
	.long	("$stateUnwindMap$??$?0_J@?$storage_type@V?$extent_type@$0?0@details@gsl@@@?$span@H$0?0@gsl@@QEAA@PEAH_J@Z")@IMGREL # UnwindMap
	.long	0                       # NumTryBlocks
	.long	0                       # TryBlockMap
	.long	5                       # IPMapEntries
	.long	("$ip2state$??$?0_J@?$storage_type@V?$extent_type@$0?0@details@gsl@@@?$span@H$0?0@gsl@@QEAA@PEAH_J@Z")@IMGREL # IPToStateXData
	.long	184                     # UnwindHelp
	.long	0                       # ESTypeList
	.long	1                       # EHFlags
"$stateUnwindMap$??$?0_J@?$storage_type@V?$extent_type@$0?0@details@gsl@@@?$span@H$0?0@gsl@@QEAA@PEAH_J@Z":
	.long	-1                      # ToState
	.long	"?dtor$11@?0???$?0_J@?$storage_type@V?$extent_type@$0?0@details@gsl@@@?$span@H$0?0@gsl@@QEAA@PEAH_J@Z@4HA"@IMGREL # Action
	.long	-1                      # ToState
	.long	"?dtor$16@?0???$?0_J@?$storage_type@V?$extent_type@$0?0@details@gsl@@@?$span@H$0?0@gsl@@QEAA@PEAH_J@Z@4HA"@IMGREL # Action
"$ip2state$??$?0_J@?$storage_type@V?$extent_type@$0?0@details@gsl@@@?$span@H$0?0@gsl@@QEAA@PEAH_J@Z":
	.long	.Lfunc_begin90@IMGREL   # IP
	.long	-1                      # ToState
	.long	.Ltmp353@IMGREL+1       # IP
	.long	0                       # ToState
	.long	.Ltmp354@IMGREL+1       # IP
	.long	-1                      # ToState
	.long	.Ltmp355@IMGREL+1       # IP
	.long	1                       # ToState
	.long	.Ltmp356@IMGREL+1       # IP
	.long	-1                      # ToState
	.section	.text,"xr",discard,"??$?0_J@?$storage_type@V?$extent_type@$0?0@details@gsl@@@?$span@H$0?0@gsl@@QEAA@PEAH_J@Z"
                                        # -- End function
	.def	 "??0?$extent_type@$0?0@details@gsl@@QEAA@_J@Z";
	.scl	2;
	.type	32;
	.endef
	.section	.text,"xr",discard,"??0?$extent_type@$0?0@details@gsl@@QEAA@_J@Z"
	.globl	"??0?$extent_type@$0?0@details@gsl@@QEAA@_J@Z" # -- Begin function ??0?$extent_type@$0?0@details@gsl@@QEAA@_J@Z
	.p2align	4, 0x90
"??0?$extent_type@$0?0@details@gsl@@QEAA@_J@Z": # @"??0?$extent_type@$0?0@details@gsl@@QEAA@_J@Z"
.Lfunc_begin91:
	.cv_func_id 91
	.cv_loc	91 2 336 0              # ..\include\gsl/span:336:0
.seh_proc "??0?$extent_type@$0?0@details@gsl@@QEAA@_J@Z"
	.seh_handler __CxxFrameHandler3, @unwind, @except
# %bb.0:
	push	rbp
	.seh_pushreg 5
	sub	rsp, 112
	.seh_stackalloc 112
	lea	rbp, [rsp + 112]
	.seh_setframe 5, 112
	.seh_endprologue
	mov	qword ptr [rbp - 8], -2
	mov	qword ptr [rbp - 24], rdx
	mov	qword ptr [rbp - 32], rcx
	mov	rcx, qword ptr [rbp - 32]
	mov	qword ptr [rbp - 16], rcx
.Ltmp364:
	mov	rdx, qword ptr [rbp - 24]
	mov	qword ptr [rcx], rdx
.Ltmp365:
	.cv_loc	91 2 336 0              # ..\include\gsl/span:336:0
	cmp	qword ptr [rbp - 24], 0
	setge	al
	mov	byte ptr [rbp - 57], 0
	test	al, 1
	jne	.LBB91_1
	jmp	.LBB91_2
.LBB91_1:
	test	byte ptr [rbp - 57], 1
	jne	.LBB91_4
	jmp	.LBB91_5
.LBB91_2:
	lea	rdx, [rip + "??_C@_0DG@LJIAFOPK@GSL?3?5Precondition?5failure?5at?5?4?4?2@"]
	lea	rax, [rbp - 56]
	mov	rcx, rax
	mov	qword ptr [rbp - 72], rax # 8-byte Spill
	call	"??0fail_fast@gsl@@QEAA@QEBD@Z"
	mov	byte ptr [rbp - 57], 1
.Ltmp362:
	mov	rcx, qword ptr [rbp - 72] # 8-byte Reload
	mov	qword ptr [rbp - 80], rax # 8-byte Spill
	call	"??$throw_exception@Ufail_fast@gsl@@@details@gsl@@YAX$$QEAUfail_fast@1@@Z"
.Ltmp363:
	jmp	.LBB91_3
.LBB91_3:
	ud2
.LBB91_4:
	lea	rcx, [rbp - 56]
	call	"??1fail_fast@gsl@@UEAA@XZ"
.Ltmp366:
.LBB91_5:
	.cv_loc	91 2 336 0              # ..\include\gsl/span:336:0
	mov	rax, qword ptr [rbp - 16]
	add	rsp, 112
	pop	rbp
	ret
	.seh_handlerdata
	.long	("$cppxdata$??0?$extent_type@$0?0@details@gsl@@QEAA@_J@Z")@IMGREL
	.section	.text,"xr",discard,"??0?$extent_type@$0?0@details@gsl@@QEAA@_J@Z"
	.seh_endproc
	.def	 "?dtor$6@?0???0?$extent_type@$0?0@details@gsl@@QEAA@_J@Z@4HA";
	.scl	3;
	.type	32;
	.endef
	.p2align	4, 0x90
"?dtor$6@?0???0?$extent_type@$0?0@details@gsl@@QEAA@_J@Z@4HA":
.seh_proc "?dtor$6@?0???0?$extent_type@$0?0@details@gsl@@QEAA@_J@Z@4HA"
.LBB91_6:
	mov	qword ptr [rsp + 16], rdx
	push	rbp
	.seh_pushreg 5
	sub	rsp, 32
	.seh_stackalloc 32
	lea	rbp, [rdx + 112]
	.seh_endprologue
.Ltmp367:
	.cv_loc	91 2 336 0              # ..\include\gsl/span:336:0
	test	byte ptr [rbp - 57], 1
	jne	.LBB91_7
	jmp	.LBB91_8
.LBB91_7:
	lea	rcx, [rbp - 56]
	call	"??1fail_fast@gsl@@UEAA@XZ"
.LBB91_8:
	nop
	add	rsp, 32
	pop	rbp
	ret                             # CLEANUPRET
.Ltmp368:
.Lfunc_end91:
	.seh_handlerdata
	.section	.text,"xr",discard,"??0?$extent_type@$0?0@details@gsl@@QEAA@_J@Z"
	.seh_endproc
	.section	.xdata,"dr",associative,"??0?$extent_type@$0?0@details@gsl@@QEAA@_J@Z"
	.p2align	2
"$cppxdata$??0?$extent_type@$0?0@details@gsl@@QEAA@_J@Z":
	.long	429065506               # MagicNumber
	.long	1                       # MaxState
	.long	("$stateUnwindMap$??0?$extent_type@$0?0@details@gsl@@QEAA@_J@Z")@IMGREL # UnwindMap
	.long	0                       # NumTryBlocks
	.long	0                       # TryBlockMap
	.long	3                       # IPMapEntries
	.long	("$ip2state$??0?$extent_type@$0?0@details@gsl@@QEAA@_J@Z")@IMGREL # IPToStateXData
	.long	104                     # UnwindHelp
	.long	0                       # ESTypeList
	.long	1                       # EHFlags
"$stateUnwindMap$??0?$extent_type@$0?0@details@gsl@@QEAA@_J@Z":
	.long	-1                      # ToState
	.long	"?dtor$6@?0???0?$extent_type@$0?0@details@gsl@@QEAA@_J@Z@4HA"@IMGREL # Action
"$ip2state$??0?$extent_type@$0?0@details@gsl@@QEAA@_J@Z":
	.long	.Lfunc_begin91@IMGREL   # IP
	.long	-1                      # ToState
	.long	.Ltmp362@IMGREL+1       # IP
	.long	0                       # ToState
	.long	.Ltmp363@IMGREL+1       # IP
	.long	-1                      # ToState
	.section	.text,"xr",discard,"??0?$extent_type@$0?0@details@gsl@@QEAA@_J@Z"
                                        # -- End function
	.def	 "?make_subspan@?$span@H$0?0@gsl@@AEBA?AV12@_J0V?$subspan_selector@$0?0@12@@Z";
	.scl	2;
	.type	32;
	.endef
	.section	.text,"xr",discard,"?make_subspan@?$span@H$0?0@gsl@@AEBA?AV12@_J0V?$subspan_selector@$0?0@12@@Z"
	.globl	"?make_subspan@?$span@H$0?0@gsl@@AEBA?AV12@_J0V?$subspan_selector@$0?0@12@@Z" # -- Begin function ?make_subspan@?$span@H$0?0@gsl@@AEBA?AV12@_J0V?$subspan_selector@$0?0@12@@Z
	.p2align	4, 0x90
"?make_subspan@?$span@H$0?0@gsl@@AEBA?AV12@_J0V?$subspan_selector@$0?0@12@@Z": # @"?make_subspan@?$span@H$0?0@gsl@@AEBA?AV12@_J0V?$subspan_selector@$0?0@12@@Z"
.Lfunc_begin92:
	.cv_func_id 92
	.cv_loc	92 2 630 0              # ..\include\gsl/span:630:0
.seh_proc "?make_subspan@?$span@H$0?0@gsl@@AEBA?AV12@_J0V?$subspan_selector@$0?0@12@@Z"
	.seh_handler __CxxFrameHandler3, @unwind, @except
# %bb.0:
	push	rbp
	.seh_pushreg 5
	push	rbx
	.seh_pushreg 3
	sub	rsp, 248
	.seh_stackalloc 248
	lea	rbp, [rsp + 128]
	.seh_setframe 5, 128
	.seh_endprologue
	mov	qword ptr [rbp + 112], -2
	mov	rax, rdx
	mov	r10b, byte ptr [rbp + 176]
	xor	r11d, r11d
	mov	bl, r11b
	mov	byte ptr [rbp + 104], r10b
	mov	qword ptr [rbp + 96], r9
	mov	qword ptr [rbp + 88], r8
	mov	qword ptr [rbp + 80], rcx
	mov	rcx, qword ptr [rbp + 80]
.Ltmp373:
	.cv_loc	92 2 631 0              # ..\include\gsl/span:631:0
	mov	r8, qword ptr [rbp + 88]
	mov	byte ptr [rbp + 55], 0
	cmp	r8, 0
	mov	qword ptr [rbp - 8], rcx # 8-byte Spill
	mov	qword ptr [rbp - 16], rdx # 8-byte Spill
	mov	qword ptr [rbp - 24], rax # 8-byte Spill
	mov	byte ptr [rbp - 25], bl # 1-byte Spill
	jl	.LBB92_2
# %bb.1:
	mov	rcx, qword ptr [rbp - 8] # 8-byte Reload
	call	"?size@?$span@H$0?0@gsl@@QEBA_JXZ"
	sub	rax, qword ptr [rbp + 88]
	cmp	rax, 0
	setge	dl
	mov	byte ptr [rbp - 25], dl # 1-byte Spill
.LBB92_2:
	mov	al, byte ptr [rbp - 25] # 1-byte Reload
	test	al, 1
	jne	.LBB92_3
	jmp	.LBB92_4
.LBB92_3:
	test	byte ptr [rbp + 55], 1
	jne	.LBB92_6
	jmp	.LBB92_7
.LBB92_4:
	lea	rdx, [rip + "??_C@_0DG@MBBPDIAP@GSL?3?5Precondition?5failure?5at?5?4?4?2@"]
	lea	rax, [rbp + 56]
	mov	rcx, rax
	mov	qword ptr [rbp - 40], rax # 8-byte Spill
	call	"??0fail_fast@gsl@@QEAA@QEBD@Z"
	mov	byte ptr [rbp + 55], 1
.Ltmp369:
	mov	rcx, qword ptr [rbp - 40] # 8-byte Reload
	mov	qword ptr [rbp - 48], rax # 8-byte Spill
	call	"??$throw_exception@Ufail_fast@gsl@@@details@gsl@@YAX$$QEAUfail_fast@1@@Z"
.Ltmp370:
	jmp	.LBB92_5
.LBB92_5:
	ud2
.LBB92_6:
	lea	rcx, [rbp + 56]
	call	"??1fail_fast@gsl@@UEAA@XZ"
.LBB92_7:
	.cv_loc	92 2 633 0              # ..\include\gsl/span:633:0
	cmp	qword ptr [rbp + 96], -1
	jne	.LBB92_12
# %bb.8:
.Ltmp374:
	.cv_loc	92 2 633 0              # ..\include\gsl/span:633:0
	mov	rcx, qword ptr [rbp - 8] # 8-byte Reload
	call	"?data@?$span@H$0?0@gsl@@QEBAPEAHXZ"
	mov	rcx, qword ptr [rbp + 88]
	shl	rcx, 2
	add	rax, rcx
	mov	qword ptr [rbp + 40], rax
	mov	rcx, qword ptr [rbp - 8] # 8-byte Reload
	call	"?size@?$span@H$0?0@gsl@@QEBA_JXZ"
	sub	rax, qword ptr [rbp + 88]
	mov	rdx, qword ptr [rbp + 40]
	mov	rcx, qword ptr [rbp - 16] # 8-byte Reload
	mov	r8, rax
	call	"??0?$span@H$0?0@gsl@@AEAA@UKnownNotNull@01@_J@Z"
	mov	qword ptr [rbp - 56], rax # 8-byte Spill
	jmp	.LBB92_23
.Ltmp375:
.LBB92_12:
	.cv_loc	92 2 635 0              # ..\include\gsl/span:635:0
	xor	eax, eax
	mov	cl, al
	mov	rdx, qword ptr [rbp + 96]
	mov	byte ptr [rbp + 15], 0
	cmp	rdx, 0
	mov	byte ptr [rbp - 57], cl # 1-byte Spill
	jl	.LBB92_14
# %bb.13:
	mov	rcx, qword ptr [rbp - 8] # 8-byte Reload
	call	"?size@?$span@H$0?0@gsl@@QEBA_JXZ"
	sub	rax, qword ptr [rbp + 88]
	cmp	rax, qword ptr [rbp + 96]
	setge	dl
	mov	byte ptr [rbp - 57], dl # 1-byte Spill
.LBB92_14:
	mov	al, byte ptr [rbp - 57] # 1-byte Reload
	test	al, 1
	jne	.LBB92_15
	jmp	.LBB92_16
.LBB92_15:
	test	byte ptr [rbp + 15], 1
	jne	.LBB92_18
	jmp	.LBB92_19
.LBB92_16:
	lea	rdx, [rip + "??_C@_0DG@KFHDPNAL@GSL?3?5Precondition?5failure?5at?5?4?4?2@"]
	lea	rax, [rbp + 16]
	mov	rcx, rax
	mov	qword ptr [rbp - 72], rax # 8-byte Spill
	call	"??0fail_fast@gsl@@QEAA@QEBD@Z"
	mov	byte ptr [rbp + 15], 1
.Ltmp371:
	mov	rcx, qword ptr [rbp - 72] # 8-byte Reload
	mov	qword ptr [rbp - 80], rax # 8-byte Spill
	call	"??$throw_exception@Ufail_fast@gsl@@@details@gsl@@YAX$$QEAUfail_fast@1@@Z"
.Ltmp372:
	jmp	.LBB92_17
.LBB92_17:
	ud2
.LBB92_18:
	lea	rcx, [rbp + 16]
	call	"??1fail_fast@gsl@@UEAA@XZ"
.LBB92_19:
	.cv_loc	92 2 636 0              # ..\include\gsl/span:636:0
	mov	rcx, qword ptr [rbp - 8] # 8-byte Reload
	call	"?data@?$span@H$0?0@gsl@@QEBAPEAHXZ"
	mov	rcx, qword ptr [rbp + 88]
	shl	rcx, 2
	add	rax, rcx
	mov	qword ptr [rbp], rax
	mov	r8, qword ptr [rbp + 96]
	mov	rdx, qword ptr [rbp]
	mov	rcx, qword ptr [rbp - 16] # 8-byte Reload
	call	"??0?$span@H$0?0@gsl@@AEAA@UKnownNotNull@01@_J@Z"
	mov	qword ptr [rbp - 88], rax # 8-byte Spill
	jmp	.LBB92_23
.LBB92_23:
	.cv_loc	92 2 637 0              # ..\include\gsl/span:637:0
	mov	rax, qword ptr [rbp - 24] # 8-byte Reload
	add	rsp, 248
	pop	rbx
	pop	rbp
	ret
	.seh_handlerdata
	.long	("$cppxdata$?make_subspan@?$span@H$0?0@gsl@@AEBA?AV12@_J0V?$subspan_selector@$0?0@12@@Z")@IMGREL
	.section	.text,"xr",discard,"?make_subspan@?$span@H$0?0@gsl@@AEBA?AV12@_J0V?$subspan_selector@$0?0@12@@Z"
	.seh_endproc
	.def	 "?dtor$9@?0??make_subspan@?$span@H$0?0@gsl@@AEBA?AV12@_J0V?$subspan_selector@$0?0@12@@Z@4HA";
	.scl	3;
	.type	32;
	.endef
	.p2align	4, 0x90
"?dtor$9@?0??make_subspan@?$span@H$0?0@gsl@@AEBA?AV12@_J0V?$subspan_selector@$0?0@12@@Z@4HA":
.seh_proc "?dtor$9@?0??make_subspan@?$span@H$0?0@gsl@@AEBA?AV12@_J0V?$subspan_selector@$0?0@12@@Z@4HA"
.LBB92_9:
	mov	qword ptr [rsp + 16], rdx
	push	rbp
	.seh_pushreg 5
	push	rbx
	.seh_pushreg 3
	sub	rsp, 40
	.seh_stackalloc 40
	lea	rbp, [rdx + 128]
	.seh_endprologue
	.cv_loc	92 2 631 0              # ..\include\gsl/span:631:0
	test	byte ptr [rbp + 55], 1
	jne	.LBB92_10
	jmp	.LBB92_11
.LBB92_10:
	lea	rcx, [rbp + 56]
	call	"??1fail_fast@gsl@@UEAA@XZ"
.LBB92_11:
	nop
	add	rsp, 40
	pop	rbx
	pop	rbp
	ret                             # CLEANUPRET
	.seh_handlerdata
	.section	.text,"xr",discard,"?make_subspan@?$span@H$0?0@gsl@@AEBA?AV12@_J0V?$subspan_selector@$0?0@12@@Z"
	.seh_endproc
	.def	 "?dtor$20@?0??make_subspan@?$span@H$0?0@gsl@@AEBA?AV12@_J0V?$subspan_selector@$0?0@12@@Z@4HA";
	.scl	3;
	.type	32;
	.endef
	.p2align	4, 0x90
"?dtor$20@?0??make_subspan@?$span@H$0?0@gsl@@AEBA?AV12@_J0V?$subspan_selector@$0?0@12@@Z@4HA":
.seh_proc "?dtor$20@?0??make_subspan@?$span@H$0?0@gsl@@AEBA?AV12@_J0V?$subspan_selector@$0?0@12@@Z@4HA"
.LBB92_20:
	mov	qword ptr [rsp + 16], rdx
	push	rbp
	.seh_pushreg 5
	push	rbx
	.seh_pushreg 3
	sub	rsp, 40
	.seh_stackalloc 40
	lea	rbp, [rdx + 128]
	.seh_endprologue
	.cv_loc	92 2 635 0              # ..\include\gsl/span:635:0
	test	byte ptr [rbp + 15], 1
	jne	.LBB92_21
	jmp	.LBB92_22
.LBB92_21:
	lea	rcx, [rbp + 16]
	call	"??1fail_fast@gsl@@UEAA@XZ"
.LBB92_22:
	nop
	add	rsp, 40
	pop	rbx
	pop	rbp
	ret                             # CLEANUPRET
.Ltmp376:
.Lfunc_end92:
	.seh_handlerdata
	.section	.text,"xr",discard,"?make_subspan@?$span@H$0?0@gsl@@AEBA?AV12@_J0V?$subspan_selector@$0?0@12@@Z"
	.seh_endproc
	.section	.xdata,"dr",associative,"?make_subspan@?$span@H$0?0@gsl@@AEBA?AV12@_J0V?$subspan_selector@$0?0@12@@Z"
	.p2align	2
"$cppxdata$?make_subspan@?$span@H$0?0@gsl@@AEBA?AV12@_J0V?$subspan_selector@$0?0@12@@Z":
	.long	429065506               # MagicNumber
	.long	2                       # MaxState
	.long	("$stateUnwindMap$?make_subspan@?$span@H$0?0@gsl@@AEBA?AV12@_J0V?$subspan_selector@$0?0@12@@Z")@IMGREL # UnwindMap
	.long	0                       # NumTryBlocks
	.long	0                       # TryBlockMap
	.long	5                       # IPMapEntries
	.long	("$ip2state$?make_subspan@?$span@H$0?0@gsl@@AEBA?AV12@_J0V?$subspan_selector@$0?0@12@@Z")@IMGREL # IPToStateXData
	.long	240                     # UnwindHelp
	.long	0                       # ESTypeList
	.long	1                       # EHFlags
"$stateUnwindMap$?make_subspan@?$span@H$0?0@gsl@@AEBA?AV12@_J0V?$subspan_selector@$0?0@12@@Z":
	.long	-1                      # ToState
	.long	"?dtor$9@?0??make_subspan@?$span@H$0?0@gsl@@AEBA?AV12@_J0V?$subspan_selector@$0?0@12@@Z@4HA"@IMGREL # Action
	.long	-1                      # ToState
	.long	"?dtor$20@?0??make_subspan@?$span@H$0?0@gsl@@AEBA?AV12@_J0V?$subspan_selector@$0?0@12@@Z@4HA"@IMGREL # Action
"$ip2state$?make_subspan@?$span@H$0?0@gsl@@AEBA?AV12@_J0V?$subspan_selector@$0?0@12@@Z":
	.long	.Lfunc_begin92@IMGREL   # IP
	.long	-1                      # ToState
	.long	.Ltmp369@IMGREL+1       # IP
	.long	0                       # ToState
	.long	.Ltmp370@IMGREL+1       # IP
	.long	-1                      # ToState
	.long	.Ltmp371@IMGREL+1       # IP
	.long	1                       # ToState
	.long	.Ltmp372@IMGREL+1       # IP
	.long	-1                      # ToState
	.section	.text,"xr",discard,"?make_subspan@?$span@H$0?0@gsl@@AEBA?AV12@_J0V?$subspan_selector@$0?0@12@@Z"
                                        # -- End function
	.def	 "??0?$span@H$0?0@gsl@@AEAA@UKnownNotNull@01@_J@Z";
	.scl	2;
	.type	32;
	.endef
	.section	.text,"xr",discard,"??0?$span@H$0?0@gsl@@AEAA@UKnownNotNull@01@_J@Z"
	.globl	"??0?$span@H$0?0@gsl@@AEAA@UKnownNotNull@01@_J@Z" # -- Begin function ??0?$span@H$0?0@gsl@@AEAA@UKnownNotNull@01@_J@Z
	.p2align	4, 0x90
"??0?$span@H$0?0@gsl@@AEAA@UKnownNotNull@01@_J@Z": # @"??0?$span@H$0?0@gsl@@AEAA@UKnownNotNull@01@_J@Z"
.Lfunc_begin93:
	.cv_func_id 93
	.cv_loc	93 2 612 0              # ..\include\gsl/span:612:0
.seh_proc "??0?$span@H$0?0@gsl@@AEAA@UKnownNotNull@01@_J@Z"
# %bb.0:
	sub	rsp, 88
	.seh_stackalloc 88
	.seh_endprologue
	mov	rax, qword ptr [rip + __security_cookie]
	xor	rax, rsp
	mov	qword ptr [rsp + 80], rax
	mov	qword ptr [rsp + 72], rdx
	mov	qword ptr [rsp + 56], r8
	mov	qword ptr [rsp + 48], rcx
	mov	rax, qword ptr [rsp + 48]
.Ltmp377:
	mov	r8, qword ptr [rsp + 56]
	mov	rcx, qword ptr [rsp + 72]
	mov	qword ptr [rsp + 64], rcx
	mov	rdx, qword ptr [rsp + 64]
	mov	rcx, rax
	mov	qword ptr [rsp + 40], rax # 8-byte Spill
	call	"??$?0_J@?$storage_type@V?$extent_type@$0?0@details@gsl@@@?$span@H$0?0@gsl@@QEAA@UKnownNotNull@12@_J@Z"
	mov	rcx, qword ptr [rsp + 80]
	xor	rcx, rsp
	mov	qword ptr [rsp + 32], rax # 8-byte Spill
	call	__security_check_cookie
	mov	rax, qword ptr [rsp + 40] # 8-byte Reload
	add	rsp, 88
	ret
.Ltmp378:
.Lfunc_end93:
	.seh_handlerdata
	.section	.text,"xr",discard,"??0?$span@H$0?0@gsl@@AEAA@UKnownNotNull@01@_J@Z"
	.seh_endproc
                                        # -- End function
	.def	 "??$?0_J@?$storage_type@V?$extent_type@$0?0@details@gsl@@@?$span@H$0?0@gsl@@QEAA@UKnownNotNull@12@_J@Z";
	.scl	2;
	.type	32;
	.endef
	.section	.text,"xr",discard,"??$?0_J@?$storage_type@V?$extent_type@$0?0@details@gsl@@@?$span@H$0?0@gsl@@QEAA@UKnownNotNull@12@_J@Z"
	.globl	"??$?0_J@?$storage_type@V?$extent_type@$0?0@details@gsl@@@?$span@H$0?0@gsl@@QEAA@UKnownNotNull@12@_J@Z" # -- Begin function ??$?0_J@?$storage_type@V?$extent_type@$0?0@details@gsl@@@?$span@H$0?0@gsl@@QEAA@UKnownNotNull@12@_J@Z
	.p2align	4, 0x90
"??$?0_J@?$storage_type@V?$extent_type@$0?0@details@gsl@@@?$span@H$0?0@gsl@@QEAA@UKnownNotNull@12@_J@Z": # @"??$?0_J@?$storage_type@V?$extent_type@$0?0@details@gsl@@@?$span@H$0?0@gsl@@QEAA@UKnownNotNull@12@_J@Z"
.Lfunc_begin94:
	.cv_func_id 94
	.cv_loc	94 2 591 0              # ..\include\gsl/span:591:0
.seh_proc "??$?0_J@?$storage_type@V?$extent_type@$0?0@details@gsl@@@?$span@H$0?0@gsl@@QEAA@UKnownNotNull@12@_J@Z"
	.seh_handler __CxxFrameHandler3, @unwind, @except
# %bb.0:
	push	rbp
	.seh_pushreg 5
	sub	rsp, 144
	.seh_stackalloc 144
	lea	rbp, [rsp + 128]
	.seh_setframe 5, 128
	.seh_endprologue
	mov	qword ptr [rbp + 8], -2
	mov	qword ptr [rbp - 8], rdx
	mov	qword ptr [rbp - 16], r8
	mov	qword ptr [rbp - 24], rcx
	mov	rcx, qword ptr [rbp - 24]
	mov	qword ptr [rbp], rcx
.Ltmp381:
	mov	rdx, rcx
	mov	r8, qword ptr [rbp - 16]
	mov	qword ptr [rbp - 64], rcx # 8-byte Spill
	mov	rcx, rdx
	mov	rdx, r8
	call	"??0?$extent_type@$0?0@details@gsl@@QEAA@_J@Z"
	mov	rcx, qword ptr [rbp - 8]
	mov	rdx, qword ptr [rbp - 64] # 8-byte Reload
	mov	qword ptr [rdx + 8], rcx
.Ltmp382:
	.cv_loc	94 2 592 0              # ..\include\gsl/span:592:0
	mov	rcx, rdx
	mov	qword ptr [rbp - 72], rax # 8-byte Spill
	call	"?size@?$extent_type@$0?0@details@gsl@@QEBA_JXZ"
	cmp	rax, 0
	setge	r9b
	mov	byte ptr [rbp - 49], 0
	test	r9b, 1
	jne	.LBB94_1
	jmp	.LBB94_2
.LBB94_1:
	test	byte ptr [rbp - 49], 1
	jne	.LBB94_4
	jmp	.LBB94_5
.LBB94_2:
	lea	rdx, [rip + "??_C@_0DG@PFBAEBPE@GSL?3?5Precondition?5failure?5at?5?4?4?2@"]
	lea	rax, [rbp - 48]
	mov	rcx, rax
	mov	qword ptr [rbp - 80], rax # 8-byte Spill
	call	"??0fail_fast@gsl@@QEAA@QEBD@Z"
	mov	byte ptr [rbp - 49], 1
.Ltmp379:
	mov	rcx, qword ptr [rbp - 80] # 8-byte Reload
	mov	qword ptr [rbp - 88], rax # 8-byte Spill
	call	"??$throw_exception@Ufail_fast@gsl@@@details@gsl@@YAX$$QEAUfail_fast@1@@Z"
.Ltmp380:
	jmp	.LBB94_3
.LBB94_3:
	ud2
.LBB94_4:
	lea	rcx, [rbp - 48]
	call	"??1fail_fast@gsl@@UEAA@XZ"
.Ltmp383:
.LBB94_5:
	.cv_loc	94 2 593 0              # ..\include\gsl/span:593:0
	mov	rax, qword ptr [rbp]
	add	rsp, 144
	pop	rbp
	ret
	.seh_handlerdata
	.long	("$cppxdata$??$?0_J@?$storage_type@V?$extent_type@$0?0@details@gsl@@@?$span@H$0?0@gsl@@QEAA@UKnownNotNull@12@_J@Z")@IMGREL
	.section	.text,"xr",discard,"??$?0_J@?$storage_type@V?$extent_type@$0?0@details@gsl@@@?$span@H$0?0@gsl@@QEAA@UKnownNotNull@12@_J@Z"
	.seh_endproc
	.def	 "?dtor$6@?0???$?0_J@?$storage_type@V?$extent_type@$0?0@details@gsl@@@?$span@H$0?0@gsl@@QEAA@UKnownNotNull@12@_J@Z@4HA";
	.scl	3;
	.type	32;
	.endef
	.p2align	4, 0x90
"?dtor$6@?0???$?0_J@?$storage_type@V?$extent_type@$0?0@details@gsl@@@?$span@H$0?0@gsl@@QEAA@UKnownNotNull@12@_J@Z@4HA":
.seh_proc "?dtor$6@?0???$?0_J@?$storage_type@V?$extent_type@$0?0@details@gsl@@@?$span@H$0?0@gsl@@QEAA@UKnownNotNull@12@_J@Z@4HA"
.LBB94_6:
	mov	qword ptr [rsp + 16], rdx
	push	rbp
	.seh_pushreg 5
	sub	rsp, 32
	.seh_stackalloc 32
	lea	rbp, [rdx + 128]
	.seh_endprologue
.Ltmp384:
	.cv_loc	94 2 592 0              # ..\include\gsl/span:592:0
	test	byte ptr [rbp - 49], 1
	jne	.LBB94_7
	jmp	.LBB94_8
.LBB94_7:
	lea	rcx, [rbp - 48]
	call	"??1fail_fast@gsl@@UEAA@XZ"
.LBB94_8:
	nop
	add	rsp, 32
	pop	rbp
	ret                             # CLEANUPRET
.Ltmp385:
.Lfunc_end94:
	.seh_handlerdata
	.section	.text,"xr",discard,"??$?0_J@?$storage_type@V?$extent_type@$0?0@details@gsl@@@?$span@H$0?0@gsl@@QEAA@UKnownNotNull@12@_J@Z"
	.seh_endproc
	.section	.xdata,"dr",associative,"??$?0_J@?$storage_type@V?$extent_type@$0?0@details@gsl@@@?$span@H$0?0@gsl@@QEAA@UKnownNotNull@12@_J@Z"
	.p2align	2
"$cppxdata$??$?0_J@?$storage_type@V?$extent_type@$0?0@details@gsl@@@?$span@H$0?0@gsl@@QEAA@UKnownNotNull@12@_J@Z":
	.long	429065506               # MagicNumber
	.long	1                       # MaxState
	.long	("$stateUnwindMap$??$?0_J@?$storage_type@V?$extent_type@$0?0@details@gsl@@@?$span@H$0?0@gsl@@QEAA@UKnownNotNull@12@_J@Z")@IMGREL # UnwindMap
	.long	0                       # NumTryBlocks
	.long	0                       # TryBlockMap
	.long	3                       # IPMapEntries
	.long	("$ip2state$??$?0_J@?$storage_type@V?$extent_type@$0?0@details@gsl@@@?$span@H$0?0@gsl@@QEAA@UKnownNotNull@12@_J@Z")@IMGREL # IPToStateXData
	.long	136                     # UnwindHelp
	.long	0                       # ESTypeList
	.long	1                       # EHFlags
"$stateUnwindMap$??$?0_J@?$storage_type@V?$extent_type@$0?0@details@gsl@@@?$span@H$0?0@gsl@@QEAA@UKnownNotNull@12@_J@Z":
	.long	-1                      # ToState
	.long	"?dtor$6@?0???$?0_J@?$storage_type@V?$extent_type@$0?0@details@gsl@@@?$span@H$0?0@gsl@@QEAA@UKnownNotNull@12@_J@Z@4HA"@IMGREL # Action
"$ip2state$??$?0_J@?$storage_type@V?$extent_type@$0?0@details@gsl@@@?$span@H$0?0@gsl@@QEAA@UKnownNotNull@12@_J@Z":
	.long	.Lfunc_begin94@IMGREL   # IP
	.long	-1                      # ToState
	.long	.Ltmp379@IMGREL+1       # IP
	.long	0                       # ToState
	.long	.Ltmp380@IMGREL+1       # IP
	.long	-1                      # ToState
	.section	.text,"xr",discard,"??$?0_J@?$storage_type@V?$extent_type@$0?0@details@gsl@@@?$span@H$0?0@gsl@@QEAA@UKnownNotNull@12@_J@Z"
                                        # -- End function
	.def	 "??0?$extent_type@$0A@@details@gsl@@QEAA@XZ";
	.scl	2;
	.type	32;
	.endef
	.section	.text,"xr",discard,"??0?$extent_type@$0A@@details@gsl@@QEAA@XZ"
	.globl	"??0?$extent_type@$0A@@details@gsl@@QEAA@XZ" # -- Begin function ??0?$extent_type@$0A@@details@gsl@@QEAA@XZ
	.p2align	4, 0x90
"??0?$extent_type@$0A@@details@gsl@@QEAA@XZ": # @"??0?$extent_type@$0A@@details@gsl@@QEAA@XZ"
.Lfunc_begin95:
	.cv_func_id 95
	.cv_loc	95 2 311 0              # ..\include\gsl/span:311:0
.seh_proc "??0?$extent_type@$0A@@details@gsl@@QEAA@XZ"
# %bb.0:
	push	rax
	.seh_stackalloc 8
	.seh_endprologue
	mov	qword ptr [rsp], rcx
	mov	rax, qword ptr [rsp]
.Ltmp386:
	pop	rcx
	ret
.Ltmp387:
.Lfunc_end95:
	.seh_handlerdata
	.section	.text,"xr",discard,"??0?$extent_type@$0A@@details@gsl@@QEAA@XZ"
	.seh_endproc
                                        # -- End function
	.def	 "??$?0V?$extent_type@$0A@@details@gsl@@@?$storage_type@V?$extent_type@$0?0@details@gsl@@@?$span@H$0?0@gsl@@QEAA@PEAHV?$extent_type@$0A@@details@2@@Z";
	.scl	2;
	.type	32;
	.endef
	.section	.text,"xr",discard,"??$?0V?$extent_type@$0A@@details@gsl@@@?$storage_type@V?$extent_type@$0?0@details@gsl@@@?$span@H$0?0@gsl@@QEAA@PEAHV?$extent_type@$0A@@details@2@@Z"
	.globl	"??$?0V?$extent_type@$0A@@details@gsl@@@?$storage_type@V?$extent_type@$0?0@details@gsl@@@?$span@H$0?0@gsl@@QEAA@PEAHV?$extent_type@$0A@@details@2@@Z" # -- Begin function ??$?0V?$extent_type@$0A@@details@gsl@@@?$storage_type@V?$extent_type@$0?0@details@gsl@@@?$span@H$0?0@gsl@@QEAA@PEAHV?$extent_type@$0A@@details@2@@Z
	.p2align	4, 0x90
"??$?0V?$extent_type@$0A@@details@gsl@@@?$storage_type@V?$extent_type@$0?0@details@gsl@@@?$span@H$0?0@gsl@@QEAA@PEAHV?$extent_type@$0A@@details@2@@Z": # @"??$?0V?$extent_type@$0A@@details@gsl@@@?$storage_type@V?$extent_type@$0?0@details@gsl@@@?$span@H$0?0@gsl@@QEAA@PEAHV?$extent_type@$0A@@details@2@@Z"
.Lfunc_begin96:
	.cv_func_id 96
	.cv_loc	96 2 597 0              # ..\include\gsl/span:597:0
.seh_proc "??$?0V?$extent_type@$0A@@details@gsl@@@?$storage_type@V?$extent_type@$0?0@details@gsl@@@?$span@H$0?0@gsl@@QEAA@PEAHV?$extent_type@$0A@@details@2@@Z"
	.seh_handler __CxxFrameHandler3, @unwind, @except
# %bb.0:
	push	rbp
	.seh_pushreg 5
	sub	rsp, 208
	.seh_stackalloc 208
	lea	rbp, [rsp + 128]
	.seh_setframe 5, 128
	.seh_endprologue
	mov	qword ptr [rbp + 72], -2
	mov	byte ptr [rbp + 56], r8b
	mov	qword ptr [rbp + 48], rdx
	mov	qword ptr [rbp + 40], rcx
	mov	rcx, qword ptr [rbp + 40]
	mov	qword ptr [rbp + 64], rcx
.Ltmp392:
	mov	rdx, rcx
	mov	r8b, byte ptr [rbp + 32]
	mov	qword ptr [rbp - 40], rcx # 8-byte Spill
	mov	rcx, rdx
	mov	dl, r8b
	call	"??$?0$0A@@?$extent_type@$0?0@details@gsl@@QEAA@V?$extent_type@$0A@@12@@Z"
	mov	rcx, qword ptr [rbp + 48]
	mov	r9, qword ptr [rbp - 40] # 8-byte Reload
	mov	qword ptr [r9 + 8], rcx
.Ltmp393:
	.cv_loc	96 2 598 0              # ..\include\gsl/span:598:0
	mov	rcx, r9
	mov	qword ptr [rbp - 48], rax # 8-byte Spill
	call	"?size@?$extent_type@$0?0@details@gsl@@QEBA_JXZ"
	cmp	rax, 0
	setge	dl
	mov	byte ptr [rbp + 7], 0
	test	dl, 1
	jne	.LBB96_1
	jmp	.LBB96_2
.LBB96_1:
	test	byte ptr [rbp + 7], 1
	jne	.LBB96_4
	jmp	.LBB96_5
.LBB96_2:
	lea	rdx, [rip + "??_C@_0DG@PPPKJHO@GSL?3?5Precondition?5failure?5at?5?4?4?2@"]
	lea	rax, [rbp + 8]
	mov	rcx, rax
	mov	qword ptr [rbp - 56], rax # 8-byte Spill
	call	"??0fail_fast@gsl@@QEAA@QEBD@Z"
	mov	byte ptr [rbp + 7], 1
.Ltmp388:
	mov	rcx, qword ptr [rbp - 56] # 8-byte Reload
	mov	qword ptr [rbp - 64], rax # 8-byte Spill
	call	"??$throw_exception@Ufail_fast@gsl@@@details@gsl@@YAX$$QEAUfail_fast@1@@Z"
.Ltmp389:
	jmp	.LBB96_3
.LBB96_3:
	ud2
.LBB96_4:
	lea	rcx, [rbp + 8]
	call	"??1fail_fast@gsl@@UEAA@XZ"
.LBB96_5:
	.cv_loc	96 2 599 0              # ..\include\gsl/span:599:0
	mov	rax, qword ptr [rbp + 48]
	mov	byte ptr [rbp - 25], 0
	cmp	rax, 0
	mov	cl, 1
	mov	byte ptr [rbp - 65], cl # 1-byte Spill
	jne	.LBB96_7
# %bb.6:
	mov	rax, qword ptr [rbp - 40] # 8-byte Reload
	mov	rcx, rax
	call	"?size@?$extent_type@$0?0@details@gsl@@QEBA_JXZ"
	cmp	rax, 0
	sete	dl
	mov	byte ptr [rbp - 65], dl # 1-byte Spill
.LBB96_7:
	mov	al, byte ptr [rbp - 65] # 1-byte Reload
	test	al, 1
	jne	.LBB96_8
	jmp	.LBB96_9
.LBB96_8:
	test	byte ptr [rbp - 25], 1
	jne	.LBB96_14
	jmp	.LBB96_15
.LBB96_9:
	lea	rdx, [rip + "??_C@_0DG@BGOEJIDP@GSL?3?5Precondition?5failure?5at?5?4?4?2@"]
	lea	rax, [rbp - 24]
	mov	rcx, rax
	mov	qword ptr [rbp - 80], rax # 8-byte Spill
	call	"??0fail_fast@gsl@@QEAA@QEBD@Z"
	mov	byte ptr [rbp - 25], 1
.Ltmp390:
	mov	rcx, qword ptr [rbp - 80] # 8-byte Reload
	mov	qword ptr [rbp - 88], rax # 8-byte Spill
	call	"??$throw_exception@Ufail_fast@gsl@@@details@gsl@@YAX$$QEAUfail_fast@1@@Z"
.Ltmp391:
	jmp	.LBB96_10
.LBB96_10:
	ud2
.LBB96_14:
	lea	rcx, [rbp - 24]
	call	"??1fail_fast@gsl@@UEAA@XZ"
.Ltmp394:
.LBB96_15:
	.cv_loc	96 2 600 0              # ..\include\gsl/span:600:0
	mov	rax, qword ptr [rbp + 64]
	add	rsp, 208
	pop	rbp
	ret
	.seh_handlerdata
	.long	("$cppxdata$??$?0V?$extent_type@$0A@@details@gsl@@@?$storage_type@V?$extent_type@$0?0@details@gsl@@@?$span@H$0?0@gsl@@QEAA@PEAHV?$extent_type@$0A@@details@2@@Z")@IMGREL
	.section	.text,"xr",discard,"??$?0V?$extent_type@$0A@@details@gsl@@@?$storage_type@V?$extent_type@$0?0@details@gsl@@@?$span@H$0?0@gsl@@QEAA@PEAHV?$extent_type@$0A@@details@2@@Z"
	.seh_endproc
	.def	 "?dtor$11@?0???$?0V?$extent_type@$0A@@details@gsl@@@?$storage_type@V?$extent_type@$0?0@details@gsl@@@?$span@H$0?0@gsl@@QEAA@PEAHV?$extent_type@$0A@@details@2@@Z@4HA";
	.scl	3;
	.type	32;
	.endef
	.p2align	4, 0x90
"?dtor$11@?0???$?0V?$extent_type@$0A@@details@gsl@@@?$storage_type@V?$extent_type@$0?0@details@gsl@@@?$span@H$0?0@gsl@@QEAA@PEAHV?$extent_type@$0A@@details@2@@Z@4HA":
.seh_proc "?dtor$11@?0???$?0V?$extent_type@$0A@@details@gsl@@@?$storage_type@V?$extent_type@$0?0@details@gsl@@@?$span@H$0?0@gsl@@QEAA@PEAHV?$extent_type@$0A@@details@2@@Z@4HA"
.LBB96_11:
	mov	qword ptr [rsp + 16], rdx
	push	rbp
	.seh_pushreg 5
	sub	rsp, 32
	.seh_stackalloc 32
	lea	rbp, [rdx + 128]
	.seh_endprologue
.Ltmp395:
	.cv_loc	96 2 598 0              # ..\include\gsl/span:598:0
	test	byte ptr [rbp + 7], 1
	jne	.LBB96_12
	jmp	.LBB96_13
.LBB96_12:
	lea	rcx, [rbp + 8]
	call	"??1fail_fast@gsl@@UEAA@XZ"
.LBB96_13:
	nop
	add	rsp, 32
	pop	rbp
	ret                             # CLEANUPRET
	.seh_handlerdata
	.section	.text,"xr",discard,"??$?0V?$extent_type@$0A@@details@gsl@@@?$storage_type@V?$extent_type@$0?0@details@gsl@@@?$span@H$0?0@gsl@@QEAA@PEAHV?$extent_type@$0A@@details@2@@Z"
	.seh_endproc
	.def	 "?dtor$16@?0???$?0V?$extent_type@$0A@@details@gsl@@@?$storage_type@V?$extent_type@$0?0@details@gsl@@@?$span@H$0?0@gsl@@QEAA@PEAHV?$extent_type@$0A@@details@2@@Z@4HA";
	.scl	3;
	.type	32;
	.endef
	.p2align	4, 0x90
"?dtor$16@?0???$?0V?$extent_type@$0A@@details@gsl@@@?$storage_type@V?$extent_type@$0?0@details@gsl@@@?$span@H$0?0@gsl@@QEAA@PEAHV?$extent_type@$0A@@details@2@@Z@4HA":
.seh_proc "?dtor$16@?0???$?0V?$extent_type@$0A@@details@gsl@@@?$storage_type@V?$extent_type@$0?0@details@gsl@@@?$span@H$0?0@gsl@@QEAA@PEAHV?$extent_type@$0A@@details@2@@Z@4HA"
.LBB96_16:
	mov	qword ptr [rsp + 16], rdx
	push	rbp
	.seh_pushreg 5
	sub	rsp, 32
	.seh_stackalloc 32
	lea	rbp, [rdx + 128]
	.seh_endprologue
	.cv_loc	96 2 599 0              # ..\include\gsl/span:599:0
	test	byte ptr [rbp - 25], 1
	jne	.LBB96_17
	jmp	.LBB96_18
.LBB96_17:
	lea	rcx, [rbp - 24]
	call	"??1fail_fast@gsl@@UEAA@XZ"
.LBB96_18:
	nop
	add	rsp, 32
	pop	rbp
	ret                             # CLEANUPRET
.Ltmp396:
.Lfunc_end96:
	.seh_handlerdata
	.section	.text,"xr",discard,"??$?0V?$extent_type@$0A@@details@gsl@@@?$storage_type@V?$extent_type@$0?0@details@gsl@@@?$span@H$0?0@gsl@@QEAA@PEAHV?$extent_type@$0A@@details@2@@Z"
	.seh_endproc
	.section	.xdata,"dr",associative,"??$?0V?$extent_type@$0A@@details@gsl@@@?$storage_type@V?$extent_type@$0?0@details@gsl@@@?$span@H$0?0@gsl@@QEAA@PEAHV?$extent_type@$0A@@details@2@@Z"
	.p2align	2
"$cppxdata$??$?0V?$extent_type@$0A@@details@gsl@@@?$storage_type@V?$extent_type@$0?0@details@gsl@@@?$span@H$0?0@gsl@@QEAA@PEAHV?$extent_type@$0A@@details@2@@Z":
	.long	429065506               # MagicNumber
	.long	2                       # MaxState
	.long	("$stateUnwindMap$??$?0V?$extent_type@$0A@@details@gsl@@@?$storage_type@V?$extent_type@$0?0@details@gsl@@@?$span@H$0?0@gsl@@QEAA@PEAHV?$extent_type@$0A@@details@2@@Z")@IMGREL # UnwindMap
	.long	0                       # NumTryBlocks
	.long	0                       # TryBlockMap
	.long	5                       # IPMapEntries
	.long	("$ip2state$??$?0V?$extent_type@$0A@@details@gsl@@@?$storage_type@V?$extent_type@$0?0@details@gsl@@@?$span@H$0?0@gsl@@QEAA@PEAHV?$extent_type@$0A@@details@2@@Z")@IMGREL # IPToStateXData
	.long	200                     # UnwindHelp
	.long	0                       # ESTypeList
	.long	1                       # EHFlags
"$stateUnwindMap$??$?0V?$extent_type@$0A@@details@gsl@@@?$storage_type@V?$extent_type@$0?0@details@gsl@@@?$span@H$0?0@gsl@@QEAA@PEAHV?$extent_type@$0A@@details@2@@Z":
	.long	-1                      # ToState
	.long	"?dtor$11@?0???$?0V?$extent_type@$0A@@details@gsl@@@?$storage_type@V?$extent_type@$0?0@details@gsl@@@?$span@H$0?0@gsl@@QEAA@PEAHV?$extent_type@$0A@@details@2@@Z@4HA"@IMGREL # Action
	.long	-1                      # ToState
	.long	"?dtor$16@?0???$?0V?$extent_type@$0A@@details@gsl@@@?$storage_type@V?$extent_type@$0?0@details@gsl@@@?$span@H$0?0@gsl@@QEAA@PEAHV?$extent_type@$0A@@details@2@@Z@4HA"@IMGREL # Action
"$ip2state$??$?0V?$extent_type@$0A@@details@gsl@@@?$storage_type@V?$extent_type@$0?0@details@gsl@@@?$span@H$0?0@gsl@@QEAA@PEAHV?$extent_type@$0A@@details@2@@Z":
	.long	.Lfunc_begin96@IMGREL   # IP
	.long	-1                      # ToState
	.long	.Ltmp388@IMGREL+1       # IP
	.long	0                       # ToState
	.long	.Ltmp389@IMGREL+1       # IP
	.long	-1                      # ToState
	.long	.Ltmp390@IMGREL+1       # IP
	.long	1                       # ToState
	.long	.Ltmp391@IMGREL+1       # IP
	.long	-1                      # ToState
	.section	.text,"xr",discard,"??$?0V?$extent_type@$0A@@details@gsl@@@?$storage_type@V?$extent_type@$0?0@details@gsl@@@?$span@H$0?0@gsl@@QEAA@PEAHV?$extent_type@$0A@@details@2@@Z"
                                        # -- End function
	.def	 "??$?0$0A@@?$extent_type@$0?0@details@gsl@@QEAA@V?$extent_type@$0A@@12@@Z";
	.scl	2;
	.type	32;
	.endef
	.section	.text,"xr",discard,"??$?0$0A@@?$extent_type@$0?0@details@gsl@@QEAA@V?$extent_type@$0A@@12@@Z"
	.globl	"??$?0$0A@@?$extent_type@$0?0@details@gsl@@QEAA@V?$extent_type@$0A@@12@@Z" # -- Begin function ??$?0$0A@@?$extent_type@$0?0@details@gsl@@QEAA@V?$extent_type@$0A@@12@@Z
	.p2align	4, 0x90
"??$?0$0A@@?$extent_type@$0?0@details@gsl@@QEAA@V?$extent_type@$0A@@12@@Z": # @"??$?0$0A@@?$extent_type@$0?0@details@gsl@@QEAA@V?$extent_type@$0A@@12@@Z"
.Lfunc_begin97:
	.cv_func_id 97
	.cv_loc	97 2 334 0              # ..\include\gsl/span:334:0
.seh_proc "??$?0$0A@@?$extent_type@$0?0@details@gsl@@QEAA@V?$extent_type@$0A@@12@@Z"
# %bb.0:
	sub	rsp, 72
	.seh_stackalloc 72
	.seh_endprologue
	mov	rax, qword ptr [rip + __security_cookie]
	xor	rax, rsp
	mov	qword ptr [rsp + 64], rax
	mov	byte ptr [rsp + 56], dl
	mov	qword ptr [rsp + 48], rcx
	mov	rax, qword ptr [rsp + 48]
.Ltmp397:
	lea	rcx, [rsp + 56]
	#DEBUG_VALUE: extent_type<0>:ext <- [$rcx+0]
	mov	qword ptr [rsp + 40], rax # 8-byte Spill
	call	"?size@?$extent_type@$0A@@details@gsl@@QEBA_JXZ"
.Ltmp398:
	mov	rcx, qword ptr [rsp + 40] # 8-byte Reload
	mov	qword ptr [rcx], rax
	mov	rax, qword ptr [rsp + 64]
	xor	rax, rsp
	mov	rcx, rax
	call	__security_check_cookie
	mov	rax, qword ptr [rsp + 40] # 8-byte Reload
	add	rsp, 72
	ret
.Ltmp399:
.Lfunc_end97:
	.seh_handlerdata
	.section	.text,"xr",discard,"??$?0$0A@@?$extent_type@$0?0@details@gsl@@QEAA@V?$extent_type@$0A@@12@@Z"
	.seh_endproc
                                        # -- End function
	.def	 "?size@?$extent_type@$0A@@details@gsl@@QEBA_JXZ";
	.scl	2;
	.type	32;
	.endef
	.section	.text,"xr",discard,"?size@?$extent_type@$0A@@details@gsl@@QEBA_JXZ"
	.globl	"?size@?$extent_type@$0A@@details@gsl@@QEBA_JXZ" # -- Begin function ?size@?$extent_type@$0A@@details@gsl@@QEBA_JXZ
	.p2align	4, 0x90
"?size@?$extent_type@$0A@@details@gsl@@QEBA_JXZ": # @"?size@?$extent_type@$0A@@details@gsl@@QEBA_JXZ"
.Lfunc_begin98:
	.cv_func_id 98
	.cv_loc	98 2 323 0              # ..\include\gsl/span:323:0
.seh_proc "?size@?$extent_type@$0A@@details@gsl@@QEBA_JXZ"
# %bb.0:
	push	rax
	.seh_stackalloc 8
	.seh_endprologue
	xor	eax, eax
                                        # kill: def $rax killed $eax
	mov	qword ptr [rsp], rcx
.Ltmp400:
	pop	rcx
	ret
.Ltmp401:
.Lfunc_end98:
	.seh_handlerdata
	.section	.text,"xr",discard,"?size@?$extent_type@$0A@@details@gsl@@QEBA_JXZ"
	.seh_endproc
                                        # -- End function
	.def	 "??0?$extent_type@$09@details@gsl@@QEAA@XZ";
	.scl	2;
	.type	32;
	.endef
	.section	.text,"xr",discard,"??0?$extent_type@$09@details@gsl@@QEAA@XZ"
	.globl	"??0?$extent_type@$09@details@gsl@@QEAA@XZ" # -- Begin function ??0?$extent_type@$09@details@gsl@@QEAA@XZ
	.p2align	4, 0x90
"??0?$extent_type@$09@details@gsl@@QEAA@XZ": # @"??0?$extent_type@$09@details@gsl@@QEAA@XZ"
.Lfunc_begin99:
	.cv_func_id 99
	.cv_loc	99 2 311 0              # ..\include\gsl/span:311:0
.seh_proc "??0?$extent_type@$09@details@gsl@@QEAA@XZ"
# %bb.0:
	push	rax
	.seh_stackalloc 8
	.seh_endprologue
	mov	qword ptr [rsp], rcx
	mov	rax, qword ptr [rsp]
.Ltmp402:
	pop	rcx
	ret
.Ltmp403:
.Lfunc_end99:
	.seh_handlerdata
	.section	.text,"xr",discard,"??0?$extent_type@$09@details@gsl@@QEAA@XZ"
	.seh_endproc
                                        # -- End function
	.def	 "??$?0V?$extent_type@$09@details@gsl@@@?$storage_type@V?$extent_type@$0?0@details@gsl@@@?$span@E$0?0@gsl@@QEAA@UKnownNotNull@12@V?$extent_type@$09@details@2@@Z";
	.scl	2;
	.type	32;
	.endef
	.section	.text,"xr",discard,"??$?0V?$extent_type@$09@details@gsl@@@?$storage_type@V?$extent_type@$0?0@details@gsl@@@?$span@E$0?0@gsl@@QEAA@UKnownNotNull@12@V?$extent_type@$09@details@2@@Z"
	.globl	"??$?0V?$extent_type@$09@details@gsl@@@?$storage_type@V?$extent_type@$0?0@details@gsl@@@?$span@E$0?0@gsl@@QEAA@UKnownNotNull@12@V?$extent_type@$09@details@2@@Z" # -- Begin function ??$?0V?$extent_type@$09@details@gsl@@@?$storage_type@V?$extent_type@$0?0@details@gsl@@@?$span@E$0?0@gsl@@QEAA@UKnownNotNull@12@V?$extent_type@$09@details@2@@Z
	.p2align	4, 0x90
"??$?0V?$extent_type@$09@details@gsl@@@?$storage_type@V?$extent_type@$0?0@details@gsl@@@?$span@E$0?0@gsl@@QEAA@UKnownNotNull@12@V?$extent_type@$09@details@2@@Z": # @"??$?0V?$extent_type@$09@details@gsl@@@?$storage_type@V?$extent_type@$0?0@details@gsl@@@?$span@E$0?0@gsl@@QEAA@UKnownNotNull@12@V?$extent_type@$09@details@2@@Z"
.Lfunc_begin100:
	.cv_func_id 100
	.cv_loc	100 2 591 0             # ..\include\gsl/span:591:0
.seh_proc "??$?0V?$extent_type@$09@details@gsl@@@?$storage_type@V?$extent_type@$0?0@details@gsl@@@?$span@E$0?0@gsl@@QEAA@UKnownNotNull@12@V?$extent_type@$09@details@2@@Z"
	.seh_handler __CxxFrameHandler3, @unwind, @except
# %bb.0:
	push	rbp
	.seh_pushreg 5
	sub	rsp, 144
	.seh_stackalloc 144
	lea	rbp, [rsp + 128]
	.seh_setframe 5, 128
	.seh_endprologue
	mov	qword ptr [rbp + 8], -2
	mov	qword ptr [rbp - 8], rdx
	mov	byte ptr [rbp - 16], r8b
	mov	qword ptr [rbp - 24], rcx
	mov	rcx, qword ptr [rbp - 24]
	mov	qword ptr [rbp], rcx
.Ltmp406:
	mov	rdx, rcx
	mov	r8b, byte ptr [rbp - 32]
	mov	qword ptr [rbp - 72], rcx # 8-byte Spill
	mov	rcx, rdx
	mov	dl, r8b
	call	"??$?0$09@?$extent_type@$0?0@details@gsl@@QEAA@V?$extent_type@$09@12@@Z"
	mov	rcx, qword ptr [rbp - 8]
	mov	r9, qword ptr [rbp - 72] # 8-byte Reload
	mov	qword ptr [r9 + 8], rcx
.Ltmp407:
	.cv_loc	100 2 592 0             # ..\include\gsl/span:592:0
	mov	rcx, r9
	mov	qword ptr [rbp - 80], rax # 8-byte Spill
	call	"?size@?$extent_type@$0?0@details@gsl@@QEBA_JXZ"
	cmp	rax, 0
	setge	dl
	mov	byte ptr [rbp - 57], 0
	test	dl, 1
	jne	.LBB100_1
	jmp	.LBB100_2
.LBB100_1:
	test	byte ptr [rbp - 57], 1
	jne	.LBB100_4
	jmp	.LBB100_5
.LBB100_2:
	lea	rdx, [rip + "??_C@_0DG@PFBAEBPE@GSL?3?5Precondition?5failure?5at?5?4?4?2@"]
	lea	rax, [rbp - 56]
	mov	rcx, rax
	mov	qword ptr [rbp - 88], rax # 8-byte Spill
	call	"??0fail_fast@gsl@@QEAA@QEBD@Z"
	mov	byte ptr [rbp - 57], 1
.Ltmp404:
	mov	rcx, qword ptr [rbp - 88] # 8-byte Reload
	mov	qword ptr [rbp - 96], rax # 8-byte Spill
	call	"??$throw_exception@Ufail_fast@gsl@@@details@gsl@@YAX$$QEAUfail_fast@1@@Z"
.Ltmp405:
	jmp	.LBB100_3
.LBB100_3:
	ud2
.LBB100_4:
	lea	rcx, [rbp - 56]
	call	"??1fail_fast@gsl@@UEAA@XZ"
.Ltmp408:
.LBB100_5:
	.cv_loc	100 2 593 0             # ..\include\gsl/span:593:0
	mov	rax, qword ptr [rbp]
	add	rsp, 144
	pop	rbp
	ret
	.seh_handlerdata
	.long	("$cppxdata$??$?0V?$extent_type@$09@details@gsl@@@?$storage_type@V?$extent_type@$0?0@details@gsl@@@?$span@E$0?0@gsl@@QEAA@UKnownNotNull@12@V?$extent_type@$09@details@2@@Z")@IMGREL
	.section	.text,"xr",discard,"??$?0V?$extent_type@$09@details@gsl@@@?$storage_type@V?$extent_type@$0?0@details@gsl@@@?$span@E$0?0@gsl@@QEAA@UKnownNotNull@12@V?$extent_type@$09@details@2@@Z"
	.seh_endproc
	.def	 "?dtor$6@?0???$?0V?$extent_type@$09@details@gsl@@@?$storage_type@V?$extent_type@$0?0@details@gsl@@@?$span@E$0?0@gsl@@QEAA@UKnownNotNull@12@V?$extent_type@$09@details@2@@Z@4HA";
	.scl	3;
	.type	32;
	.endef
	.p2align	4, 0x90
"?dtor$6@?0???$?0V?$extent_type@$09@details@gsl@@@?$storage_type@V?$extent_type@$0?0@details@gsl@@@?$span@E$0?0@gsl@@QEAA@UKnownNotNull@12@V?$extent_type@$09@details@2@@Z@4HA":
.seh_proc "?dtor$6@?0???$?0V?$extent_type@$09@details@gsl@@@?$storage_type@V?$extent_type@$0?0@details@gsl@@@?$span@E$0?0@gsl@@QEAA@UKnownNotNull@12@V?$extent_type@$09@details@2@@Z@4HA"
.LBB100_6:
	mov	qword ptr [rsp + 16], rdx
	push	rbp
	.seh_pushreg 5
	sub	rsp, 32
	.seh_stackalloc 32
	lea	rbp, [rdx + 128]
	.seh_endprologue
.Ltmp409:
	.cv_loc	100 2 592 0             # ..\include\gsl/span:592:0
	test	byte ptr [rbp - 57], 1
	jne	.LBB100_7
	jmp	.LBB100_8
.LBB100_7:
	lea	rcx, [rbp - 56]
	call	"??1fail_fast@gsl@@UEAA@XZ"
.LBB100_8:
	nop
	add	rsp, 32
	pop	rbp
	ret                             # CLEANUPRET
.Ltmp410:
.Lfunc_end100:
	.seh_handlerdata
	.section	.text,"xr",discard,"??$?0V?$extent_type@$09@details@gsl@@@?$storage_type@V?$extent_type@$0?0@details@gsl@@@?$span@E$0?0@gsl@@QEAA@UKnownNotNull@12@V?$extent_type@$09@details@2@@Z"
	.seh_endproc
	.section	.xdata,"dr",associative,"??$?0V?$extent_type@$09@details@gsl@@@?$storage_type@V?$extent_type@$0?0@details@gsl@@@?$span@E$0?0@gsl@@QEAA@UKnownNotNull@12@V?$extent_type@$09@details@2@@Z"
	.p2align	2
"$cppxdata$??$?0V?$extent_type@$09@details@gsl@@@?$storage_type@V?$extent_type@$0?0@details@gsl@@@?$span@E$0?0@gsl@@QEAA@UKnownNotNull@12@V?$extent_type@$09@details@2@@Z":
	.long	429065506               # MagicNumber
	.long	1                       # MaxState
	.long	("$stateUnwindMap$??$?0V?$extent_type@$09@details@gsl@@@?$storage_type@V?$extent_type@$0?0@details@gsl@@@?$span@E$0?0@gsl@@QEAA@UKnownNotNull@12@V?$extent_type@$09@details@2@@Z")@IMGREL # UnwindMap
	.long	0                       # NumTryBlocks
	.long	0                       # TryBlockMap
	.long	3                       # IPMapEntries
	.long	("$ip2state$??$?0V?$extent_type@$09@details@gsl@@@?$storage_type@V?$extent_type@$0?0@details@gsl@@@?$span@E$0?0@gsl@@QEAA@UKnownNotNull@12@V?$extent_type@$09@details@2@@Z")@IMGREL # IPToStateXData
	.long	136                     # UnwindHelp
	.long	0                       # ESTypeList
	.long	1                       # EHFlags
"$stateUnwindMap$??$?0V?$extent_type@$09@details@gsl@@@?$storage_type@V?$extent_type@$0?0@details@gsl@@@?$span@E$0?0@gsl@@QEAA@UKnownNotNull@12@V?$extent_type@$09@details@2@@Z":
	.long	-1                      # ToState
	.long	"?dtor$6@?0???$?0V?$extent_type@$09@details@gsl@@@?$storage_type@V?$extent_type@$0?0@details@gsl@@@?$span@E$0?0@gsl@@QEAA@UKnownNotNull@12@V?$extent_type@$09@details@2@@Z@4HA"@IMGREL # Action
"$ip2state$??$?0V?$extent_type@$09@details@gsl@@@?$storage_type@V?$extent_type@$0?0@details@gsl@@@?$span@E$0?0@gsl@@QEAA@UKnownNotNull@12@V?$extent_type@$09@details@2@@Z":
	.long	.Lfunc_begin100@IMGREL  # IP
	.long	-1                      # ToState
	.long	.Ltmp404@IMGREL+1       # IP
	.long	0                       # ToState
	.long	.Ltmp405@IMGREL+1       # IP
	.long	-1                      # ToState
	.section	.text,"xr",discard,"??$?0V?$extent_type@$09@details@gsl@@@?$storage_type@V?$extent_type@$0?0@details@gsl@@@?$span@E$0?0@gsl@@QEAA@UKnownNotNull@12@V?$extent_type@$09@details@2@@Z"
                                        # -- End function
	.def	 "??$?0$09@?$extent_type@$0?0@details@gsl@@QEAA@V?$extent_type@$09@12@@Z";
	.scl	2;
	.type	32;
	.endef
	.section	.text,"xr",discard,"??$?0$09@?$extent_type@$0?0@details@gsl@@QEAA@V?$extent_type@$09@12@@Z"
	.globl	"??$?0$09@?$extent_type@$0?0@details@gsl@@QEAA@V?$extent_type@$09@12@@Z" # -- Begin function ??$?0$09@?$extent_type@$0?0@details@gsl@@QEAA@V?$extent_type@$09@12@@Z
	.p2align	4, 0x90
"??$?0$09@?$extent_type@$0?0@details@gsl@@QEAA@V?$extent_type@$09@12@@Z": # @"??$?0$09@?$extent_type@$0?0@details@gsl@@QEAA@V?$extent_type@$09@12@@Z"
.Lfunc_begin101:
	.cv_func_id 101
	.cv_loc	101 2 334 0             # ..\include\gsl/span:334:0
.seh_proc "??$?0$09@?$extent_type@$0?0@details@gsl@@QEAA@V?$extent_type@$09@12@@Z"
# %bb.0:
	sub	rsp, 72
	.seh_stackalloc 72
	.seh_endprologue
	mov	rax, qword ptr [rip + __security_cookie]
	xor	rax, rsp
	mov	qword ptr [rsp + 64], rax
	mov	byte ptr [rsp + 56], dl
	mov	qword ptr [rsp + 48], rcx
	mov	rax, qword ptr [rsp + 48]
.Ltmp411:
	lea	rcx, [rsp + 56]
	#DEBUG_VALUE: extent_type<10>:ext <- [$rcx+0]
	mov	qword ptr [rsp + 40], rax # 8-byte Spill
	call	"?size@?$extent_type@$09@details@gsl@@QEBA_JXZ"
.Ltmp412:
	mov	rcx, qword ptr [rsp + 40] # 8-byte Reload
	mov	qword ptr [rcx], rax
	mov	rax, qword ptr [rsp + 64]
	xor	rax, rsp
	mov	rcx, rax
	call	__security_check_cookie
